

Microchip MPLAB XC8 Assembler V2.10 build 88905656 
                                                                                               Tue Feb 25 14:07:09 2020

Microchip MPLAB XC8 C Compiler v2.10 (Free license) build 20190730164152 Og1 
     1                           	processor	16F887
     2                           	opt	pw 120
     3                           	opt	flic
     4                           	psect	strings,global,class=STRING,delta=2
     5                           	psect	cinit,global,class=CODE,merge=1,delta=2
     6                           	psect	bssBANK0,global,class=BANK0,space=1,delta=1
     7                           	psect	bssBANK1,global,class=BANK1,space=1,delta=1
     8                           	psect	cstackCOMMON,global,class=COMMON,space=1,delta=1
     9                           	psect	cstackBANK0,global,class=BANK0,space=1,delta=1
    10                           	psect	maintext,global,class=CODE,split=1,delta=2
    11                           	psect	text1,local,class=CODE,merge=1,delta=2
    12                           	psect	text2,local,class=CODE,merge=1,delta=2,group=1
    13                           	psect	text3,local,class=CODE,merge=1,delta=2,group=1
    14                           	psect	text4,local,class=CODE,merge=1,delta=2
    15                           	psect	text5,local,class=CODE,merge=1,delta=2
    16                           	psect	text6,local,class=CODE,merge=1,delta=2,group=1
    17                           	psect	text7,local,class=CODE,merge=1,delta=2,group=1
    18                           	psect	text8,local,class=CODE,merge=1,delta=2,group=1
    19                           	psect	text9,local,class=CODE,merge=1,delta=2,group=1
    20                           	psect	text10,local,class=CODE,merge=1,delta=2,group=1
    21                           	psect	text11,local,class=CODE,merge=1,delta=2,group=1
    22                           	psect	text12,local,class=CODE,merge=1,delta=2,group=1
    23                           	psect	text13,local,class=CODE,merge=1,delta=2,group=1
    24                           	psect	text14,local,class=CODE,merge=1,delta=2
    25                           	psect	text15,local,class=CODE,merge=1,delta=2
    26                           	psect	text16,local,class=CODE,merge=1,delta=2
    27                           	psect	text17,local,class=CODE,merge=1,delta=2
    28                           	psect	text18,local,class=CODE,merge=1,delta=2
    29                           	psect	text19,local,class=CODE,merge=1,delta=2
    30                           	psect	text20,local,class=CODE,merge=1,delta=2
    31                           	psect	text21,local,class=CODE,merge=1,delta=2
    32                           	psect	text22,local,class=CODE,merge=1,delta=2
    33                           	psect	text23,local,class=CODE,merge=1,delta=2
    34                           	dabs	1,0x7E,2
    35  0000                     
    36                           ; Version 2.10
    37                           ; Generated 31/07/2019 GMT
    38                           ; 
    39                           ; Copyright © 2019, Microchip Technology Inc. and its subsidiaries ("Microchip")
    40                           ; All rights reserved.
    41                           ; 
    42                           ; This software is developed by Microchip Technology Inc. and its subsidiaries ("Microch
      +                          ip").
    43                           ; 
    44                           ; Redistribution and use in source and binary forms, with or without modification, are
    45                           ; permitted provided that the following conditions are met:
    46                           ; 
    47                           ;     1. Redistributions of source code must retain the above copyright notice, this lis
      +                          t of
    48                           ;        conditions and the following disclaimer.
    49                           ; 
    50                           ;     2. Redistributions in binary form must reproduce the above copyright notice, this 
      +                          list
    51                           ;        of conditions and the following disclaimer in the documentation and/or other
    52                           ;        materials provided with the distribution.
    53                           ; 
    54                           ;     3. Microchip's name may not be used to endorse or promote products derived from th
      +                          is
    55                           ;        software without specific prior written permission.
    56                           ; 
    57                           ; THIS SOFTWARE IS PROVIDED BY MICROCHIP "AS IS" AND ANY EXPRESS OR IMPLIED WARRANTIES,
    58                           ; INCLUDING, BUT NOT LIMITED TO, THE IMPLIED WARRANTIES OF MERCHANTABILITY AND FITNESS F
      +                          OR
    59                           ; PURPOSE ARE DISCLAIMED.  IN NO EVENT SHALL MICROCHIP BE LIABLE FOR ANY DIRECT, INDIREC
      +                          T,
    60                           ; INCIDENTAL, SPECIAL, EXEMPLARY, OR CONSEQUENTIAL DAMAGES (INCLUDING BUT NOT LIMITED TO
    61                           ; PROCUREMENT OF SUBSTITUTE GOODS OR SERVICES; LOSS OF USE, DATA OR PROFITS; OR BUSINESS
    62                           ; INTERRUPTION) HOWSOEVER CAUSED AND ON ANY THEORY OF LIABILITY, WHETHER IN CONTRACT, ST
      +                          RICT
    63                           ; LIABILITY, OR TORT (INCLUDING NEGLIGENCE OR OTHERWISE) ARISING IN ANY WAY OUT OF THE U
      +                          SE OF
    64                           ; THIS SOFTWARE, EVEN IF ADVISED OF THE POSSIBILITY OF SUCH DAMAGE.
    65                           ; 
    66                           ; 
    67                           ; Code-generator required, PIC16F887 Definitions
    68                           ; 
    69                           ; SFR Addresses
    70  0000                     	;# 
    71  0001                     	;# 
    72  0002                     	;# 
    73  0003                     	;# 
    74  0004                     	;# 
    75  0005                     	;# 
    76  0006                     	;# 
    77  0007                     	;# 
    78  0008                     	;# 
    79  0009                     	;# 
    80  000A                     	;# 
    81  000B                     	;# 
    82  000C                     	;# 
    83  000D                     	;# 
    84  000E                     	;# 
    85  000E                     	;# 
    86  000F                     	;# 
    87  0010                     	;# 
    88  0011                     	;# 
    89  0012                     	;# 
    90  0013                     	;# 
    91  0014                     	;# 
    92  0015                     	;# 
    93  0015                     	;# 
    94  0016                     	;# 
    95  0017                     	;# 
    96  0018                     	;# 
    97  0019                     	;# 
    98  001A                     	;# 
    99  001B                     	;# 
   100  001B                     	;# 
   101  001C                     	;# 
   102  001D                     	;# 
   103  001E                     	;# 
   104  001F                     	;# 
   105  0081                     	;# 
   106  0085                     	;# 
   107  0086                     	;# 
   108  0087                     	;# 
   109  0088                     	;# 
   110  0089                     	;# 
   111  008C                     	;# 
   112  008D                     	;# 
   113  008E                     	;# 
   114  008F                     	;# 
   115  0090                     	;# 
   116  0091                     	;# 
   117  0092                     	;# 
   118  0093                     	;# 
   119  0093                     	;# 
   120  0093                     	;# 
   121  0094                     	;# 
   122  0095                     	;# 
   123  0096                     	;# 
   124  0097                     	;# 
   125  0098                     	;# 
   126  0099                     	;# 
   127  009A                     	;# 
   128  009B                     	;# 
   129  009C                     	;# 
   130  009D                     	;# 
   131  009E                     	;# 
   132  009F                     	;# 
   133  0105                     	;# 
   134  0107                     	;# 
   135  0108                     	;# 
   136  0109                     	;# 
   137  010C                     	;# 
   138  010C                     	;# 
   139  010D                     	;# 
   140  010E                     	;# 
   141  010F                     	;# 
   142  0185                     	;# 
   143  0187                     	;# 
   144  0188                     	;# 
   145  0189                     	;# 
   146  018C                     	;# 
   147  018D                     	;# 
   148  0000                     	;# 
   149  0001                     	;# 
   150  0002                     	;# 
   151  0003                     	;# 
   152  0004                     	;# 
   153  0005                     	;# 
   154  0006                     	;# 
   155  0007                     	;# 
   156  0008                     	;# 
   157  0009                     	;# 
   158  000A                     	;# 
   159  000B                     	;# 
   160  000C                     	;# 
   161  000D                     	;# 
   162  000E                     	;# 
   163  000E                     	;# 
   164  000F                     	;# 
   165  0010                     	;# 
   166  0011                     	;# 
   167  0012                     	;# 
   168  0013                     	;# 
   169  0014                     	;# 
   170  0015                     	;# 
   171  0015                     	;# 
   172  0016                     	;# 
   173  0017                     	;# 
   174  0018                     	;# 
   175  0019                     	;# 
   176  001A                     	;# 
   177  001B                     	;# 
   178  001B                     	;# 
   179  001C                     	;# 
   180  001D                     	;# 
   181  001E                     	;# 
   182  001F                     	;# 
   183  0081                     	;# 
   184  0085                     	;# 
   185  0086                     	;# 
   186  0087                     	;# 
   187  0088                     	;# 
   188  0089                     	;# 
   189  008C                     	;# 
   190  008D                     	;# 
   191  008E                     	;# 
   192  008F                     	;# 
   193  0090                     	;# 
   194  0091                     	;# 
   195  0092                     	;# 
   196  0093                     	;# 
   197  0093                     	;# 
   198  0093                     	;# 
   199  0094                     	;# 
   200  0095                     	;# 
   201  0096                     	;# 
   202  0097                     	;# 
   203  0098                     	;# 
   204  0099                     	;# 
   205  009A                     	;# 
   206  009B                     	;# 
   207  009C                     	;# 
   208  009D                     	;# 
   209  009E                     	;# 
   210  009F                     	;# 
   211  0105                     	;# 
   212  0107                     	;# 
   213  0108                     	;# 
   214  0109                     	;# 
   215  010C                     	;# 
   216  010C                     	;# 
   217  010D                     	;# 
   218  010E                     	;# 
   219  010F                     	;# 
   220  0185                     	;# 
   221  0187                     	;# 
   222  0188                     	;# 
   223  0189                     	;# 
   224  018C                     	;# 
   225  018D                     	;# 
   226  0000                     	;# 
   227  0001                     	;# 
   228  0002                     	;# 
   229  0003                     	;# 
   230  0004                     	;# 
   231  0005                     	;# 
   232  0006                     	;# 
   233  0007                     	;# 
   234  0008                     	;# 
   235  0009                     	;# 
   236  000A                     	;# 
   237  000B                     	;# 
   238  000C                     	;# 
   239  000D                     	;# 
   240  000E                     	;# 
   241  000E                     	;# 
   242  000F                     	;# 
   243  0010                     	;# 
   244  0011                     	;# 
   245  0012                     	;# 
   246  0013                     	;# 
   247  0014                     	;# 
   248  0015                     	;# 
   249  0015                     	;# 
   250  0016                     	;# 
   251  0017                     	;# 
   252  0018                     	;# 
   253  0019                     	;# 
   254  001A                     	;# 
   255  001B                     	;# 
   256  001B                     	;# 
   257  001C                     	;# 
   258  001D                     	;# 
   259  001E                     	;# 
   260  001F                     	;# 
   261  0081                     	;# 
   262  0085                     	;# 
   263  0086                     	;# 
   264  0087                     	;# 
   265  0088                     	;# 
   266  0089                     	;# 
   267  008C                     	;# 
   268  008D                     	;# 
   269  008E                     	;# 
   270  008F                     	;# 
   271  0090                     	;# 
   272  0091                     	;# 
   273  0092                     	;# 
   274  0093                     	;# 
   275  0093                     	;# 
   276  0093                     	;# 
   277  0094                     	;# 
   278  0095                     	;# 
   279  0096                     	;# 
   280  0097                     	;# 
   281  0098                     	;# 
   282  0099                     	;# 
   283  009A                     	;# 
   284  009B                     	;# 
   285  009C                     	;# 
   286  009D                     	;# 
   287  009E                     	;# 
   288  009F                     	;# 
   289  0105                     	;# 
   290  0107                     	;# 
   291  0108                     	;# 
   292  0109                     	;# 
   293  010C                     	;# 
   294  010C                     	;# 
   295  010D                     	;# 
   296  010E                     	;# 
   297  010F                     	;# 
   298  0185                     	;# 
   299  0187                     	;# 
   300  0188                     	;# 
   301  0189                     	;# 
   302  018C                     	;# 
   303  018D                     	;# 
   304  0000                     	;# 
   305  0001                     	;# 
   306  0002                     	;# 
   307  0003                     	;# 
   308  0004                     	;# 
   309  0005                     	;# 
   310  0006                     	;# 
   311  0007                     	;# 
   312  0008                     	;# 
   313  0009                     	;# 
   314  000A                     	;# 
   315  000B                     	;# 
   316  000C                     	;# 
   317  000D                     	;# 
   318  000E                     	;# 
   319  000E                     	;# 
   320  000F                     	;# 
   321  0010                     	;# 
   322  0011                     	;# 
   323  0012                     	;# 
   324  0013                     	;# 
   325  0014                     	;# 
   326  0015                     	;# 
   327  0015                     	;# 
   328  0016                     	;# 
   329  0017                     	;# 
   330  0018                     	;# 
   331  0019                     	;# 
   332  001A                     	;# 
   333  001B                     	;# 
   334  001B                     	;# 
   335  001C                     	;# 
   336  001D                     	;# 
   337  001E                     	;# 
   338  001F                     	;# 
   339  0081                     	;# 
   340  0085                     	;# 
   341  0086                     	;# 
   342  0087                     	;# 
   343  0088                     	;# 
   344  0089                     	;# 
   345  008C                     	;# 
   346  008D                     	;# 
   347  008E                     	;# 
   348  008F                     	;# 
   349  0090                     	;# 
   350  0091                     	;# 
   351  0092                     	;# 
   352  0093                     	;# 
   353  0093                     	;# 
   354  0093                     	;# 
   355  0094                     	;# 
   356  0095                     	;# 
   357  0096                     	;# 
   358  0097                     	;# 
   359  0098                     	;# 
   360  0099                     	;# 
   361  009A                     	;# 
   362  009B                     	;# 
   363  009C                     	;# 
   364  009D                     	;# 
   365  009E                     	;# 
   366  009F                     	;# 
   367  0105                     	;# 
   368  0107                     	;# 
   369  0108                     	;# 
   370  0109                     	;# 
   371  010C                     	;# 
   372  010C                     	;# 
   373  010D                     	;# 
   374  010E                     	;# 
   375  010F                     	;# 
   376  0185                     	;# 
   377  0187                     	;# 
   378  0188                     	;# 
   379  0189                     	;# 
   380  018C                     	;# 
   381  018D                     	;# 
   382                           
   383                           	psect	strings
   384  0800                     __pstrings:	
   385  0800                     stringtab:	
   386  0800                     __stringtab:	
   387                           
   388                           ;	String table - string pointers are 1 byte each
   389  0800  1BFF               	btfsc	btemp+1,7
   390  0801  280A               	ljmp	stringcode
   391  0802  1383               	bcf	3,7
   392  0803  187F               	btfsc	btemp+1,0
   393  0804  1783               	bsf	3,7
   394  0805  0800               	movf	0,w
   395  0806  0A84               	incf	4,f
   396  0807  1903               	skipnz
   397  0808  0AFF               	incf	btemp+1,f
   398  0809  0008               	return
   399  080A                     stringcode:	
   400  080A                     stringdir:	
   401  080A  3008               	movlw	high stringdir
   402  080B  008A               	movwf	10
   403  080C  0804               	movf	4,w
   404  080D  0A84               	incf	4,f
   405  080E  0782               	addwf	2,f
   406  080F                     __stringbase:	
   407  080F  3400               	retlw	0
   408  0810                     __end_of__stringtab:	
   409  0810                     _dpowers:	
   410  0810  3401               	retlw	1
   411  0811  3400               	retlw	0
   412  0812  340A               	retlw	10
   413  0813  3400               	retlw	0
   414  0814  3464               	retlw	100
   415  0815  3400               	retlw	0
   416  0816  34E8               	retlw	232
   417  0817  3403               	retlw	3
   418  0818  3410               	retlw	16
   419  0819  3427               	retlw	39
   420  081A                     __end_of_dpowers:	
   421  0013                     _SSPBUF	set	19
   422  0014                     _SSPCON	set	20
   423  0006                     _PORTBbits	set	6
   424  0008                     _PORTD	set	8
   425  0007                     _PORTC	set	7
   426  0006                     _PORTB	set	6
   427  0005                     _PORTA	set	5
   428  0063                     _SSPIF	set	99
   429  005E                     _PEIE	set	94
   430  005F                     _GIE	set	95
   431  0091                     _SSPCON2bits	set	145
   432  0087                     _TRISCbits	set	135
   433  0094                     _SSPSTAT	set	148
   434  0093                     _SSPADD	set	147
   435  0091                     _SSPCON2	set	145
   436  0088                     _TRISD	set	136
   437  0086                     _TRISB	set	134
   438  0463                     _SSPIE	set	1123
   439  043C                     _TRISC4	set	1084
   440  043B                     _TRISC3	set	1083
   441  0188                     _ANSELbits	set	392
   442  0188                     _ANSEL	set	392
   443  0189                     _ANSELH	set	393
   444  081A                     STR_2:	
   445  081A  3443               	retlw	67	;'C'
   446  081B  344F               	retlw	79	;'O'
   447  081C  344E               	retlw	78	;'N'
   448  081D  3454               	retlw	84	;'T'
   449  081E  343A               	retlw	58	;':'
   450  081F  3400               	retlw	0
   451  0820                     STR_1:	
   452  0820  3453               	retlw	83	;'S'
   453  0821  3431               	retlw	49	;'1'
   454  0822  343A               	retlw	58	;':'
   455  0823  3400               	retlw	0
   456  0824                     STR_3:	
   457  0824  3425               	retlw	37	;'%'
   458  0825  3464               	retlw	100	;'d'
   459  0826  3400               	retlw	0
   460  0827                     STR_6:	
   461  0827  342E               	retlw	46	;'.'
   462  0828  3400               	retlw	0
   463  0829                     STR_7:	
   464  0829  3430               	retlw	48	;'0'
   465  082A  3400               	retlw	0
   466  082B                     STR_8:	
   467  082B  3456               	retlw	86	;'V'
   468  082C  3400               	retlw	0
   469  0829                     
   470                           ; #config settings
   471  0000                     
   472                           	psect	cinit
   473  07E4                     start_initialization:	
   474  07E4                     __initialization:	
   475                           
   476                           ; Clear objects allocated to BANK0
   477  07E4  1283               	bcf	3,5	;RP0=0, select bank0
   478  07E5  1303               	bcf	3,6	;RP1=0, select bank0
   479  07E6  01E8               	clrf	__pbssBANK0& (0+127)
   480  07E7  01E9               	clrf	(__pbssBANK0+1)& (0+127)
   481  07E8  01EA               	clrf	(__pbssBANK0+2)& (0+127)
   482  07E9  01EB               	clrf	(__pbssBANK0+3)& (0+127)
   483  07EA  01EC               	clrf	(__pbssBANK0+4)& (0+127)
   484  07EB  01ED               	clrf	(__pbssBANK0+5)& (0+127)
   485  07EC  01EE               	clrf	(__pbssBANK0+6)& (0+127)
   486                           
   487                           ; Clear objects allocated to BANK1
   488  07ED  1683               	bsf	3,5	;RP0=1, select bank1
   489  07EE  1303               	bcf	3,6	;RP1=0, select bank1
   490  07EF  01A0               	clrf	__pbssBANK1& (0+127)
   491  07F0  01A1               	clrf	(__pbssBANK1+1)& (0+127)
   492  07F1  01A2               	clrf	(__pbssBANK1+2)& (0+127)
   493  07F2  01A3               	clrf	(__pbssBANK1+3)& (0+127)
   494  07F3  01A4               	clrf	(__pbssBANK1+4)& (0+127)
   495  07F4  01A5               	clrf	(__pbssBANK1+5)& (0+127)
   496  07F5  01A6               	clrf	(__pbssBANK1+6)& (0+127)
   497  07F6  01A7               	clrf	(__pbssBANK1+7)& (0+127)
   498  07F7  01A8               	clrf	(__pbssBANK1+8)& (0+127)
   499  07F8  01A9               	clrf	(__pbssBANK1+9)& (0+127)
   500  07F9  01AA               	clrf	(__pbssBANK1+10)& (0+127)
   501  07FA  01AB               	clrf	(__pbssBANK1+11)& (0+127)
   502  07FB  01AC               	clrf	(__pbssBANK1+12)& (0+127)
   503  07FC                     end_of_initialization:	
   504                           ;End of C runtime variable initialization code
   505                           
   506  07FC                     __end_of__initialization:	
   507  07FC  0183               	clrf	3
   508  07FD  120A  158A  2DC8   	ljmp	_main	;jump to C main() function
   509                           
   510                           	psect	bssBANK0
   511  0068                     __pbssBANK0:	
   512  0068                     _dec1:	
   513  0068                     	ds	2
   514  006A                     _int1:	
   515  006A                     	ds	2
   516  006C                     _va1:	
   517  006C                     	ds	1
   518  006D                     _cont:	
   519  006D                     	ds	1
   520  006E                     _contStr:	
   521  006E                     	ds	1
   522                           
   523                           	psect	bssBANK1
   524  00A0                     __pbssBANK1:	
   525  00A0                     _dectemp1:	
   526  00A0                     	ds	4
   527  00A4                     _pot1:	
   528  00A4                     	ds	4
   529  00A8                     _potStr1:	
   530  00A8                     	ds	3
   531  00AB                     _decpot1:	
   532  00AB                     	ds	2
   533                           
   534                           	psect	cstackCOMMON
   535  0070                     __pcstackCOMMON:	
   536  0070                     ?_config:	
   537  0070                     ?_LCD8bits_init:	
   538                           ; 1 bytes @ 0x0
   539                           
   540  0070                     ?_I2C_Master_Start:	
   541                           ; 1 bytes @ 0x0
   542                           
   543  0070                     ??_I2C_Master_Start:	
   544                           ; 1 bytes @ 0x0
   545                           
   546  0070                     ?_I2C_Master_Write:	
   547                           ; 1 bytes @ 0x0
   548                           
   549  0070                     ?_I2C_Master_Stop:	
   550                           ; 1 bytes @ 0x0
   551                           
   552  0070                     ??_I2C_Master_Stop:	
   553                           ; 1 bytes @ 0x0
   554                           
   555  0070                     ?_LCDcmd:	
   556                           ; 1 bytes @ 0x0
   557                           
   558  0070                     ??_LCDcmd:	
   559                           ; 1 bytes @ 0x0
   560                           
   561  0070                     ?_main:	
   562                           ; 1 bytes @ 0x0
   563                           
   564  0070                     ?_LCDwrite:	
   565                           ; 1 bytes @ 0x0
   566                           
   567  0070                     ??_LCDwrite:	
   568                           ; 1 bytes @ 0x0
   569                           
   570  0070                     ?_I2C_Master_Wait:	
   571                           ; 1 bytes @ 0x0
   572                           
   573  0070                     ??_I2C_Master_Wait:	
   574                           ; 1 bytes @ 0x0
   575                           
   576  0070                     ?_I2C_Master_Read:	
   577                           ; 1 bytes @ 0x0
   578                           
   579  0070                     ?__Umul8_16:	
   580                           ; 2 bytes @ 0x0
   581                           
   582  0070                     ?___lwdiv:	
   583                           ; 2 bytes @ 0x0
   584                           
   585  0070                     ?___lldiv:	
   586                           ; 2 bytes @ 0x0
   587                           
   588  0070                     ?___fltol:	
   589                           ; 4 bytes @ 0x0
   590                           
   591  0070                     ?___fladd:	
   592                           ; 4 bytes @ 0x0
   593                           
   594  0070                     ?___xxtofl:	
   595                           ; 4 bytes @ 0x0
   596                           
   597  0070                     __Umul8_16@multiplicand:	
   598                           ; 4 bytes @ 0x0
   599                           
   600  0070                     I2C_Master_Write@d:	
   601                           ; 1 bytes @ 0x0
   602                           
   603  0070                     I2C_Master_Read@a:	
   604                           ; 2 bytes @ 0x0
   605                           
   606  0070                     ___lwdiv@divisor:	
   607                           ; 2 bytes @ 0x0
   608                           
   609  0070                     ___lldiv@divisor:	
   610                           ; 2 bytes @ 0x0
   611                           
   612  0070                     ___fltol@f1:	
   613                           ; 4 bytes @ 0x0
   614                           
   615  0070                     ___fladd@b:	
   616                           ; 4 bytes @ 0x0
   617                           
   618  0070                     ___xxtofl@val:	
   619                           ; 4 bytes @ 0x0
   620                           
   621                           
   622                           ; 4 bytes @ 0x0
   623  0070                     	ds	2
   624  0072                     ??_I2C_Master_Write:	
   625  0072                     ??_I2C_Master_Read:	
   626                           ; 1 bytes @ 0x2
   627                           
   628  0072                     ??__Umul8_16:	
   629                           ; 1 bytes @ 0x2
   630                           
   631  0072                     LCDcmd@cmd:	
   632                           ; 1 bytes @ 0x2
   633                           
   634  0072                     LCDwrite@dato:	
   635                           ; 1 bytes @ 0x2
   636                           
   637  0072                     ___lwdiv@dividend:	
   638                           ; 1 bytes @ 0x2
   639                           
   640                           
   641                           ; 2 bytes @ 0x2
   642  0072                     	ds	1
   643  0073                     ??_LCD8bits_init:	
   644  0073                     ?_LCDcursorSet:	
   645                           ; 1 bytes @ 0x3
   646                           
   647  0073                     ?_LCDisplay:	
   648                           ; 1 bytes @ 0x3
   649                           
   650  0073                     LCDcursorSet@column:	
   651                           ; 1 bytes @ 0x3
   652                           
   653  0073                     LCDisplay@val:	
   654                           ; 1 bytes @ 0x3
   655                           
   656                           
   657                           ; 2 bytes @ 0x3
   658  0073                     	ds	1
   659  0074                     ??_LCDcursorSet:	
   660  0074                     ??___fltol:	
   661                           ; 1 bytes @ 0x4
   662                           
   663  0074                     ??___lwdiv:	
   664                           ; 1 bytes @ 0x4
   665                           
   666  0074                     ??___xxtofl:	
   667                           ; 1 bytes @ 0x4
   668                           
   669  0074                     LCDcursorSet@row:	
   670                           ; 1 bytes @ 0x4
   671                           
   672  0074                     I2C_Master_Read@temp:	
   673                           ; 1 bytes @ 0x4
   674                           
   675  0074                     __Umul8_16@product:	
   676                           ; 2 bytes @ 0x4
   677                           
   678  0074                     ___lldiv@dividend:	
   679                           ; 2 bytes @ 0x4
   680                           
   681  0074                     ___fladd@a:	
   682                           ; 4 bytes @ 0x4
   683                           
   684                           
   685                           ; 4 bytes @ 0x4
   686  0074                     	ds	1
   687  0075                     ??_LCDisplay:	
   688  0075                     ___lwdiv@quotient:	
   689                           ; 1 bytes @ 0x5
   690                           
   691                           
   692                           ; 2 bytes @ 0x5
   693  0075                     	ds	1
   694  0076                     __Umul8_16@word_mpld:	
   695                           
   696                           ; 2 bytes @ 0x6
   697  0076                     	ds	1
   698  0077                     ___lwdiv@counter:	
   699                           
   700                           ; 1 bytes @ 0x7
   701  0077                     	ds	1
   702  0078                     ??___lldiv:	
   703  0078                     ?___lwmod:	
   704                           ; 1 bytes @ 0x8
   705                           
   706  0078                     ___fladd@signs:	
   707                           ; 2 bytes @ 0x8
   708                           
   709  0078                     ___xxtofl@sign:	
   710                           ; 1 bytes @ 0x8
   711                           
   712  0078                     __Umul8_16@multiplier:	
   713                           ; 1 bytes @ 0x8
   714                           
   715  0078                     ___lwmod@divisor:	
   716                           ; 1 bytes @ 0x8
   717                           
   718                           
   719                           ; 2 bytes @ 0x8
   720  0078                     	ds	1
   721  0079                     ___fltol@sign1:	
   722  0079                     ___fladd@aexp:	
   723                           ; 1 bytes @ 0x9
   724                           
   725  0079                     ___xxtofl@exp:	
   726                           ; 1 bytes @ 0x9
   727                           
   728  0079                     ___lldiv@quotient:	
   729                           ; 1 bytes @ 0x9
   730                           
   731                           
   732                           ; 4 bytes @ 0x9
   733  0079                     	ds	1
   734  007A                     ___fltol@exp1:	
   735  007A                     ___fladd@bexp:	
   736                           ; 1 bytes @ 0xA
   737                           
   738  007A                     ___lwmod@dividend:	
   739                           ; 1 bytes @ 0xA
   740                           
   741  007A                     ___xxtofl@arg:	
   742                           ; 2 bytes @ 0xA
   743                           
   744                           
   745                           ; 4 bytes @ 0xA
   746  007A                     	ds	1
   747  007B                     ___fladd@grs:	
   748                           
   749                           ; 1 bytes @ 0xB
   750  007B                     	ds	1
   751  007C                     ??___lwmod:	
   752                           
   753                           ; 1 bytes @ 0xC
   754  007C                     	ds	1
   755  007D                     ___lldiv@counter:	
   756  007D                     ___lwmod@counter:	
   757                           ; 1 bytes @ 0xD
   758                           
   759                           
   760                           ; 1 bytes @ 0xD
   761  007D                     	ds	1
   762  007E                     ??_config:	
   763  007E                     ??___flsub:	
   764                           ; 1 bytes @ 0xE
   765                           
   766                           
   767                           	psect	cstackBANK0
   768  0020                     __pcstackBANK0:	
   769                           ; 1 bytes @ 0xE
   770                           
   771  0020                     ?_I2C_Master_Init:	
   772  0020                     ??___fladd:	
   773                           ; 1 bytes @ 0x0
   774                           
   775  0020                     ?_sprintf:	
   776                           ; 1 bytes @ 0x0
   777                           
   778  0020                     sprintf@f:	
   779                           ; 2 bytes @ 0x0
   780                           
   781  0020                     I2C_Master_Init@c:	
   782                           ; 1 bytes @ 0x0
   783                           
   784                           
   785                           ; 4 bytes @ 0x0
   786  0020                     	ds	3
   787  0023                     ??_sprintf:	
   788                           
   789                           ; 1 bytes @ 0x3
   790  0023                     	ds	1
   791  0024                     ??_I2C_Master_Init:	
   792                           
   793                           ; 1 bytes @ 0x4
   794  0024                     	ds	2
   795  0026                     sprintf@ap:	
   796                           
   797                           ; 1 bytes @ 0x6
   798  0026                     	ds	1
   799  0027                     sprintf@flag:	
   800                           
   801                           ; 1 bytes @ 0x7
   802  0027                     	ds	1
   803  0028                     ?___flsub:	
   804  0028                     sprintf@prec:	
   805                           ; 4 bytes @ 0x8
   806                           
   807  0028                     ___flsub@a:	
   808                           ; 1 bytes @ 0x8
   809                           
   810                           
   811                           ; 4 bytes @ 0x8
   812  0028                     	ds	1
   813  0029                     sprintf@val:	
   814                           
   815                           ; 2 bytes @ 0x9
   816  0029                     	ds	2
   817  002B                     sprintf@sp:	
   818                           
   819                           ; 1 bytes @ 0xB
   820  002B                     	ds	1
   821  002C                     sprintf@c:	
   822  002C                     ___flsub@b:	
   823                           ; 1 bytes @ 0xC
   824                           
   825                           
   826                           ; 4 bytes @ 0xC
   827  002C                     	ds	4
   828  0030                     ?___flmul:	
   829  0030                     ___flmul@b:	
   830                           ; 4 bytes @ 0x10
   831                           
   832                           
   833                           ; 4 bytes @ 0x10
   834  0030                     	ds	4
   835  0034                     ___flmul@a:	
   836                           
   837                           ; 4 bytes @ 0x14
   838  0034                     	ds	4
   839  0038                     ??___flmul:	
   840                           
   841                           ; 1 bytes @ 0x18
   842  0038                     	ds	5
   843  003D                     ___flmul@sign:	
   844                           
   845                           ; 1 bytes @ 0x1D
   846  003D                     	ds	1
   847  003E                     ___flmul@grs:	
   848                           
   849                           ; 4 bytes @ 0x1E
   850  003E                     	ds	4
   851  0042                     ___flmul@aexp:	
   852                           
   853                           ; 1 bytes @ 0x22
   854  0042                     	ds	1
   855  0043                     ___flmul@bexp:	
   856                           
   857                           ; 1 bytes @ 0x23
   858  0043                     	ds	1
   859  0044                     ___flmul@prod:	
   860                           
   861                           ; 4 bytes @ 0x24
   862  0044                     	ds	4
   863  0048                     ___flmul@temp:	
   864                           
   865                           ; 2 bytes @ 0x28
   866  0048                     	ds	2
   867  004A                     ?___fldiv:	
   868  004A                     ___fldiv@a:	
   869                           ; 4 bytes @ 0x2A
   870                           
   871                           
   872                           ; 4 bytes @ 0x2A
   873  004A                     	ds	4
   874  004E                     ___fldiv@b:	
   875                           
   876                           ; 4 bytes @ 0x2E
   877  004E                     	ds	4
   878  0052                     ??___fldiv:	
   879                           
   880                           ; 1 bytes @ 0x32
   881  0052                     	ds	5
   882  0057                     ___fldiv@rem:	
   883                           
   884                           ; 4 bytes @ 0x37
   885  0057                     	ds	4
   886  005B                     ___fldiv@sign:	
   887                           
   888                           ; 1 bytes @ 0x3B
   889  005B                     	ds	1
   890  005C                     ___fldiv@new_exp:	
   891                           
   892                           ; 2 bytes @ 0x3C
   893  005C                     	ds	2
   894  005E                     ___fldiv@grs:	
   895                           
   896                           ; 4 bytes @ 0x3E
   897  005E                     	ds	4
   898  0062                     ___fldiv@bexp:	
   899                           
   900                           ; 1 bytes @ 0x42
   901  0062                     	ds	1
   902  0063                     ___fldiv@aexp:	
   903                           
   904                           ; 1 bytes @ 0x43
   905  0063                     	ds	1
   906  0064                     ??_main:	
   907                           
   908                           ; 1 bytes @ 0x44
   909  0064                     	ds	4
   910                           
   911                           	psect	maintext
   912  0DC8                     __pmaintext:	
   913 ;;
   914 ;;Main: autosize = 0, tempsize = 4, incstack = 0, save=0
   915 ;;
   916 ;; *************** function _main *****************
   917 ;; Defined at:
   918 ;;		line 47 in file "main.c"
   919 ;; Parameters:    Size  Location     Type
   920 ;;		None
   921 ;; Auto vars:     Size  Location     Type
   922 ;;		None
   923 ;; Return value:  Size  Location     Type
   924 ;;                  1    wreg      void 
   925 ;; Registers used:
   926 ;;		wreg, fsr0l, fsr0h, status,2, status,0, btemp+1, pclath, cstack
   927 ;; Tracked objects:
   928 ;;		On entry : B00/0
   929 ;;		On exit  : 0/0
   930 ;;		Unchanged: 0/0
   931 ;; Data sizes:     COMMON   BANK0   BANK1   BANK3   BANK2
   932 ;;      Params:         0       0       0       0       0
   933 ;;      Locals:         0       0       0       0       0
   934 ;;      Temps:          0       4       0       0       0
   935 ;;      Totals:         0       4       0       0       0
   936 ;;Total ram usage:        4 bytes
   937 ;; Hardware stack levels required when called:    3
   938 ;; This function calls:
   939 ;;		_I2C_Master_Read
   940 ;;		_I2C_Master_Start
   941 ;;		_I2C_Master_Stop
   942 ;;		_I2C_Master_Write
   943 ;;		_LCD8bits_init
   944 ;;		_LCDcursorSet
   945 ;;		_LCDisplay
   946 ;;		___fldiv
   947 ;;		___flmul
   948 ;;		___flsub
   949 ;;		___fltol
   950 ;;		___xxtofl
   951 ;;		_config
   952 ;;		_sprintf
   953 ;; This function is called by:
   954 ;;		Startup code after reset
   955 ;; This function uses a non-reentrant model
   956 ;;
   957                           
   958                           
   959                           ;psect for function _main
   960  0DC8                     _main:	
   961  0DC8                     l2507:	
   962                           ;incstack = 0
   963                           ; Regs used in _main: [wreg-fsr0h+status,2+status,0+btemp+1+pclath+cstack]
   964                           
   965                           
   966                           ;main.c: 48:     config();
   967  0DC8  120A  158A  217D  120A  158A  	fcall	_config
   968                           
   969                           ;main.c: 49:     LCD8bits_init();
   970  0DCD  120A  158A  22F0  120A  158A  	fcall	_LCD8bits_init
   971                           
   972                           ;main.c: 50:     LCDcursorSet(1,1);
   973  0DD2  01F3               	clrf	LCDcursorSet@column
   974  0DD3  0AF3               	incf	LCDcursorSet@column,f
   975  0DD4  3001               	movlw	1
   976  0DD5  120A  158A  2161  120A  158A  	fcall	_LCDcursorSet
   977  0DDA                     l2509:	
   978                           
   979                           ;main.c: 51:     LCDisplay("S1:");
   980  0DDA  3011               	movlw	(low ((STR_1-__stringbase)| (0+32768)))& (0+255)
   981  0DDB  00F3               	movwf	LCDisplay@val
   982  0DDC  3080               	movlw	128
   983  0DDD  00F4               	movwf	LCDisplay@val+1
   984  0DDE  120A  158A  21BF  120A  158A  	fcall	_LCDisplay
   985  0DE3                     l2511:	
   986                           
   987                           ;main.c: 52:     LCDcursorSet(1,6);
   988  0DE3  3006               	movlw	6
   989  0DE4  1283               	bcf	3,5	;RP0=0, select bank0
   990  0DE5  1303               	bcf	3,6	;RP1=0, select bank0
   991  0DE6  00E4               	movwf	??_main
   992  0DE7  0864               	movf	??_main,w
   993  0DE8  00F3               	movwf	LCDcursorSet@column
   994  0DE9  3001               	movlw	1
   995  0DEA  120A  158A  2161  120A  158A  	fcall	_LCDcursorSet
   996                           
   997                           ;main.c: 53:     LCDisplay("CONT:");
   998  0DEF  300B               	movlw	(low ((STR_2-__stringbase)| (0+32768)))& (0+255)
   999  0DF0  00F3               	movwf	LCDisplay@val
  1000  0DF1  3080               	movlw	128
  1001  0DF2  00F4               	movwf	LCDisplay@val+1
  1002  0DF3  120A  158A  21BF  120A  158A  	fcall	_LCDisplay
  1003  0DF8                     l2513:	
  1004                           
  1005                           ;main.c: 55:         I2C_Master_Start();
  1006  0DF8  120A  158A  211A  120A  158A  	fcall	_I2C_Master_Start
  1007  0DFD                     l2515:	
  1008                           
  1009                           ;main.c: 56:         I2C_Master_Write(0x51);
  1010  0DFD  3051               	movlw	81
  1011  0DFE  00F0               	movwf	I2C_Master_Write@d
  1012  0DFF  3000               	movlw	0
  1013  0E00  00F1               	movwf	I2C_Master_Write@d+1
  1014  0E01  120A  118A  2004  120A  158A  	fcall	_I2C_Master_Write
  1015  0E06                     l2517:	
  1016                           
  1017                           ;main.c: 57:         va1 = I2C_Master_Read(0);
  1018  0E06  3000               	movlw	0
  1019  0E07  00F0               	movwf	I2C_Master_Read@a
  1020  0E08  00F1               	movwf	I2C_Master_Read@a+1
  1021  0E09  120A  158A  220C  120A  158A  	fcall	_I2C_Master_Read
  1022  0E0E  0870               	movf	?_I2C_Master_Read,w
  1023  0E0F  1283               	bcf	3,5	;RP0=0, select bank0
  1024  0E10  1303               	bcf	3,6	;RP1=0, select bank0
  1025  0E11  00E4               	movwf	??_main
  1026  0E12  0864               	movf	??_main,w
  1027  0E13  00EC               	movwf	_va1
  1028  0E14                     l2519:	
  1029                           
  1030                           ;main.c: 58:         I2C_Master_Stop();
  1031  0E14  120A  158A  2123  120A  158A  	fcall	_I2C_Master_Stop
  1032  0E19                     l2521:	
  1033                           
  1034                           ;main.c: 59:         _delay((unsigned long)((10)*(4000000/4000.0)));
  1035  0E19  300D               	movlw	13
  1036  0E1A  1283               	bcf	3,5	;RP0=0, select bank0
  1037  0E1B  1303               	bcf	3,6	;RP1=0, select bank0
  1038  0E1C  00E5               	movwf	??_main+1
  1039  0E1D  30FB               	movlw	251
  1040  0E1E  00E4               	movwf	??_main
  1041  0E1F                     u3517:	
  1042  0E1F  0BE4               	decfsz	??_main,f
  1043  0E20  2E1F               	goto	u3517
  1044  0E21  0BE5               	decfsz	??_main+1,f
  1045  0E22  2E1F               	goto	u3517
  1046  0E23                     l2523:	
  1047                           
  1048                           ;main.c: 61:         sprintf(contStr, "%d",cont);
  1049  0E23  3015               	movlw	(low ((STR_3-__stringbase)| (0+32768)))& (0+255)
  1050  0E24  1283               	bcf	3,5	;RP0=0, select bank0
  1051  0E25  1303               	bcf	3,6	;RP1=0, select bank0
  1052  0E26  00E4               	movwf	??_main
  1053  0E27  0864               	movf	??_main,w
  1054  0E28  00A0               	movwf	sprintf@f
  1055  0E29  086D               	movf	_cont,w
  1056  0E2A  00E5               	movwf	??_main+1
  1057  0E2B  01E6               	clrf	??_main+2
  1058  0E2C  0865               	movf	??_main+1,w
  1059  0E2D  00A1               	movwf	?_sprintf+1
  1060  0E2E  0866               	movf	??_main+2,w
  1061  0E2F  00A2               	movwf	?_sprintf+2
  1062  0E30  306E               	movlw	(low (_contStr| 0))& (0+255)
  1063  0E31  120A  158A  24E0  120A  158A  	fcall	_sprintf
  1064  0E36                     l2525:	
  1065                           
  1066                           ;main.c: 63:         I2C_Master_Start();
  1067  0E36  120A  158A  211A  120A  158A  	fcall	_I2C_Master_Start
  1068  0E3B                     l2527:	
  1069                           
  1070                           ;main.c: 64:         I2C_Master_Write(0x61);
  1071  0E3B  3061               	movlw	97
  1072  0E3C  00F0               	movwf	I2C_Master_Write@d
  1073  0E3D  3000               	movlw	0
  1074  0E3E  00F1               	movwf	I2C_Master_Write@d+1
  1075  0E3F  120A  118A  2004  120A  158A  	fcall	_I2C_Master_Write
  1076  0E44                     l2529:	
  1077                           
  1078                           ;main.c: 65:         cont = I2C_Master_Read(0);
  1079  0E44  3000               	movlw	0
  1080  0E45  00F0               	movwf	I2C_Master_Read@a
  1081  0E46  00F1               	movwf	I2C_Master_Read@a+1
  1082  0E47  120A  158A  220C  120A  158A  	fcall	_I2C_Master_Read
  1083  0E4C  0870               	movf	?_I2C_Master_Read,w
  1084  0E4D  1283               	bcf	3,5	;RP0=0, select bank0
  1085  0E4E  1303               	bcf	3,6	;RP1=0, select bank0
  1086  0E4F  00E4               	movwf	??_main
  1087  0E50  0864               	movf	??_main,w
  1088  0E51  00ED               	movwf	_cont
  1089  0E52                     l2531:	
  1090                           
  1091                           ;main.c: 66:         I2C_Master_Stop();
  1092  0E52  120A  158A  2123  120A  158A  	fcall	_I2C_Master_Stop
  1093                           
  1094                           ;main.c: 67:         _delay((unsigned long)((10)*(4000000/4000.0)));
  1095  0E57  300D               	movlw	13
  1096  0E58  1283               	bcf	3,5	;RP0=0, select bank0
  1097  0E59  1303               	bcf	3,6	;RP1=0, select bank0
  1098  0E5A  00E5               	movwf	??_main+1
  1099  0E5B  30FB               	movlw	251
  1100  0E5C  00E4               	movwf	??_main
  1101  0E5D                     u3527:	
  1102  0E5D  0BE4               	decfsz	??_main,f
  1103  0E5E  2E5D               	goto	u3527
  1104  0E5F  0BE5               	decfsz	??_main+1,f
  1105  0E60  2E5D               	goto	u3527
  1106  0E61                     l2533:	
  1107                           
  1108                           ;main.c: 69:         pot1 = va1;
  1109  0E61  1283               	bcf	3,5	;RP0=0, select bank0
  1110  0E62  1303               	bcf	3,6	;RP1=0, select bank0
  1111  0E63  086C               	movf	_va1,w
  1112  0E64  00E4               	movwf	??_main
  1113  0E65  01E5               	clrf	??_main+1
  1114  0E66  01E6               	clrf	??_main+2
  1115  0E67  01E7               	clrf	??_main+3
  1116  0E68  0867               	movf	??_main+3,w
  1117  0E69  00F3               	movwf	___xxtofl@val+3
  1118  0E6A  0866               	movf	??_main+2,w
  1119  0E6B  00F2               	movwf	___xxtofl@val+2
  1120  0E6C  0865               	movf	??_main+1,w
  1121  0E6D  00F1               	movwf	___xxtofl@val+1
  1122  0E6E  0864               	movf	??_main,w
  1123  0E6F  00F0               	movwf	___xxtofl@val
  1124  0E70  3000               	movlw	0
  1125  0E71  120A  158A  2426  120A  158A  	fcall	___xxtofl
  1126  0E76  0873               	movf	?___xxtofl+3,w
  1127  0E77  1683               	bsf	3,5	;RP0=1, select bank1
  1128  0E78  1303               	bcf	3,6	;RP1=0, select bank1
  1129  0E79  00A7               	movwf	(_pot1+3)^(0+128)
  1130  0E7A  0872               	movf	?___xxtofl+2,w
  1131  0E7B  00A6               	movwf	(_pot1+2)^(0+128)
  1132  0E7C  0871               	movf	?___xxtofl+1,w
  1133  0E7D  00A5               	movwf	(_pot1+1)^(0+128)
  1134  0E7E  0870               	movf	?___xxtofl,w
  1135  0E7F  00A4               	movwf	_pot1^(0+128)
  1136  0E80                     l2535:	
  1137                           
  1138                           ;main.c: 70:         pot1 = pot1 * 5/255;
  1139  0E80  3043               	movlw	67
  1140  0E81  1283               	bcf	3,5	;RP0=0, select bank0
  1141  0E82  1303               	bcf	3,6	;RP1=0, select bank0
  1142  0E83  00CD               	movwf	___fldiv@a+3
  1143  0E84  307F               	movlw	127
  1144  0E85  00CC               	movwf	___fldiv@a+2
  1145  0E86  3000               	movlw	0
  1146  0E87  00CB               	movwf	___fldiv@a+1
  1147  0E88  3000               	movlw	0
  1148  0E89  00CA               	movwf	___fldiv@a
  1149  0E8A  3040               	movlw	64
  1150  0E8B  00B3               	movwf	___flmul@b+3
  1151  0E8C  30A0               	movlw	160
  1152  0E8D  00B2               	movwf	___flmul@b+2
  1153  0E8E  3000               	movlw	0
  1154  0E8F  00B1               	movwf	___flmul@b+1
  1155  0E90  3000               	movlw	0
  1156  0E91  00B0               	movwf	___flmul@b
  1157  0E92  1683               	bsf	3,5	;RP0=1, select bank1
  1158  0E93  1303               	bcf	3,6	;RP1=0, select bank1
  1159  0E94  0827               	movf	(_pot1+3)^(0+128),w
  1160  0E95  1283               	bcf	3,5	;RP0=0, select bank0
  1161  0E96  1303               	bcf	3,6	;RP1=0, select bank0
  1162  0E97  00B7               	movwf	___flmul@a+3
  1163  0E98  1683               	bsf	3,5	;RP0=1, select bank1
  1164  0E99  1303               	bcf	3,6	;RP1=0, select bank1
  1165  0E9A  0826               	movf	(_pot1+2)^(0+128),w
  1166  0E9B  1283               	bcf	3,5	;RP0=0, select bank0
  1167  0E9C  1303               	bcf	3,6	;RP1=0, select bank0
  1168  0E9D  00B6               	movwf	___flmul@a+2
  1169  0E9E  1683               	bsf	3,5	;RP0=1, select bank1
  1170  0E9F  1303               	bcf	3,6	;RP1=0, select bank1
  1171  0EA0  0825               	movf	(_pot1+1)^(0+128),w
  1172  0EA1  1283               	bcf	3,5	;RP0=0, select bank0
  1173  0EA2  1303               	bcf	3,6	;RP1=0, select bank0
  1174  0EA3  00B5               	movwf	___flmul@a+1
  1175  0EA4  1683               	bsf	3,5	;RP0=1, select bank1
  1176  0EA5  1303               	bcf	3,6	;RP1=0, select bank1
  1177  0EA6  0824               	movf	_pot1^(0+128),w
  1178  0EA7  1283               	bcf	3,5	;RP0=0, select bank0
  1179  0EA8  1303               	bcf	3,6	;RP1=0, select bank0
  1180  0EA9  00B4               	movwf	___flmul@a
  1181  0EAA  120A  118A  2483  120A  158A  	fcall	___flmul
  1182  0EAF  1283               	bcf	3,5	;RP0=0, select bank0
  1183  0EB0  1303               	bcf	3,6	;RP1=0, select bank0
  1184  0EB1  0833               	movf	?___flmul+3,w
  1185  0EB2  00D1               	movwf	___fldiv@b+3
  1186  0EB3  0832               	movf	?___flmul+2,w
  1187  0EB4  00D0               	movwf	___fldiv@b+2
  1188  0EB5  0831               	movf	?___flmul+1,w
  1189  0EB6  00CF               	movwf	___fldiv@b+1
  1190  0EB7  0830               	movf	?___flmul,w
  1191  0EB8  00CE               	movwf	___fldiv@b
  1192  0EB9  120A  118A  200E  120A  158A  	fcall	___fldiv
  1193  0EBE  1283               	bcf	3,5	;RP0=0, select bank0
  1194  0EBF  1303               	bcf	3,6	;RP1=0, select bank0
  1195  0EC0  084D               	movf	?___fldiv+3,w
  1196  0EC1  1683               	bsf	3,5	;RP0=1, select bank1
  1197  0EC2  1303               	bcf	3,6	;RP1=0, select bank1
  1198  0EC3  00A7               	movwf	(_pot1+3)^(0+128)
  1199  0EC4  1283               	bcf	3,5	;RP0=0, select bank0
  1200  0EC5  1303               	bcf	3,6	;RP1=0, select bank0
  1201  0EC6  084C               	movf	?___fldiv+2,w
  1202  0EC7  1683               	bsf	3,5	;RP0=1, select bank1
  1203  0EC8  1303               	bcf	3,6	;RP1=0, select bank1
  1204  0EC9  00A6               	movwf	(_pot1+2)^(0+128)
  1205  0ECA  1283               	bcf	3,5	;RP0=0, select bank0
  1206  0ECB  1303               	bcf	3,6	;RP1=0, select bank0
  1207  0ECC  084B               	movf	?___fldiv+1,w
  1208  0ECD  1683               	bsf	3,5	;RP0=1, select bank1
  1209  0ECE  1303               	bcf	3,6	;RP1=0, select bank1
  1210  0ECF  00A5               	movwf	(_pot1+1)^(0+128)
  1211  0ED0  1283               	bcf	3,5	;RP0=0, select bank0
  1212  0ED1  1303               	bcf	3,6	;RP1=0, select bank0
  1213  0ED2  084A               	movf	?___fldiv,w
  1214  0ED3  1683               	bsf	3,5	;RP0=1, select bank1
  1215  0ED4  1303               	bcf	3,6	;RP1=0, select bank1
  1216  0ED5  00A4               	movwf	_pot1^(0+128)
  1217  0ED6                     l2537:	
  1218                           
  1219                           ;main.c: 71:         int1 = pot1;
  1220  0ED6  0827               	movf	(_pot1+3)^(0+128),w
  1221  0ED7  00F3               	movwf	___fltol@f1+3
  1222  0ED8  0826               	movf	(_pot1+2)^(0+128),w
  1223  0ED9  00F2               	movwf	___fltol@f1+2
  1224  0EDA  0825               	movf	(_pot1+1)^(0+128),w
  1225  0EDB  00F1               	movwf	___fltol@f1+1
  1226  0EDC  0824               	movf	_pot1^(0+128),w
  1227  0EDD  00F0               	movwf	___fltol@f1
  1228  0EDE  120A  158A  23AC  120A  158A  	fcall	___fltol
  1229  0EE3  0871               	movf	?___fltol+1,w
  1230  0EE4  1283               	bcf	3,5	;RP0=0, select bank0
  1231  0EE5  1303               	bcf	3,6	;RP1=0, select bank0
  1232  0EE6  00EB               	movwf	_int1+1
  1233  0EE7  0870               	movf	?___fltol,w
  1234  0EE8  00EA               	movwf	_int1
  1235  0EE9                     l2539:	
  1236                           
  1237                           ;main.c: 72:         dectemp1 = (pot1 - int1)*100;
  1238  0EE9  3042               	movlw	66
  1239  0EEA  00B3               	movwf	___flmul@b+3
  1240  0EEB  30C8               	movlw	200
  1241  0EEC  00B2               	movwf	___flmul@b+2
  1242  0EED  3000               	movlw	0
  1243  0EEE  00B1               	movwf	___flmul@b+1
  1244  0EEF  3000               	movlw	0
  1245  0EF0  00B0               	movwf	___flmul@b
  1246  0EF1  086A               	movf	_int1,w
  1247  0EF2  00F0               	movwf	___xxtofl@val
  1248  0EF3  086B               	movf	_int1+1,w
  1249  0EF4  00F1               	movwf	___xxtofl@val+1
  1250  0EF5  3000               	movlw	0
  1251  0EF6  1BF1               	btfsc	___xxtofl@val+1,7
  1252  0EF7  30FF               	movlw	255
  1253  0EF8  00F2               	movwf	___xxtofl@val+2
  1254  0EF9  00F3               	movwf	___xxtofl@val+3
  1255  0EFA  3001               	movlw	1
  1256  0EFB  120A  158A  2426  120A  158A  	fcall	___xxtofl
  1257  0F00  0873               	movf	?___xxtofl+3,w
  1258  0F01  1283               	bcf	3,5	;RP0=0, select bank0
  1259  0F02  1303               	bcf	3,6	;RP1=0, select bank0
  1260  0F03  00AB               	movwf	___flsub@a+3
  1261  0F04  0872               	movf	?___xxtofl+2,w
  1262  0F05  00AA               	movwf	___flsub@a+2
  1263  0F06  0871               	movf	?___xxtofl+1,w
  1264  0F07  00A9               	movwf	___flsub@a+1
  1265  0F08  0870               	movf	?___xxtofl,w
  1266  0F09  00A8               	movwf	___flsub@a
  1267  0F0A  1683               	bsf	3,5	;RP0=1, select bank1
  1268  0F0B  1303               	bcf	3,6	;RP1=0, select bank1
  1269  0F0C  0827               	movf	(_pot1+3)^(0+128),w
  1270  0F0D  1283               	bcf	3,5	;RP0=0, select bank0
  1271  0F0E  1303               	bcf	3,6	;RP1=0, select bank0
  1272  0F0F  00AF               	movwf	___flsub@b+3
  1273  0F10  1683               	bsf	3,5	;RP0=1, select bank1
  1274  0F11  1303               	bcf	3,6	;RP1=0, select bank1
  1275  0F12  0826               	movf	(_pot1+2)^(0+128),w
  1276  0F13  1283               	bcf	3,5	;RP0=0, select bank0
  1277  0F14  1303               	bcf	3,6	;RP1=0, select bank0
  1278  0F15  00AE               	movwf	___flsub@b+2
  1279  0F16  1683               	bsf	3,5	;RP0=1, select bank1
  1280  0F17  1303               	bcf	3,6	;RP1=0, select bank1
  1281  0F18  0825               	movf	(_pot1+1)^(0+128),w
  1282  0F19  1283               	bcf	3,5	;RP0=0, select bank0
  1283  0F1A  1303               	bcf	3,6	;RP1=0, select bank0
  1284  0F1B  00AD               	movwf	___flsub@b+1
  1285  0F1C  1683               	bsf	3,5	;RP0=1, select bank1
  1286  0F1D  1303               	bcf	3,6	;RP1=0, select bank1
  1287  0F1E  0824               	movf	_pot1^(0+128),w
  1288  0F1F  1283               	bcf	3,5	;RP0=0, select bank0
  1289  0F20  1303               	bcf	3,6	;RP1=0, select bank0
  1290  0F21  00AC               	movwf	___flsub@b
  1291  0F22  120A  158A  219B  120A  158A  	fcall	___flsub
  1292  0F27  1283               	bcf	3,5	;RP0=0, select bank0
  1293  0F28  1303               	bcf	3,6	;RP1=0, select bank0
  1294  0F29  082B               	movf	?___flsub+3,w
  1295  0F2A  00B7               	movwf	___flmul@a+3
  1296  0F2B  082A               	movf	?___flsub+2,w
  1297  0F2C  00B6               	movwf	___flmul@a+2
  1298  0F2D  0829               	movf	?___flsub+1,w
  1299  0F2E  00B5               	movwf	___flmul@a+1
  1300  0F2F  0828               	movf	?___flsub,w
  1301  0F30  00B4               	movwf	___flmul@a
  1302  0F31  120A  118A  2483  120A  158A  	fcall	___flmul
  1303  0F36  1283               	bcf	3,5	;RP0=0, select bank0
  1304  0F37  1303               	bcf	3,6	;RP1=0, select bank0
  1305  0F38  0833               	movf	?___flmul+3,w
  1306  0F39  1683               	bsf	3,5	;RP0=1, select bank1
  1307  0F3A  1303               	bcf	3,6	;RP1=0, select bank1
  1308  0F3B  00A3               	movwf	(_dectemp1+3)^(0+128)
  1309  0F3C  1283               	bcf	3,5	;RP0=0, select bank0
  1310  0F3D  1303               	bcf	3,6	;RP1=0, select bank0
  1311  0F3E  0832               	movf	?___flmul+2,w
  1312  0F3F  1683               	bsf	3,5	;RP0=1, select bank1
  1313  0F40  1303               	bcf	3,6	;RP1=0, select bank1
  1314  0F41  00A2               	movwf	(_dectemp1+2)^(0+128)
  1315  0F42  1283               	bcf	3,5	;RP0=0, select bank0
  1316  0F43  1303               	bcf	3,6	;RP1=0, select bank0
  1317  0F44  0831               	movf	?___flmul+1,w
  1318  0F45  1683               	bsf	3,5	;RP0=1, select bank1
  1319  0F46  1303               	bcf	3,6	;RP1=0, select bank1
  1320  0F47  00A1               	movwf	(_dectemp1+1)^(0+128)
  1321  0F48  1283               	bcf	3,5	;RP0=0, select bank0
  1322  0F49  1303               	bcf	3,6	;RP1=0, select bank0
  1323  0F4A  0830               	movf	?___flmul,w
  1324  0F4B  1683               	bsf	3,5	;RP0=1, select bank1
  1325  0F4C  1303               	bcf	3,6	;RP1=0, select bank1
  1326  0F4D  00A0               	movwf	_dectemp1^(0+128)
  1327  0F4E                     l2541:	
  1328                           
  1329                           ;main.c: 73:         dec1 = dectemp1;
  1330  0F4E  0823               	movf	(_dectemp1+3)^(0+128),w
  1331  0F4F  00F3               	movwf	___fltol@f1+3
  1332  0F50  0822               	movf	(_dectemp1+2)^(0+128),w
  1333  0F51  00F2               	movwf	___fltol@f1+2
  1334  0F52  0821               	movf	(_dectemp1+1)^(0+128),w
  1335  0F53  00F1               	movwf	___fltol@f1+1
  1336  0F54  0820               	movf	_dectemp1^(0+128),w
  1337  0F55  00F0               	movwf	___fltol@f1
  1338  0F56  120A  158A  23AC  120A  158A  	fcall	___fltol
  1339  0F5B  0871               	movf	?___fltol+1,w
  1340  0F5C  1283               	bcf	3,5	;RP0=0, select bank0
  1341  0F5D  1303               	bcf	3,6	;RP1=0, select bank0
  1342  0F5E  00E9               	movwf	_dec1+1
  1343  0F5F  0870               	movf	?___fltol,w
  1344  0F60  00E8               	movwf	_dec1
  1345  0F61                     l2543:	
  1346                           
  1347                           ;main.c: 74:         sprintf(potStr1, "%d",int1);
  1348  0F61  3015               	movlw	(low ((STR_3-__stringbase)| (0+32768)))& (0+255)
  1349  0F62  00E4               	movwf	??_main
  1350  0F63  0864               	movf	??_main,w
  1351  0F64  00A0               	movwf	sprintf@f
  1352  0F65  086B               	movf	_int1+1,w
  1353  0F66  00A2               	movwf	?_sprintf+2
  1354  0F67  086A               	movf	_int1,w
  1355  0F68  00A1               	movwf	?_sprintf+1
  1356  0F69  30A8               	movlw	(low (_potStr1| 0))& (0+255)
  1357  0F6A  120A  158A  24E0  120A  158A  	fcall	_sprintf
  1358  0F6F                     l2545:	
  1359                           
  1360                           ;main.c: 75:         sprintf(decpot1, "%d",dec1);
  1361  0F6F  3015               	movlw	(low ((STR_3-__stringbase)| (0+32768)))& (0+255)
  1362  0F70  1283               	bcf	3,5	;RP0=0, select bank0
  1363  0F71  1303               	bcf	3,6	;RP1=0, select bank0
  1364  0F72  00E4               	movwf	??_main
  1365  0F73  0864               	movf	??_main,w
  1366  0F74  00A0               	movwf	sprintf@f
  1367  0F75  0869               	movf	_dec1+1,w
  1368  0F76  00A2               	movwf	?_sprintf+2
  1369  0F77  0868               	movf	_dec1,w
  1370  0F78  00A1               	movwf	?_sprintf+1
  1371  0F79  30AB               	movlw	(low (_decpot1| 0))& (0+255)
  1372  0F7A  120A  158A  24E0  120A  158A  	fcall	_sprintf
  1373  0F7F                     l2547:	
  1374                           
  1375                           ;main.c: 77:         LCDcursorSet(2,0);
  1376  0F7F  01F3               	clrf	LCDcursorSet@column
  1377  0F80  3002               	movlw	2
  1378  0F81  120A  158A  2161  120A  158A  	fcall	_LCDcursorSet
  1379  0F86                     l2549:	
  1380                           
  1381                           ;main.c: 78:         LCDisplay(potStr1);
  1382  0F86  30A8               	movlw	(low (_potStr1| 0))& (0+255)
  1383  0F87  00F3               	movwf	LCDisplay@val
  1384  0F88  3000               	movlw	0
  1385  0F89  00F4               	movwf	LCDisplay@val+1
  1386  0F8A  120A  158A  21BF  120A  158A  	fcall	_LCDisplay
  1387  0F8F                     l2551:	
  1388                           
  1389                           ;main.c: 79:         LCDisplay(".");
  1390  0F8F  3018               	movlw	(low ((STR_6-__stringbase)| (0+32768)))& (0+255)
  1391  0F90  00F3               	movwf	LCDisplay@val
  1392  0F91  3080               	movlw	128
  1393  0F92  00F4               	movwf	LCDisplay@val+1
  1394  0F93  120A  158A  21BF  120A  158A  	fcall	_LCDisplay
  1395  0F98                     l2553:	
  1396                           
  1397                           ;main.c: 80:         if (dec1<10){
  1398  0F98  1283               	bcf	3,5	;RP0=0, select bank0
  1399  0F99  1303               	bcf	3,6	;RP1=0, select bank0
  1400  0F9A  0869               	movf	_dec1+1,w
  1401  0F9B  3A80               	xorlw	128
  1402  0F9C  00FF               	movwf	btemp+1
  1403  0F9D  3080               	movlw	128
  1404  0F9E  027F               	subwf	btemp+1,w
  1405  0F9F  1D03               	skipz
  1406  0FA0  2FA3               	goto	u3495
  1407  0FA1  300A               	movlw	10
  1408  0FA2  0268               	subwf	_dec1,w
  1409  0FA3                     u3495:	
  1410  0FA3  1803               	skipnc
  1411  0FA4  2FA6               	goto	u3491
  1412  0FA5  2FA7               	goto	u3490
  1413  0FA6                     u3491:	
  1414  0FA6  2FBA               	goto	l2557
  1415  0FA7                     u3490:	
  1416  0FA7                     l2555:	
  1417                           
  1418                           ;main.c: 81:             LCDisplay("0");
  1419  0FA7  301A               	movlw	(low ((STR_7-__stringbase)| (0+32768)))& (0+255)
  1420  0FA8  00F3               	movwf	LCDisplay@val
  1421  0FA9  3080               	movlw	128
  1422  0FAA  00F4               	movwf	LCDisplay@val+1
  1423  0FAB  120A  158A  21BF  120A  158A  	fcall	_LCDisplay
  1424                           
  1425                           ;main.c: 82:             LCDisplay(decpot1);
  1426  0FB0  30AB               	movlw	(low (_decpot1| 0))& (0+255)
  1427  0FB1  00F3               	movwf	LCDisplay@val
  1428  0FB2  3000               	movlw	0
  1429  0FB3  00F4               	movwf	LCDisplay@val+1
  1430  0FB4  120A  158A  21BF  120A  158A  	fcall	_LCDisplay
  1431                           
  1432                           ;main.c: 83:         }else{
  1433  0FB9  2FC3               	goto	l65
  1434  0FBA                     l2557:	
  1435                           
  1436                           ;main.c: 84:             LCDisplay(decpot1);
  1437  0FBA  30AB               	movlw	(low (_decpot1| 0))& (0+255)
  1438  0FBB  00F3               	movwf	LCDisplay@val
  1439  0FBC  3000               	movlw	0
  1440  0FBD  00F4               	movwf	LCDisplay@val+1
  1441  0FBE  120A  158A  21BF  120A  158A  	fcall	_LCDisplay
  1442  0FC3                     l65:	
  1443                           ;main.c: 85:         }
  1444                           
  1445                           
  1446                           ;main.c: 86:         LCDisplay("V");
  1447  0FC3  301C               	movlw	(low ((STR_8-__stringbase)| (0+32768)))& (0+255)
  1448  0FC4  00F3               	movwf	LCDisplay@val
  1449  0FC5  3080               	movlw	128
  1450  0FC6  00F4               	movwf	LCDisplay@val+1
  1451  0FC7  120A  158A  21BF  120A  158A  	fcall	_LCDisplay
  1452  0FCC                     l2559:	
  1453                           
  1454                           ;main.c: 87:         LCDcursorSet(2,6);
  1455  0FCC  3006               	movlw	6
  1456  0FCD  1283               	bcf	3,5	;RP0=0, select bank0
  1457  0FCE  1303               	bcf	3,6	;RP1=0, select bank0
  1458  0FCF  00E4               	movwf	??_main
  1459  0FD0  0864               	movf	??_main,w
  1460  0FD1  00F3               	movwf	LCDcursorSet@column
  1461  0FD2  3002               	movlw	2
  1462  0FD3  120A  158A  2161  120A  158A  	fcall	_LCDcursorSet
  1463  0FD8                     l2561:	
  1464                           
  1465                           ;main.c: 88:         if (cont <= 9){
  1466  0FD8  300A               	movlw	10
  1467  0FD9  1283               	bcf	3,5	;RP0=0, select bank0
  1468  0FDA  1303               	bcf	3,6	;RP1=0, select bank0
  1469  0FDB  026D               	subwf	_cont,w
  1470  0FDC  1803               	skipnc
  1471  0FDD  2FDF               	goto	u3501
  1472  0FDE  2FE0               	goto	u3500
  1473  0FDF                     u3501:	
  1474  0FDF  2FF3               	goto	l2565
  1475  0FE0                     u3500:	
  1476  0FE0                     l2563:	
  1477                           
  1478                           ;main.c: 89:             LCDisplay("0");
  1479  0FE0  301A               	movlw	(low ((STR_7-__stringbase)| (0+32768)))& (0+255)
  1480  0FE1  00F3               	movwf	LCDisplay@val
  1481  0FE2  3080               	movlw	128
  1482  0FE3  00F4               	movwf	LCDisplay@val+1
  1483  0FE4  120A  158A  21BF  120A  158A  	fcall	_LCDisplay
  1484                           
  1485                           ;main.c: 90:             LCDisplay(contStr);
  1486  0FE9  306E               	movlw	(low (_contStr| 0))& (0+255)
  1487  0FEA  00F3               	movwf	LCDisplay@val
  1488  0FEB  3000               	movlw	0
  1489  0FEC  00F4               	movwf	LCDisplay@val+1
  1490  0FED  120A  158A  21BF  120A  158A  	fcall	_LCDisplay
  1491                           
  1492                           ;main.c: 91:         }else{
  1493  0FF2  2DF8               	goto	l2513
  1494  0FF3                     l2565:	
  1495                           
  1496                           ;main.c: 92:             LCDisplay(contStr);
  1497  0FF3  306E               	movlw	(low (_contStr| 0))& (0+255)
  1498  0FF4  00F3               	movwf	LCDisplay@val
  1499  0FF5  3000               	movlw	0
  1500  0FF6  00F4               	movwf	LCDisplay@val+1
  1501  0FF7  120A  158A  21BF  120A  158A  	fcall	_LCDisplay
  1502  0FFC  2DF8               	goto	l2513
  1503  0FFD  120A  118A  2800   	ljmp	start
  1504  1000                     __end_of_main:	
  1505                           
  1506                           	psect	text1
  1507  0CE0                     __ptext1:	
  1508 ;; *************** function _sprintf *****************
  1509 ;; Defined at:
  1510 ;;		line 505 in file "C:\Program Files (x86)\Microchip\xc8\v2.10\pic\sources\c90\common\doprnt.c"
  1511 ;; Parameters:    Size  Location     Type
  1512 ;;  sp              1    wreg     PTR unsigned char 
  1513 ;;		 -> decpot1(2), potStr1(3), contStr(1), 
  1514 ;;  f               1    0[BANK0 ] PTR const unsigned char 
  1515 ;;		 -> STR_5(3), STR_4(3), STR_3(3), 
  1516 ;; Auto vars:     Size  Location     Type
  1517 ;;  sp              1   11[BANK0 ] PTR unsigned char 
  1518 ;;		 -> decpot1(2), potStr1(3), contStr(1), 
  1519 ;;  tmpval          4    0        struct .
  1520 ;;  val             2    9[BANK0 ] unsigned int 
  1521 ;;  cp              2    0        PTR const unsigned char 
  1522 ;;  len             2    0        unsigned int 
  1523 ;;  c               1   12[BANK0 ] unsigned char 
  1524 ;;  prec            1    8[BANK0 ] char 
  1525 ;;  flag            1    7[BANK0 ] unsigned char 
  1526 ;;  ap              1    6[BANK0 ] PTR void [1]
  1527 ;;		 -> ?_sprintf(2), 
  1528 ;; Return value:  Size  Location     Type
  1529 ;;                  2    0[BANK0 ] int 
  1530 ;; Registers used:
  1531 ;;		wreg, fsr0l, fsr0h, status,2, status,0, btemp+1, pclath, cstack
  1532 ;; Tracked objects:
  1533 ;;		On entry : 0/0
  1534 ;;		On exit  : 0/0
  1535 ;;		Unchanged: 0/0
  1536 ;; Data sizes:     COMMON   BANK0   BANK1   BANK3   BANK2
  1537 ;;      Params:         0       3       0       0       0
  1538 ;;      Locals:         0       7       0       0       0
  1539 ;;      Temps:          0       3       0       0       0
  1540 ;;      Totals:         0      13       0       0       0
  1541 ;;Total ram usage:       13 bytes
  1542 ;; Hardware stack levels used:    1
  1543 ;; Hardware stack levels required when called:    1
  1544 ;; This function calls:
  1545 ;;		___lwdiv
  1546 ;;		___lwmod
  1547 ;; This function is called by:
  1548 ;;		_main
  1549 ;; This function uses a non-reentrant model
  1550 ;;
  1551                           
  1552                           
  1553                           ;psect for function _sprintf
  1554  0CE0                     _sprintf:	
  1555                           
  1556                           ;incstack = 0
  1557                           ; Regs used in _sprintf: [wreg-fsr0h+status,2+status,0+btemp+1+pclath+cstack]
  1558                           ;sprintf@sp stored from wreg
  1559  0CE0  1283               	bcf	3,5	;RP0=0, select bank0
  1560  0CE1  1303               	bcf	3,6	;RP1=0, select bank0
  1561  0CE2  00AB               	movwf	sprintf@sp
  1562  0CE3                     l2077:	
  1563                           
  1564                           ;C:\Program Files (x86)\Microchip\xc8\v2.10\pic\sources\c90\common\doprnt.c: 505: sprint
      +                          f(char * sp, const char * f, ...);C:\Program Files (x86)\Microchip\xc8\v2.10\pic\sources
      +                          \c90\common\doprnt.c: 506: {;C:\Program Files (x86)\Microchip\xc8\v2.10\pic\sources\c90\
      +                          common\doprnt.c: 507:  va_list ap;;C:\Program Files (x86)\Microchip\xc8\v2.10\pic\source
      +                          s\c90\common\doprnt.c: 512:  char c;;C:\Program Files (x86)\Microchip\xc8\v2.10\pic\sour
      +                          ces\c90\common\doprnt.c: 521:  signed char prec;;C:\Program Files (x86)\Microchip\xc8\v2
      +                          .10\pic\sources\c90\common\doprnt.c: 525:  unsigned char flag;
  1565  0CE3  3021               	movlw	(low ((?_sprintf| 0+1)))& (0+255)
  1566  0CE4  00A3               	movwf	??_sprintf
  1567  0CE5  0823               	movf	??_sprintf,w
  1568  0CE6  00A6               	movwf	sprintf@ap
  1569                           
  1570                           ;C:\Program Files (x86)\Microchip\xc8\v2.10\pic\sources\c90\common\doprnt.c: 553:  while
      +                          ((c = *f++)) {
  1571  0CE7  2DB1               	goto	l2129
  1572  0CE8                     l2079:	
  1573                           
  1574                           ;C:\Program Files (x86)\Microchip\xc8\v2.10\pic\sources\c90\common\doprnt.c: 555:   if(c
      +                           != '%')
  1575  0CE8  3025               	movlw	37
  1576  0CE9  062C               	xorwf	sprintf@c,w
  1577  0CEA  1903               	btfsc	3,2
  1578  0CEB  2CED               	goto	u2521
  1579  0CEC  2CEE               	goto	u2520
  1580  0CED                     u2521:	
  1581  0CED  2CFA               	goto	l2085
  1582  0CEE                     u2520:	
  1583  0CEE                     l2081:	
  1584                           
  1585                           ;C:\Program Files (x86)\Microchip\xc8\v2.10\pic\sources\c90\common\doprnt.c: 557:   {;C:
      +                          \Program Files (x86)\Microchip\xc8\v2.10\pic\sources\c90\common\doprnt.c: 558:    ((*sp+
      +                          + = (c)));
  1586  0CEE  082C               	movf	sprintf@c,w
  1587  0CEF  00A3               	movwf	??_sprintf
  1588  0CF0  082B               	movf	sprintf@sp,w
  1589  0CF1  0084               	movwf	4
  1590  0CF2  0823               	movf	??_sprintf,w
  1591  0CF3  1383               	bcf	3,7	;select IRP bank0
  1592  0CF4  0080               	movwf	0
  1593  0CF5                     l2083:	
  1594  0CF5  3001               	movlw	1
  1595  0CF6  00A3               	movwf	??_sprintf
  1596  0CF7  0823               	movf	??_sprintf,w
  1597  0CF8  07AB               	addwf	sprintf@sp,f
  1598                           
  1599                           ;C:\Program Files (x86)\Microchip\xc8\v2.10\pic\sources\c90\common\doprnt.c: 559:    con
      +                          tinue;
  1600  0CF9  2DB1               	goto	l2129
  1601  0CFA                     l2085:	
  1602                           
  1603                           ;C:\Program Files (x86)\Microchip\xc8\v2.10\pic\sources\c90\common\doprnt.c: 565:   flag
      +                           = 0;
  1604  0CFA  01A7               	clrf	sprintf@flag
  1605  0CFB                     l2089:	
  1606                           ;C:\Program Files (x86)\Microchip\xc8\v2.10\pic\sources\c90\common\doprnt.c: 661:   swit
      +                          ch(c = *f++) {
  1607                           
  1608  0CFB  3001               	movlw	1
  1609  0CFC  07A0               	addwf	sprintf@f,f
  1610  0CFD  30FF               	movlw	-1
  1611  0CFE  0720               	addwf	sprintf@f,w
  1612  0CFF  0084               	movwf	4
  1613  0D00  120A  158A  200A  120A  158A  	fcall	stringdir
  1614  0D05  00AC               	movwf	sprintf@c
  1615  0D06  00A3               	movwf	??_sprintf
  1616  0D07  01A4               	clrf	??_sprintf+1
  1617                           
  1618                           ; Switch on 2 bytes has been partitioned into a top level switch of size 1, and 1 sub-sw
      +                          itches
  1619                           ; Switch size 1, requested type "simple"
  1620                           ; Number of cases is 1, Range of values is 0 to 0
  1621                           ; switch strategies available:
  1622                           ; Name         Instructions Cycles
  1623                           ; simple_byte            4     3 (average)
  1624                           ; direct_byte           11     8 (fixed)
  1625                           ; jumptable            260     6 (fixed)
  1626                           ;	Chosen strategy is simple_byte
  1627  0D08  0824               	movf	??_sprintf+1,w
  1628  0D09  3A00               	xorlw	0	; case 0
  1629  0D0A  1903               	skipnz
  1630  0D0B  2D0D               	goto	l2591
  1631  0D0C  2DB1               	goto	l2129
  1632  0D0D                     l2591:	
  1633                           
  1634                           ; Switch size 1, requested type "simple"
  1635                           ; Number of cases is 3, Range of values is 0 to 105
  1636                           ; switch strategies available:
  1637                           ; Name         Instructions Cycles
  1638                           ; simple_byte           10     6 (average)
  1639                           ; jumptable            260     6 (fixed)
  1640                           ;	Chosen strategy is simple_byte
  1641  0D0D  0823               	movf	??_sprintf,w
  1642  0D0E  3A00               	xorlw	0	; case 0
  1643  0D0F  1903               	skipnz
  1644  0D10  2DC3               	goto	l2131
  1645  0D11  3A64               	xorlw	100	; case 100
  1646  0D12  1903               	skipnz
  1647  0D13  2D18               	goto	l2091
  1648  0D14  3A0D               	xorlw	13	; case 105
  1649  0D15  1903               	skipnz
  1650  0D16  2D18               	goto	l2091
  1651  0D17  2DB1               	goto	l2129
  1652  0D18                     l2091:	
  1653                           
  1654                           ;C:\Program Files (x86)\Microchip\xc8\v2.10\pic\sources\c90\common\doprnt.c: 1279:   {;C
      +                          :\Program Files (x86)\Microchip\xc8\v2.10\pic\sources\c90\common\doprnt.c: 1285:     val
      +                           = (unsigned int)(*(int *)__va_arg((*(int **)ap), (int)0));
  1655  0D18  0826               	movf	sprintf@ap,w
  1656  0D19  0084               	movwf	4
  1657  0D1A  1383               	bcf	3,7	;select IRP bank0
  1658  0D1B  0800               	movf	0,w
  1659  0D1C  00A9               	movwf	sprintf@val
  1660  0D1D  0A84               	incf	4,f
  1661  0D1E  0800               	movf	0,w
  1662  0D1F  00AA               	movwf	sprintf@val+1
  1663  0D20                     l2093:	
  1664  0D20  3002               	movlw	2
  1665  0D21  00A3               	movwf	??_sprintf
  1666  0D22  0823               	movf	??_sprintf,w
  1667  0D23  07A6               	addwf	sprintf@ap,f
  1668  0D24                     l2095:	
  1669                           
  1670                           ;C:\Program Files (x86)\Microchip\xc8\v2.10\pic\sources\c90\common\doprnt.c: 1287:    if
      +                          ((int)val < 0) {
  1671  0D24  1FAA               	btfss	sprintf@val+1,7
  1672  0D25  2D27               	goto	u2531
  1673  0D26  2D28               	goto	u2530
  1674  0D27                     u2531:	
  1675  0D27  2D31               	goto	l2101
  1676  0D28                     u2530:	
  1677  0D28                     l2097:	
  1678                           
  1679                           ;C:\Program Files (x86)\Microchip\xc8\v2.10\pic\sources\c90\common\doprnt.c: 1288:     f
      +                          lag |= 0x03;
  1680  0D28  3003               	movlw	3
  1681  0D29  00A3               	movwf	??_sprintf
  1682  0D2A  0823               	movf	??_sprintf,w
  1683  0D2B  04A7               	iorwf	sprintf@flag,f
  1684  0D2C                     l2099:	
  1685                           
  1686                           ;C:\Program Files (x86)\Microchip\xc8\v2.10\pic\sources\c90\common\doprnt.c: 1289:     v
      +                          al = -val;
  1687  0D2C  09A9               	comf	sprintf@val,f
  1688  0D2D  09AA               	comf	sprintf@val+1,f
  1689  0D2E  0AA9               	incf	sprintf@val,f
  1690  0D2F  1903               	skipnz
  1691  0D30  0AAA               	incf	sprintf@val+1,f
  1692  0D31                     l2101:	
  1693                           
  1694                           ;C:\Program Files (x86)\Microchip\xc8\v2.10\pic\sources\c90\common\doprnt.c: 1292:   };C
      +                          :\Program Files (x86)\Microchip\xc8\v2.10\pic\sources\c90\common\doprnt.c: 1331:    for(
      +                          c = 1 ; c != sizeof dpowers/sizeof dpowers[0] ; c++)
  1695  0D31  01AC               	clrf	sprintf@c
  1696  0D32  0AAC               	incf	sprintf@c,f
  1697  0D33                     l2107:	
  1698                           
  1699                           ;C:\Program Files (x86)\Microchip\xc8\v2.10\pic\sources\c90\common\doprnt.c: 1332:     i
      +                          f(val < dpowers[c])
  1700  0D33  082C               	movf	sprintf@c,w
  1701  0D34  00A3               	movwf	??_sprintf
  1702  0D35  0723               	addwf	??_sprintf,w
  1703  0D36  3E01               	addlw	low ((_dpowers-__stringbase)| (0+32768))
  1704  0D37  0084               	movwf	4
  1705  0D38  120A  158A  200A  120A  158A  	fcall	stringdir
  1706  0D3D  00A4               	movwf	??_sprintf+1
  1707  0D3E  120A  158A  200A  120A  158A  	fcall	stringdir
  1708  0D43  00A5               	movwf	??_sprintf+2
  1709  0D44  0825               	movf	??_sprintf+2,w
  1710  0D45  022A               	subwf	sprintf@val+1,w
  1711  0D46  1D03               	skipz
  1712  0D47  2D4A               	goto	u2545
  1713  0D48  0824               	movf	??_sprintf+1,w
  1714  0D49  0229               	subwf	sprintf@val,w
  1715  0D4A                     u2545:	
  1716  0D4A  1803               	skipnc
  1717  0D4B  2D4D               	goto	u2541
  1718  0D4C  2D4E               	goto	u2540
  1719  0D4D                     u2541:	
  1720  0D4D  2D4F               	goto	l2111
  1721  0D4E                     u2540:	
  1722  0D4E  2D59               	goto	l2113
  1723  0D4F                     l2111:	
  1724  0D4F  3001               	movlw	1
  1725  0D50  00A3               	movwf	??_sprintf
  1726  0D51  0823               	movf	??_sprintf,w
  1727  0D52  07AC               	addwf	sprintf@c,f
  1728  0D53  3005               	movlw	5
  1729  0D54  062C               	xorwf	sprintf@c,w
  1730  0D55  1D03               	btfss	3,2
  1731  0D56  2D58               	goto	u2551
  1732  0D57  2D59               	goto	u2550
  1733  0D58                     u2551:	
  1734  0D58  2D33               	goto	l2107
  1735  0D59                     u2550:	
  1736  0D59                     l2113:	
  1737                           
  1738                           ;C:\Program Files (x86)\Microchip\xc8\v2.10\pic\sources\c90\common\doprnt.c: 1448:   {;C
      +                          :\Program Files (x86)\Microchip\xc8\v2.10\pic\sources\c90\common\doprnt.c: 1464:    if(f
      +                          lag & 0x03)
  1739  0D59  0827               	movf	sprintf@flag,w
  1740  0D5A  3903               	andlw	3
  1741  0D5B  1903               	btfsc	3,2
  1742  0D5C  2D5E               	goto	u2561
  1743  0D5D  2D5F               	goto	u2560
  1744  0D5E                     u2561:	
  1745  0D5E  2D6A               	goto	l2119
  1746  0D5F                     u2560:	
  1747  0D5F                     l2115:	
  1748                           
  1749                           ;C:\Program Files (x86)\Microchip\xc8\v2.10\pic\sources\c90\common\doprnt.c: 1465:     (
      +                          (*sp++ = ('-')));
  1750  0D5F  302D               	movlw	45
  1751  0D60  00A3               	movwf	??_sprintf
  1752  0D61  082B               	movf	sprintf@sp,w
  1753  0D62  0084               	movwf	4
  1754  0D63  0823               	movf	??_sprintf,w
  1755  0D64  1383               	bcf	3,7	;select IRP bank0
  1756  0D65  0080               	movwf	0
  1757  0D66                     l2117:	
  1758  0D66  3001               	movlw	1
  1759  0D67  00A3               	movwf	??_sprintf
  1760  0D68  0823               	movf	??_sprintf,w
  1761  0D69  07AB               	addwf	sprintf@sp,f
  1762  0D6A                     l2119:	
  1763                           
  1764                           ;C:\Program Files (x86)\Microchip\xc8\v2.10\pic\sources\c90\common\doprnt.c: 1495:   };C
      +                          :\Program Files (x86)\Microchip\xc8\v2.10\pic\sources\c90\common\doprnt.c: 1498:   prec 
      +                          = c;
  1765  0D6A  082C               	movf	sprintf@c,w
  1766  0D6B  00A3               	movwf	??_sprintf
  1767  0D6C  0823               	movf	??_sprintf,w
  1768  0D6D  00A8               	movwf	sprintf@prec
  1769                           
  1770                           ;C:\Program Files (x86)\Microchip\xc8\v2.10\pic\sources\c90\common\doprnt.c: 1500:   whi
      +                          le(prec--) {
  1771  0D6E  2DA8               	goto	l2127
  1772  0D6F                     l2121:	
  1773                           
  1774                           ;C:\Program Files (x86)\Microchip\xc8\v2.10\pic\sources\c90\common\doprnt.c: 1504:    {;
      +                          C:\Program Files (x86)\Microchip\xc8\v2.10\pic\sources\c90\common\doprnt.c: 1515:     c 
      +                          = (val / dpowers[(unsigned char)prec]) % 10 + '0';
  1775  0D6F  300A               	movlw	10
  1776  0D70  00F8               	movwf	___lwmod@divisor
  1777  0D71  3000               	movlw	0
  1778  0D72  00F9               	movwf	___lwmod@divisor+1
  1779  0D73  0828               	movf	sprintf@prec,w
  1780  0D74  00A3               	movwf	??_sprintf
  1781  0D75  0723               	addwf	??_sprintf,w
  1782  0D76  3E01               	addlw	low ((_dpowers-__stringbase)| (0+32768))
  1783  0D77  0084               	movwf	4
  1784  0D78  120A  158A  200A  120A  158A  	fcall	stringdir
  1785  0D7D  00F0               	movwf	___lwdiv@divisor
  1786  0D7E  120A  158A  200A  120A  158A  	fcall	stringdir
  1787  0D83  00F1               	movwf	___lwdiv@divisor+1
  1788  0D84  082A               	movf	sprintf@val+1,w
  1789  0D85  00F3               	movwf	___lwdiv@dividend+1
  1790  0D86  0829               	movf	sprintf@val,w
  1791  0D87  00F2               	movwf	___lwdiv@dividend
  1792  0D88  120A  158A  22AC  120A  158A  	fcall	___lwdiv
  1793  0D8D  0871               	movf	?___lwdiv+1,w
  1794  0D8E  00FB               	movwf	___lwmod@dividend+1
  1795  0D8F  0870               	movf	?___lwdiv,w
  1796  0D90  00FA               	movwf	___lwmod@dividend
  1797  0D91  120A  158A  2272  120A  158A  	fcall	___lwmod
  1798  0D96  0878               	movf	?___lwmod,w
  1799  0D97  3E30               	addlw	48
  1800  0D98  1283               	bcf	3,5	;RP0=0, select bank0
  1801  0D99  1303               	bcf	3,6	;RP1=0, select bank0
  1802  0D9A  00A4               	movwf	??_sprintf+1
  1803  0D9B  0824               	movf	??_sprintf+1,w
  1804  0D9C  00AC               	movwf	sprintf@c
  1805  0D9D                     l2123:	
  1806                           
  1807                           ;C:\Program Files (x86)\Microchip\xc8\v2.10\pic\sources\c90\common\doprnt.c: 1549:    };
      +                          C:\Program Files (x86)\Microchip\xc8\v2.10\pic\sources\c90\common\doprnt.c: 1550:    ((*
      +                          sp++ = (c)));
  1808  0D9D  082C               	movf	sprintf@c,w
  1809  0D9E  00A3               	movwf	??_sprintf
  1810  0D9F  082B               	movf	sprintf@sp,w
  1811  0DA0  0084               	movwf	4
  1812  0DA1  0823               	movf	??_sprintf,w
  1813  0DA2  1383               	bcf	3,7	;select IRP bank0
  1814  0DA3  0080               	movwf	0
  1815  0DA4                     l2125:	
  1816  0DA4  3001               	movlw	1
  1817  0DA5  00A3               	movwf	??_sprintf
  1818  0DA6  0823               	movf	??_sprintf,w
  1819  0DA7  07AB               	addwf	sprintf@sp,f
  1820  0DA8                     l2127:	
  1821                           
  1822                           ;C:\Program Files (x86)\Microchip\xc8\v2.10\pic\sources\c90\common\doprnt.c: 1500:   whi
      +                          le(prec--) {
  1823  0DA8  30FF               	movlw	255
  1824  0DA9  00A3               	movwf	??_sprintf
  1825  0DAA  0823               	movf	??_sprintf,w
  1826  0DAB  07A8               	addwf	sprintf@prec,f
  1827  0DAC  0A28               	incf	sprintf@prec,w
  1828  0DAD  1D03               	btfss	3,2
  1829  0DAE  2DB0               	goto	u2571
  1830  0DAF  2DB1               	goto	u2570
  1831  0DB0                     u2571:	
  1832  0DB0  2D6F               	goto	l2121
  1833  0DB1                     u2570:	
  1834  0DB1                     l2129:	
  1835                           
  1836                           ;C:\Program Files (x86)\Microchip\xc8\v2.10\pic\sources\c90\common\doprnt.c: 553:  while
      +                          ((c = *f++)) {
  1837  0DB1  3001               	movlw	1
  1838  0DB2  07A0               	addwf	sprintf@f,f
  1839  0DB3  30FF               	movlw	-1
  1840  0DB4  0720               	addwf	sprintf@f,w
  1841  0DB5  0084               	movwf	4
  1842  0DB6  120A  158A  200A  120A  158A  	fcall	stringdir
  1843  0DBB  00A3               	movwf	??_sprintf
  1844  0DBC  0823               	movf	??_sprintf,w
  1845  0DBD  00AC               	movwf	sprintf@c
  1846  0DBE  082C               	movf	sprintf@c,w
  1847  0DBF  1D03               	btfss	3,2
  1848  0DC0  2DC2               	goto	u2581
  1849  0DC1  2DC3               	goto	u2580
  1850  0DC2                     u2581:	
  1851  0DC2  2CE8               	goto	l2079
  1852  0DC3                     u2580:	
  1853  0DC3                     l2131:	
  1854                           
  1855                           ;C:\Program Files (x86)\Microchip\xc8\v2.10\pic\sources\c90\common\doprnt.c: 1564:  *sp 
      +                          = 0;
  1856  0DC3  082B               	movf	sprintf@sp,w
  1857  0DC4  0084               	movwf	4
  1858  0DC5  1383               	bcf	3,7	;select IRP bank0
  1859  0DC6  0180               	clrf	0
  1860  0DC7                     l267:	
  1861  0DC7  0008               	return
  1862  0DC8                     __end_of_sprintf:	
  1863                           
  1864                           	psect	text2
  1865  0A72                     __ptext2:	
  1866 ;; *************** function ___lwmod *****************
  1867 ;; Defined at:
  1868 ;;		line 5 in file "C:\Program Files (x86)\Microchip\xc8\v2.10\pic\sources\c90\common\lwmod.c"
  1869 ;; Parameters:    Size  Location     Type
  1870 ;;  divisor         2    8[COMMON] unsigned int 
  1871 ;;  dividend        2   10[COMMON] unsigned int 
  1872 ;; Auto vars:     Size  Location     Type
  1873 ;;  counter         1   13[COMMON] unsigned char 
  1874 ;; Return value:  Size  Location     Type
  1875 ;;                  2    8[COMMON] unsigned int 
  1876 ;; Registers used:
  1877 ;;		wreg, status,2, status,0
  1878 ;; Tracked objects:
  1879 ;;		On entry : 0/0
  1880 ;;		On exit  : 0/0
  1881 ;;		Unchanged: 0/0
  1882 ;; Data sizes:     COMMON   BANK0   BANK1   BANK3   BANK2
  1883 ;;      Params:         4       0       0       0       0
  1884 ;;      Locals:         1       0       0       0       0
  1885 ;;      Temps:          1       0       0       0       0
  1886 ;;      Totals:         6       0       0       0       0
  1887 ;;Total ram usage:        6 bytes
  1888 ;; Hardware stack levels used:    1
  1889 ;; This function calls:
  1890 ;;		Nothing
  1891 ;; This function is called by:
  1892 ;;		_sprintf
  1893 ;; This function uses a non-reentrant model
  1894 ;;
  1895                           
  1896                           
  1897                           ;psect for function ___lwmod
  1898  0A72                     ___lwmod:	
  1899  0A72                     l1773:	
  1900                           ;incstack = 0
  1901                           ; Regs used in ___lwmod: [wreg+status,2+status,0]
  1902                           
  1903  0A72  0878               	movf	___lwmod@divisor,w
  1904  0A73  0479               	iorwf	___lwmod@divisor+1,w
  1905  0A74  1903               	btfsc	3,2
  1906  0A75  2A77               	goto	u1931
  1907  0A76  2A78               	goto	u1930
  1908  0A77                     u1931:	
  1909  0A77  2AA7               	goto	l1791
  1910  0A78                     u1930:	
  1911  0A78                     l1775:	
  1912  0A78  01FD               	clrf	___lwmod@counter
  1913  0A79  0AFD               	incf	___lwmod@counter,f
  1914  0A7A  2A86               	goto	l1781
  1915  0A7B                     l1777:	
  1916  0A7B  3001               	movlw	1
  1917  0A7C                     u1945:	
  1918  0A7C  1003               	clrc
  1919  0A7D  0DF8               	rlf	___lwmod@divisor,f
  1920  0A7E  0DF9               	rlf	___lwmod@divisor+1,f
  1921  0A7F  3EFF               	addlw	-1
  1922  0A80  1D03               	skipz
  1923  0A81  2A7C               	goto	u1945
  1924  0A82                     l1779:	
  1925  0A82  3001               	movlw	1
  1926  0A83  00FC               	movwf	??___lwmod
  1927  0A84  087C               	movf	??___lwmod,w
  1928  0A85  07FD               	addwf	___lwmod@counter,f
  1929  0A86                     l1781:	
  1930  0A86  1FF9               	btfss	___lwmod@divisor+1,7
  1931  0A87  2A89               	goto	u1951
  1932  0A88  2A8A               	goto	u1950
  1933  0A89                     u1951:	
  1934  0A89  2A7B               	goto	l1777
  1935  0A8A                     u1950:	
  1936  0A8A                     l1783:	
  1937  0A8A  0879               	movf	___lwmod@divisor+1,w
  1938  0A8B  027B               	subwf	___lwmod@dividend+1,w
  1939  0A8C  1D03               	skipz
  1940  0A8D  2A90               	goto	u1965
  1941  0A8E  0878               	movf	___lwmod@divisor,w
  1942  0A8F  027A               	subwf	___lwmod@dividend,w
  1943  0A90                     u1965:	
  1944  0A90  1C03               	skipc
  1945  0A91  2A93               	goto	u1961
  1946  0A92  2A94               	goto	u1960
  1947  0A93                     u1961:	
  1948  0A93  2A9A               	goto	l1787
  1949  0A94                     u1960:	
  1950  0A94                     l1785:	
  1951  0A94  0878               	movf	___lwmod@divisor,w
  1952  0A95  02FA               	subwf	___lwmod@dividend,f
  1953  0A96  0879               	movf	___lwmod@divisor+1,w
  1954  0A97  1C03               	skipc
  1955  0A98  03FB               	decf	___lwmod@dividend+1,f
  1956  0A99  02FB               	subwf	___lwmod@dividend+1,f
  1957  0A9A                     l1787:	
  1958  0A9A  3001               	movlw	1
  1959  0A9B                     u1975:	
  1960  0A9B  1003               	clrc
  1961  0A9C  0CF9               	rrf	___lwmod@divisor+1,f
  1962  0A9D  0CF8               	rrf	___lwmod@divisor,f
  1963  0A9E  3EFF               	addlw	-1
  1964  0A9F  1D03               	skipz
  1965  0AA0  2A9B               	goto	u1975
  1966  0AA1                     l1789:	
  1967  0AA1  3001               	movlw	1
  1968  0AA2  02FD               	subwf	___lwmod@counter,f
  1969  0AA3  1D03               	btfss	3,2
  1970  0AA4  2AA6               	goto	u1981
  1971  0AA5  2AA7               	goto	u1980
  1972  0AA6                     u1981:	
  1973  0AA6  2A8A               	goto	l1783
  1974  0AA7                     u1980:	
  1975  0AA7                     l1791:	
  1976  0AA7  087B               	movf	___lwmod@dividend+1,w
  1977  0AA8  00F9               	movwf	?___lwmod+1
  1978  0AA9  087A               	movf	___lwmod@dividend,w
  1979  0AAA  00F8               	movwf	?___lwmod
  1980  0AAB                     l553:	
  1981  0AAB  0008               	return
  1982  0AAC                     __end_of___lwmod:	
  1983                           
  1984                           	psect	text3
  1985  0AAC                     __ptext3:	
  1986 ;; *************** function ___lwdiv *****************
  1987 ;; Defined at:
  1988 ;;		line 5 in file "C:\Program Files (x86)\Microchip\xc8\v2.10\pic\sources\c90\common\lwdiv.c"
  1989 ;; Parameters:    Size  Location     Type
  1990 ;;  divisor         2    0[COMMON] unsigned int 
  1991 ;;  dividend        2    2[COMMON] unsigned int 
  1992 ;; Auto vars:     Size  Location     Type
  1993 ;;  quotient        2    5[COMMON] unsigned int 
  1994 ;;  counter         1    7[COMMON] unsigned char 
  1995 ;; Return value:  Size  Location     Type
  1996 ;;                  2    0[COMMON] unsigned int 
  1997 ;; Registers used:
  1998 ;;		wreg, status,2, status,0
  1999 ;; Tracked objects:
  2000 ;;		On entry : 0/0
  2001 ;;		On exit  : 0/0
  2002 ;;		Unchanged: 0/0
  2003 ;; Data sizes:     COMMON   BANK0   BANK1   BANK3   BANK2
  2004 ;;      Params:         4       0       0       0       0
  2005 ;;      Locals:         3       0       0       0       0
  2006 ;;      Temps:          1       0       0       0       0
  2007 ;;      Totals:         8       0       0       0       0
  2008 ;;Total ram usage:        8 bytes
  2009 ;; Hardware stack levels used:    1
  2010 ;; This function calls:
  2011 ;;		Nothing
  2012 ;; This function is called by:
  2013 ;;		_sprintf
  2014 ;; This function uses a non-reentrant model
  2015 ;;
  2016                           
  2017                           
  2018                           ;psect for function ___lwdiv
  2019  0AAC                     ___lwdiv:	
  2020  0AAC                     l1747:	
  2021                           ;incstack = 0
  2022                           ; Regs used in ___lwdiv: [wreg+status,2+status,0]
  2023                           
  2024  0AAC  01F5               	clrf	___lwdiv@quotient
  2025  0AAD  01F6               	clrf	___lwdiv@quotient+1
  2026  0AAE                     l1749:	
  2027  0AAE  0870               	movf	___lwdiv@divisor,w
  2028  0AAF  0471               	iorwf	___lwdiv@divisor+1,w
  2029  0AB0  1903               	btfsc	3,2
  2030  0AB1  2AB3               	goto	u1861
  2031  0AB2  2AB4               	goto	u1860
  2032  0AB3                     u1861:	
  2033  0AB3  2AEB               	goto	l1769
  2034  0AB4                     u1860:	
  2035  0AB4                     l1751:	
  2036  0AB4  01F7               	clrf	___lwdiv@counter
  2037  0AB5  0AF7               	incf	___lwdiv@counter,f
  2038  0AB6  2AC2               	goto	l1757
  2039  0AB7                     l1753:	
  2040  0AB7  3001               	movlw	1
  2041  0AB8                     u1875:	
  2042  0AB8  1003               	clrc
  2043  0AB9  0DF0               	rlf	___lwdiv@divisor,f
  2044  0ABA  0DF1               	rlf	___lwdiv@divisor+1,f
  2045  0ABB  3EFF               	addlw	-1
  2046  0ABC  1D03               	skipz
  2047  0ABD  2AB8               	goto	u1875
  2048  0ABE                     l1755:	
  2049  0ABE  3001               	movlw	1
  2050  0ABF  00F4               	movwf	??___lwdiv
  2051  0AC0  0874               	movf	??___lwdiv,w
  2052  0AC1  07F7               	addwf	___lwdiv@counter,f
  2053  0AC2                     l1757:	
  2054  0AC2  1FF1               	btfss	___lwdiv@divisor+1,7
  2055  0AC3  2AC5               	goto	u1881
  2056  0AC4  2AC6               	goto	u1880
  2057  0AC5                     u1881:	
  2058  0AC5  2AB7               	goto	l1753
  2059  0AC6                     u1880:	
  2060  0AC6                     l1759:	
  2061  0AC6  3001               	movlw	1
  2062  0AC7                     u1895:	
  2063  0AC7  1003               	clrc
  2064  0AC8  0DF5               	rlf	___lwdiv@quotient,f
  2065  0AC9  0DF6               	rlf	___lwdiv@quotient+1,f
  2066  0ACA  3EFF               	addlw	-1
  2067  0ACB  1D03               	skipz
  2068  0ACC  2AC7               	goto	u1895
  2069  0ACD  0871               	movf	___lwdiv@divisor+1,w
  2070  0ACE  0273               	subwf	___lwdiv@dividend+1,w
  2071  0ACF  1D03               	skipz
  2072  0AD0  2AD3               	goto	u1905
  2073  0AD1  0870               	movf	___lwdiv@divisor,w
  2074  0AD2  0272               	subwf	___lwdiv@dividend,w
  2075  0AD3                     u1905:	
  2076  0AD3  1C03               	skipc
  2077  0AD4  2AD6               	goto	u1901
  2078  0AD5  2AD7               	goto	u1900
  2079  0AD6                     u1901:	
  2080  0AD6  2ADE               	goto	l1765
  2081  0AD7                     u1900:	
  2082  0AD7                     l1761:	
  2083  0AD7  0870               	movf	___lwdiv@divisor,w
  2084  0AD8  02F2               	subwf	___lwdiv@dividend,f
  2085  0AD9  0871               	movf	___lwdiv@divisor+1,w
  2086  0ADA  1C03               	skipc
  2087  0ADB  03F3               	decf	___lwdiv@dividend+1,f
  2088  0ADC  02F3               	subwf	___lwdiv@dividend+1,f
  2089  0ADD                     l1763:	
  2090  0ADD  1475               	bsf	___lwdiv@quotient,0
  2091  0ADE                     l1765:	
  2092  0ADE  3001               	movlw	1
  2093  0ADF                     u1915:	
  2094  0ADF  1003               	clrc
  2095  0AE0  0CF1               	rrf	___lwdiv@divisor+1,f
  2096  0AE1  0CF0               	rrf	___lwdiv@divisor,f
  2097  0AE2  3EFF               	addlw	-1
  2098  0AE3  1D03               	skipz
  2099  0AE4  2ADF               	goto	u1915
  2100  0AE5                     l1767:	
  2101  0AE5  3001               	movlw	1
  2102  0AE6  02F7               	subwf	___lwdiv@counter,f
  2103  0AE7  1D03               	btfss	3,2
  2104  0AE8  2AEA               	goto	u1921
  2105  0AE9  2AEB               	goto	u1920
  2106  0AEA                     u1921:	
  2107  0AEA  2AC6               	goto	l1759
  2108  0AEB                     u1920:	
  2109  0AEB                     l1769:	
  2110  0AEB  0876               	movf	___lwdiv@quotient+1,w
  2111  0AEC  00F1               	movwf	?___lwdiv+1
  2112  0AED  0875               	movf	___lwdiv@quotient,w
  2113  0AEE  00F0               	movwf	?___lwdiv
  2114  0AEF                     l543:	
  2115  0AEF  0008               	return
  2116  0AF0                     __end_of___lwdiv:	
  2117                           
  2118                           	psect	text4
  2119  097D                     __ptext4:	
  2120 ;; *************** function _config *****************
  2121 ;; Defined at:
  2122 ;;		line 102 in file "main.c"
  2123 ;; Parameters:    Size  Location     Type
  2124 ;;		None
  2125 ;; Auto vars:     Size  Location     Type
  2126 ;;		None
  2127 ;; Return value:  Size  Location     Type
  2128 ;;                  1    wreg      void 
  2129 ;; Registers used:
  2130 ;;		wreg, status,2, status,0, pclath, cstack
  2131 ;; Tracked objects:
  2132 ;;		On entry : 0/0
  2133 ;;		On exit  : 0/0
  2134 ;;		Unchanged: 0/0
  2135 ;; Data sizes:     COMMON   BANK0   BANK1   BANK3   BANK2
  2136 ;;      Params:         0       0       0       0       0
  2137 ;;      Locals:         0       0       0       0       0
  2138 ;;      Temps:          0       0       0       0       0
  2139 ;;      Totals:         0       0       0       0       0
  2140 ;;Total ram usage:        0 bytes
  2141 ;; Hardware stack levels used:    1
  2142 ;; Hardware stack levels required when called:    2
  2143 ;; This function calls:
  2144 ;;		_I2C_Master_Init
  2145 ;; This function is called by:
  2146 ;;		_main
  2147 ;; This function uses a non-reentrant model
  2148 ;;
  2149                           
  2150                           
  2151                           ;psect for function _config
  2152  097D                     _config:	
  2153  097D                     l2003:	
  2154                           ;incstack = 0
  2155                           ; Regs used in _config: [wreg+status,2+status,0+pclath+cstack]
  2156                           
  2157                           
  2158                           ;main.c: 103:     TRISB = 0x00;
  2159  097D  1683               	bsf	3,5	;RP0=1, select bank1
  2160  097E  1303               	bcf	3,6	;RP1=0, select bank1
  2161  097F  0186               	clrf	6	;volatile
  2162                           
  2163                           ;main.c: 104:     TRISD = 0x00;
  2164  0980  0188               	clrf	8	;volatile
  2165                           
  2166                           ;main.c: 105:     ANSELH = 0x00;
  2167  0981  1683               	bsf	3,5	;RP0=1, select bank3
  2168  0982  1703               	bsf	3,6	;RP1=1, select bank3
  2169  0983  0189               	clrf	9	;volatile
  2170                           
  2171                           ;main.c: 106:     ANSEL = 0x00;
  2172  0984  0188               	clrf	8	;volatile
  2173  0985                     l2005:	
  2174                           
  2175                           ;main.c: 107:     ANSELbits.ANS0 = 1;
  2176  0985  1408               	bsf	8,0	;volatile
  2177  0986                     l2007:	
  2178                           
  2179                           ;main.c: 108:     ANSELbits.ANS1 = 1;
  2180  0986  1488               	bsf	8,1	;volatile
  2181                           
  2182                           ;main.c: 109:     PORTA = 0x00;
  2183  0987  1283               	bcf	3,5	;RP0=0, select bank0
  2184  0988  1303               	bcf	3,6	;RP1=0, select bank0
  2185  0989  0185               	clrf	5	;volatile
  2186                           
  2187                           ;main.c: 110:     PORTB = 0x00;
  2188  098A  0186               	clrf	6	;volatile
  2189                           
  2190                           ;main.c: 111:     PORTC = 0x00;
  2191  098B  0187               	clrf	7	;volatile
  2192                           
  2193                           ;main.c: 112:     PORTD = 0x00;
  2194  098C  0188               	clrf	8	;volatile
  2195  098D                     l2009:	
  2196                           
  2197                           ;main.c: 113:     I2C_Master_Init(100000);
  2198  098D  3000               	movlw	0
  2199  098E  00A3               	movwf	I2C_Master_Init@c+3
  2200  098F  3001               	movlw	1
  2201  0990  00A2               	movwf	I2C_Master_Init@c+2
  2202  0991  3086               	movlw	134
  2203  0992  00A1               	movwf	I2C_Master_Init@c+1
  2204  0993  30A0               	movlw	160
  2205  0994  00A0               	movwf	I2C_Master_Init@c
  2206  0995  120A  158A  223A  120A  158A  	fcall	_I2C_Master_Init
  2207  099A                     l73:	
  2208  099A  0008               	return
  2209  099B                     __end_of_config:	
  2210                           
  2211                           	psect	text5
  2212  0A3A                     __ptext5:	
  2213 ;; *************** function _I2C_Master_Init *****************
  2214 ;; Defined at:
  2215 ;;		line 17 in file "I2C.c"
  2216 ;; Parameters:    Size  Location     Type
  2217 ;;  c               4    0[BANK0 ] const unsigned long 
  2218 ;; Auto vars:     Size  Location     Type
  2219 ;;		None
  2220 ;; Return value:  Size  Location     Type
  2221 ;;                  1    wreg      void 
  2222 ;; Registers used:
  2223 ;;		wreg, status,2, status,0, pclath, cstack
  2224 ;; Tracked objects:
  2225 ;;		On entry : 0/0
  2226 ;;		On exit  : 0/0
  2227 ;;		Unchanged: 0/0
  2228 ;; Data sizes:     COMMON   BANK0   BANK1   BANK3   BANK2
  2229 ;;      Params:         0       4       0       0       0
  2230 ;;      Locals:         0       0       0       0       0
  2231 ;;      Temps:          0       4       0       0       0
  2232 ;;      Totals:         0       8       0       0       0
  2233 ;;Total ram usage:        8 bytes
  2234 ;; Hardware stack levels used:    1
  2235 ;; Hardware stack levels required when called:    1
  2236 ;; This function calls:
  2237 ;;		___lldiv
  2238 ;; This function is called by:
  2239 ;;		_config
  2240 ;; This function uses a non-reentrant model
  2241 ;;
  2242                           
  2243                           
  2244                           ;psect for function _I2C_Master_Init
  2245  0A3A                     _I2C_Master_Init:	
  2246  0A3A                     l1715:	
  2247                           ;incstack = 0
  2248                           ; Regs used in _I2C_Master_Init: [wreg+status,2+status,0+pclath+cstack]
  2249                           
  2250                           
  2251                           ;I2C.c: 17: void I2C_Master_Init(const unsigned long c);I2C.c: 18: {;I2C.c: 19:     SSPC
      +                          ON = 0b00101000;
  2252  0A3A  3028               	movlw	40
  2253  0A3B  1283               	bcf	3,5	;RP0=0, select bank0
  2254  0A3C  1303               	bcf	3,6	;RP1=0, select bank0
  2255  0A3D  0094               	movwf	20	;volatile
  2256  0A3E                     l1717:	
  2257                           
  2258                           ;I2C.c: 20:     SSPCON2 = 0;
  2259  0A3E  1683               	bsf	3,5	;RP0=1, select bank1
  2260  0A3F  1303               	bcf	3,6	;RP1=0, select bank1
  2261  0A40  0191               	clrf	17	;volatile
  2262  0A41                     l1719:	
  2263                           
  2264                           ;I2C.c: 21:     SSPADD = (8000000/(4*c))-1;
  2265  0A41  1283               	bcf	3,5	;RP0=0, select bank0
  2266  0A42  1303               	bcf	3,6	;RP1=0, select bank0
  2267  0A43  0820               	movf	I2C_Master_Init@c,w
  2268  0A44  00A4               	movwf	??_I2C_Master_Init
  2269  0A45  0821               	movf	I2C_Master_Init@c+1,w
  2270  0A46  00A5               	movwf	??_I2C_Master_Init+1
  2271  0A47  0822               	movf	I2C_Master_Init@c+2,w
  2272  0A48  00A6               	movwf	??_I2C_Master_Init+2
  2273  0A49  0823               	movf	I2C_Master_Init@c+3,w
  2274  0A4A  00A7               	movwf	??_I2C_Master_Init+3
  2275  0A4B  3002               	movlw	2
  2276  0A4C                     u1835:	
  2277  0A4C  1003               	clrc
  2278  0A4D  0DA4               	rlf	??_I2C_Master_Init,f
  2279  0A4E  0DA5               	rlf	??_I2C_Master_Init+1,f
  2280  0A4F  0DA6               	rlf	??_I2C_Master_Init+2,f
  2281  0A50  0DA7               	rlf	??_I2C_Master_Init+3,f
  2282  0A51                     u1830:	
  2283  0A51  3EFF               	addlw	-1
  2284  0A52  1D03               	skipz
  2285  0A53  2A4C               	goto	u1835
  2286  0A54  0827               	movf	??_I2C_Master_Init+3,w
  2287  0A55  00F3               	movwf	___lldiv@divisor+3
  2288  0A56  0826               	movf	??_I2C_Master_Init+2,w
  2289  0A57  00F2               	movwf	___lldiv@divisor+2
  2290  0A58  0825               	movf	??_I2C_Master_Init+1,w
  2291  0A59  00F1               	movwf	___lldiv@divisor+1
  2292  0A5A  0824               	movf	??_I2C_Master_Init,w
  2293  0A5B  00F0               	movwf	___lldiv@divisor
  2294  0A5C  3000               	movlw	0
  2295  0A5D  00F7               	movwf	___lldiv@dividend+3
  2296  0A5E  307A               	movlw	122
  2297  0A5F  00F6               	movwf	___lldiv@dividend+2
  2298  0A60  3012               	movlw	18
  2299  0A61  00F5               	movwf	___lldiv@dividend+1
  2300  0A62  3000               	movlw	0
  2301  0A63  00F4               	movwf	___lldiv@dividend
  2302  0A64  120A  158A  2346  120A  158A  	fcall	___lldiv
  2303  0A69  0870               	movf	?___lldiv,w
  2304  0A6A  3EFF               	addlw	255
  2305  0A6B  1683               	bsf	3,5	;RP0=1, select bank1
  2306  0A6C  1303               	bcf	3,6	;RP1=0, select bank1
  2307  0A6D  0093               	movwf	19	;volatile
  2308  0A6E                     l1721:	
  2309                           
  2310                           ;I2C.c: 22:     SSPSTAT = 0;
  2311  0A6E  0194               	clrf	20	;volatile
  2312  0A6F                     l1723:	
  2313                           
  2314                           ;I2C.c: 23:     TRISCbits.TRISC3 = 1;
  2315  0A6F  1587               	bsf	7,3	;volatile
  2316  0A70                     l1725:	
  2317                           
  2318                           ;I2C.c: 24:     TRISCbits.TRISC4 = 1;
  2319  0A70  1607               	bsf	7,4	;volatile
  2320  0A71                     l131:	
  2321  0A71  0008               	return
  2322  0A72                     __end_of_I2C_Master_Init:	
  2323                           
  2324                           	psect	text6
  2325  0B46                     __ptext6:	
  2326 ;; *************** function ___lldiv *****************
  2327 ;; Defined at:
  2328 ;;		line 5 in file "C:\Program Files (x86)\Microchip\xc8\v2.10\pic\sources\c90\common\__lldiv.c"
  2329 ;; Parameters:    Size  Location     Type
  2330 ;;  divisor         4    0[COMMON] unsigned long 
  2331 ;;  dividend        4    4[COMMON] unsigned long 
  2332 ;; Auto vars:     Size  Location     Type
  2333 ;;  quotient        4    9[COMMON] unsigned long 
  2334 ;;  counter         1   13[COMMON] unsigned char 
  2335 ;; Return value:  Size  Location     Type
  2336 ;;                  4    0[COMMON] unsigned long 
  2337 ;; Registers used:
  2338 ;;		wreg, status,2, status,0
  2339 ;; Tracked objects:
  2340 ;;		On entry : 0/0
  2341 ;;		On exit  : 0/0
  2342 ;;		Unchanged: 0/0
  2343 ;; Data sizes:     COMMON   BANK0   BANK1   BANK3   BANK2
  2344 ;;      Params:         8       0       0       0       0
  2345 ;;      Locals:         5       0       0       0       0
  2346 ;;      Temps:          1       0       0       0       0
  2347 ;;      Totals:        14       0       0       0       0
  2348 ;;Total ram usage:       14 bytes
  2349 ;; Hardware stack levels used:    1
  2350 ;; This function calls:
  2351 ;;		Nothing
  2352 ;; This function is called by:
  2353 ;;		_I2C_Master_Init
  2354 ;; This function uses a non-reentrant model
  2355 ;;
  2356                           
  2357                           
  2358                           ;psect for function ___lldiv
  2359  0B46                     ___lldiv:	
  2360  0B46                     l1691:	
  2361                           ;incstack = 0
  2362                           ; Regs used in ___lldiv: [wreg+status,2+status,0]
  2363                           
  2364  0B46  3000               	movlw	0
  2365  0B47  00FC               	movwf	___lldiv@quotient+3
  2366  0B48  3000               	movlw	0
  2367  0B49  00FB               	movwf	___lldiv@quotient+2
  2368  0B4A  3000               	movlw	0
  2369  0B4B  00FA               	movwf	___lldiv@quotient+1
  2370  0B4C  3000               	movlw	0
  2371  0B4D  00F9               	movwf	___lldiv@quotient
  2372  0B4E  0873               	movf	___lldiv@divisor+3,w
  2373  0B4F  0472               	iorwf	___lldiv@divisor+2,w
  2374  0B50  0471               	iorwf	___lldiv@divisor+1,w
  2375  0B51  0470               	iorwf	___lldiv@divisor,w
  2376  0B52  1903               	skipnz
  2377  0B53  2B55               	goto	u1761
  2378  0B54  2B56               	goto	u1760
  2379  0B55                     u1761:	
  2380  0B55  2BA3               	goto	l1711
  2381  0B56                     u1760:	
  2382  0B56                     l1693:	
  2383  0B56  01FD               	clrf	___lldiv@counter
  2384  0B57  0AFD               	incf	___lldiv@counter,f
  2385  0B58  2B66               	goto	l1697
  2386  0B59                     l1695:	
  2387  0B59  3001               	movlw	1
  2388  0B5A  00F8               	movwf	??___lldiv
  2389  0B5B                     u1775:	
  2390  0B5B  1003               	clrc
  2391  0B5C  0DF0               	rlf	___lldiv@divisor,f
  2392  0B5D  0DF1               	rlf	___lldiv@divisor+1,f
  2393  0B5E  0DF2               	rlf	___lldiv@divisor+2,f
  2394  0B5F  0DF3               	rlf	___lldiv@divisor+3,f
  2395  0B60  0BF8               	decfsz	??___lldiv,f
  2396  0B61  2B5B               	goto	u1775
  2397  0B62  3001               	movlw	1
  2398  0B63  00F8               	movwf	??___lldiv
  2399  0B64  0878               	movf	??___lldiv,w
  2400  0B65  07FD               	addwf	___lldiv@counter,f
  2401  0B66                     l1697:	
  2402  0B66  1FF3               	btfss	___lldiv@divisor+3,7
  2403  0B67  2B69               	goto	u1781
  2404  0B68  2B6A               	goto	u1780
  2405  0B69                     u1781:	
  2406  0B69  2B59               	goto	l1695
  2407  0B6A                     u1780:	
  2408  0B6A                     l1699:	
  2409  0B6A  3001               	movlw	1
  2410  0B6B  00F8               	movwf	??___lldiv
  2411  0B6C                     u1795:	
  2412  0B6C  1003               	clrc
  2413  0B6D  0DF9               	rlf	___lldiv@quotient,f
  2414  0B6E  0DFA               	rlf	___lldiv@quotient+1,f
  2415  0B6F  0DFB               	rlf	___lldiv@quotient+2,f
  2416  0B70  0DFC               	rlf	___lldiv@quotient+3,f
  2417  0B71  0BF8               	decfsz	??___lldiv,f
  2418  0B72  2B6C               	goto	u1795
  2419  0B73                     l1701:	
  2420  0B73  0873               	movf	___lldiv@divisor+3,w
  2421  0B74  0277               	subwf	___lldiv@dividend+3,w
  2422  0B75  1D03               	skipz
  2423  0B76  2B81               	goto	u1805
  2424  0B77  0872               	movf	___lldiv@divisor+2,w
  2425  0B78  0276               	subwf	___lldiv@dividend+2,w
  2426  0B79  1D03               	skipz
  2427  0B7A  2B81               	goto	u1805
  2428  0B7B  0871               	movf	___lldiv@divisor+1,w
  2429  0B7C  0275               	subwf	___lldiv@dividend+1,w
  2430  0B7D  1D03               	skipz
  2431  0B7E  2B81               	goto	u1805
  2432  0B7F  0870               	movf	___lldiv@divisor,w
  2433  0B80  0274               	subwf	___lldiv@dividend,w
  2434  0B81                     u1805:	
  2435  0B81  1C03               	skipc
  2436  0B82  2B84               	goto	u1801
  2437  0B83  2B85               	goto	u1800
  2438  0B84                     u1801:	
  2439  0B84  2B94               	goto	l1707
  2440  0B85                     u1800:	
  2441  0B85                     l1703:	
  2442  0B85  0870               	movf	___lldiv@divisor,w
  2443  0B86  02F4               	subwf	___lldiv@dividend,f
  2444  0B87  0871               	movf	___lldiv@divisor+1,w
  2445  0B88  1C03               	skipc
  2446  0B89  0F71               	incfsz	___lldiv@divisor+1,w
  2447  0B8A  02F5               	subwf	___lldiv@dividend+1,f
  2448  0B8B  0872               	movf	___lldiv@divisor+2,w
  2449  0B8C  1C03               	skipc
  2450  0B8D  0F72               	incfsz	___lldiv@divisor+2,w
  2451  0B8E  02F6               	subwf	___lldiv@dividend+2,f
  2452  0B8F  0873               	movf	___lldiv@divisor+3,w
  2453  0B90  1C03               	skipc
  2454  0B91  0F73               	incfsz	___lldiv@divisor+3,w
  2455  0B92  02F7               	subwf	___lldiv@dividend+3,f
  2456  0B93                     l1705:	
  2457  0B93  1479               	bsf	___lldiv@quotient,0
  2458  0B94                     l1707:	
  2459  0B94  3001               	movlw	1
  2460  0B95                     u1815:	
  2461  0B95  1003               	clrc
  2462  0B96  0CF3               	rrf	___lldiv@divisor+3,f
  2463  0B97  0CF2               	rrf	___lldiv@divisor+2,f
  2464  0B98  0CF1               	rrf	___lldiv@divisor+1,f
  2465  0B99  0CF0               	rrf	___lldiv@divisor,f
  2466  0B9A  3EFF               	addlw	-1
  2467  0B9B  1D03               	skipz
  2468  0B9C  2B95               	goto	u1815
  2469  0B9D                     l1709:	
  2470  0B9D  3001               	movlw	1
  2471  0B9E  02FD               	subwf	___lldiv@counter,f
  2472  0B9F  1D03               	btfss	3,2
  2473  0BA0  2BA2               	goto	u1821
  2474  0BA1  2BA3               	goto	u1820
  2475  0BA2                     u1821:	
  2476  0BA2  2B6A               	goto	l1699
  2477  0BA3                     u1820:	
  2478  0BA3                     l1711:	
  2479  0BA3  087C               	movf	___lldiv@quotient+3,w
  2480  0BA4  00F3               	movwf	?___lldiv+3
  2481  0BA5  087B               	movf	___lldiv@quotient+2,w
  2482  0BA6  00F2               	movwf	?___lldiv+2
  2483  0BA7  087A               	movf	___lldiv@quotient+1,w
  2484  0BA8  00F1               	movwf	?___lldiv+1
  2485  0BA9  0879               	movf	___lldiv@quotient,w
  2486  0BAA  00F0               	movwf	?___lldiv
  2487  0BAB                     l307:	
  2488  0BAB  0008               	return
  2489  0BAC                     __end_of___lldiv:	
  2490                           
  2491                           	psect	text7
  2492  0C26                     __ptext7:	
  2493 ;; *************** function ___xxtofl *****************
  2494 ;; Defined at:
  2495 ;;		line 10 in file "C:\Program Files (x86)\Microchip\xc8\v2.10\pic\sources\c90\common\xxtofl.c"
  2496 ;; Parameters:    Size  Location     Type
  2497 ;;  sign            1    wreg     unsigned char 
  2498 ;;  val             4    0[COMMON] long 
  2499 ;; Auto vars:     Size  Location     Type
  2500 ;;  sign            1    8[COMMON] unsigned char 
  2501 ;;  arg             4   10[COMMON] unsigned long 
  2502 ;;  exp             1    9[COMMON] unsigned char 
  2503 ;; Return value:  Size  Location     Type
  2504 ;;                  4    0[COMMON] unsigned char 
  2505 ;; Registers used:
  2506 ;;		wreg, status,2, status,0
  2507 ;; Tracked objects:
  2508 ;;		On entry : 0/0
  2509 ;;		On exit  : 0/0
  2510 ;;		Unchanged: 0/0
  2511 ;; Data sizes:     COMMON   BANK0   BANK1   BANK3   BANK2
  2512 ;;      Params:         4       0       0       0       0
  2513 ;;      Locals:         6       0       0       0       0
  2514 ;;      Temps:          4       0       0       0       0
  2515 ;;      Totals:        14       0       0       0       0
  2516 ;;Total ram usage:       14 bytes
  2517 ;; Hardware stack levels used:    1
  2518 ;; This function calls:
  2519 ;;		Nothing
  2520 ;; This function is called by:
  2521 ;;		_main
  2522 ;; This function uses a non-reentrant model
  2523 ;;
  2524                           
  2525                           
  2526                           ;psect for function ___xxtofl
  2527  0C26                     ___xxtofl:	
  2528                           
  2529                           ;incstack = 0
  2530                           ; Regs used in ___xxtofl: [wreg+status,2+status,0]
  2531                           ;___xxtofl@sign stored from wreg
  2532  0C26  00F8               	movwf	___xxtofl@sign
  2533  0C27                     l2463:	
  2534  0C27  0878               	movf	___xxtofl@sign,w
  2535  0C28  1903               	btfsc	3,2
  2536  0C29  2C2B               	goto	u3351
  2537  0C2A  2C2C               	goto	u3350
  2538  0C2B                     u3351:	
  2539  0C2B  2C40               	goto	l2469
  2540  0C2C                     u3350:	
  2541  0C2C                     l2465:	
  2542  0C2C  1FF3               	btfss	___xxtofl@val+3,7
  2543  0C2D  2C2F               	goto	u3361
  2544  0C2E  2C30               	goto	u3360
  2545  0C2F                     u3361:	
  2546  0C2F  2C40               	goto	l2469
  2547  0C30                     u3360:	
  2548  0C30                     l2467:	
  2549  0C30  0970               	comf	___xxtofl@val,w
  2550  0C31  00FA               	movwf	___xxtofl@arg
  2551  0C32  0971               	comf	___xxtofl@val+1,w
  2552  0C33  00FB               	movwf	___xxtofl@arg+1
  2553  0C34  0972               	comf	___xxtofl@val+2,w
  2554  0C35  00FC               	movwf	___xxtofl@arg+2
  2555  0C36  0973               	comf	___xxtofl@val+3,w
  2556  0C37  00FD               	movwf	___xxtofl@arg+3
  2557  0C38  0AFA               	incf	___xxtofl@arg,f
  2558  0C39  1903               	skipnz
  2559  0C3A  0AFB               	incf	___xxtofl@arg+1,f
  2560  0C3B  1903               	skipnz
  2561  0C3C  0AFC               	incf	___xxtofl@arg+2,f
  2562  0C3D  1903               	skipnz
  2563  0C3E  0AFD               	incf	___xxtofl@arg+3,f
  2564  0C3F  2C48               	goto	l698
  2565  0C40                     l2469:	
  2566  0C40  0873               	movf	___xxtofl@val+3,w
  2567  0C41  00FD               	movwf	___xxtofl@arg+3
  2568  0C42  0872               	movf	___xxtofl@val+2,w
  2569  0C43  00FC               	movwf	___xxtofl@arg+2
  2570  0C44  0871               	movf	___xxtofl@val+1,w
  2571  0C45  00FB               	movwf	___xxtofl@arg+1
  2572  0C46  0870               	movf	___xxtofl@val,w
  2573  0C47  00FA               	movwf	___xxtofl@arg
  2574  0C48                     l698:	
  2575  0C48  0873               	movf	___xxtofl@val+3,w
  2576  0C49  0472               	iorwf	___xxtofl@val+2,w
  2577  0C4A  0471               	iorwf	___xxtofl@val+1,w
  2578  0C4B  0470               	iorwf	___xxtofl@val,w
  2579  0C4C  1D03               	skipz
  2580  0C4D  2C4F               	goto	u3371
  2581  0C4E  2C50               	goto	u3370
  2582  0C4F                     u3371:	
  2583  0C4F  2C59               	goto	l2475
  2584  0C50                     u3370:	
  2585  0C50                     l2471:	
  2586  0C50  3000               	movlw	0
  2587  0C51  00F3               	movwf	?___xxtofl+3
  2588  0C52  3000               	movlw	0
  2589  0C53  00F2               	movwf	?___xxtofl+2
  2590  0C54  3000               	movlw	0
  2591  0C55  00F1               	movwf	?___xxtofl+1
  2592  0C56  3000               	movlw	0
  2593  0C57  00F0               	movwf	?___xxtofl
  2594  0C58  2CDF               	goto	l700
  2595  0C59                     l2475:	
  2596  0C59  3096               	movlw	150
  2597  0C5A  00F4               	movwf	??___xxtofl
  2598  0C5B  0874               	movf	??___xxtofl,w
  2599  0C5C  00F9               	movwf	___xxtofl@exp
  2600  0C5D  2C6B               	goto	l2479
  2601  0C5E                     l2477:	
  2602  0C5E  3001               	movlw	1
  2603  0C5F  00F4               	movwf	??___xxtofl
  2604  0C60  0874               	movf	??___xxtofl,w
  2605  0C61  07F9               	addwf	___xxtofl@exp,f
  2606  0C62  3001               	movlw	1
  2607  0C63                     u3385:	
  2608  0C63  1003               	clrc
  2609  0C64  0CFD               	rrf	___xxtofl@arg+3,f
  2610  0C65  0CFC               	rrf	___xxtofl@arg+2,f
  2611  0C66  0CFB               	rrf	___xxtofl@arg+1,f
  2612  0C67  0CFA               	rrf	___xxtofl@arg,f
  2613  0C68  3EFF               	addlw	-1
  2614  0C69  1D03               	skipz
  2615  0C6A  2C63               	goto	u3385
  2616  0C6B                     l2479:	
  2617  0C6B  30FE               	movlw	254
  2618  0C6C  057D               	andwf	___xxtofl@arg+3,w
  2619  0C6D  1D03               	btfss	3,2
  2620  0C6E  2C70               	goto	u3391
  2621  0C6F  2C71               	goto	u3390
  2622  0C70                     u3391:	
  2623  0C70  2C5E               	goto	l2477
  2624  0C71                     u3390:	
  2625  0C71  2C8D               	goto	l704
  2626  0C72                     l2481:	
  2627  0C72  3001               	movlw	1
  2628  0C73  00F4               	movwf	??___xxtofl
  2629  0C74  0874               	movf	??___xxtofl,w
  2630  0C75  07F9               	addwf	___xxtofl@exp,f
  2631  0C76                     l2483:	
  2632  0C76  3001               	movlw	1
  2633  0C77  07FA               	addwf	___xxtofl@arg,f
  2634  0C78  3000               	movlw	0
  2635  0C79  1803               	skipnc
  2636  0C7A  3001               	movlw	1
  2637  0C7B  07FB               	addwf	___xxtofl@arg+1,f
  2638  0C7C  3000               	movlw	0
  2639  0C7D  1803               	skipnc
  2640  0C7E  3001               	movlw	1
  2641  0C7F  07FC               	addwf	___xxtofl@arg+2,f
  2642  0C80  3000               	movlw	0
  2643  0C81  1803               	skipnc
  2644  0C82  3001               	movlw	1
  2645  0C83  07FD               	addwf	___xxtofl@arg+3,f
  2646  0C84                     l2485:	
  2647  0C84  3001               	movlw	1
  2648  0C85                     u3405:	
  2649  0C85  1003               	clrc
  2650  0C86  0CFD               	rrf	___xxtofl@arg+3,f
  2651  0C87  0CFC               	rrf	___xxtofl@arg+2,f
  2652  0C88  0CFB               	rrf	___xxtofl@arg+1,f
  2653  0C89  0CFA               	rrf	___xxtofl@arg,f
  2654  0C8A  3EFF               	addlw	-1
  2655  0C8B  1D03               	skipz
  2656  0C8C  2C85               	goto	u3405
  2657  0C8D                     l704:	
  2658  0C8D  30FF               	movlw	255
  2659  0C8E  057D               	andwf	___xxtofl@arg+3,w
  2660  0C8F  1D03               	btfss	3,2
  2661  0C90  2C92               	goto	u3411
  2662  0C91  2C93               	goto	u3410
  2663  0C92                     u3411:	
  2664  0C92  2C72               	goto	l2481
  2665  0C93                     u3410:	
  2666  0C93  2C9F               	goto	l2489
  2667  0C94                     l2487:	
  2668  0C94  3001               	movlw	1
  2669  0C95  02F9               	subwf	___xxtofl@exp,f
  2670  0C96  3001               	movlw	1
  2671  0C97  00F4               	movwf	??___xxtofl
  2672  0C98                     u3425:	
  2673  0C98  1003               	clrc
  2674  0C99  0DFA               	rlf	___xxtofl@arg,f
  2675  0C9A  0DFB               	rlf	___xxtofl@arg+1,f
  2676  0C9B  0DFC               	rlf	___xxtofl@arg+2,f
  2677  0C9C  0DFD               	rlf	___xxtofl@arg+3,f
  2678  0C9D  0BF4               	decfsz	??___xxtofl,f
  2679  0C9E  2C98               	goto	u3425
  2680  0C9F                     l2489:	
  2681  0C9F  1BFC               	btfsc	___xxtofl@arg+2,7
  2682  0CA0  2CA2               	goto	u3431
  2683  0CA1  2CA3               	goto	u3430
  2684  0CA2                     u3431:	
  2685  0CA2  2CA9               	goto	l711
  2686  0CA3                     u3430:	
  2687  0CA3                     l2491:	
  2688  0CA3  3002               	movlw	2
  2689  0CA4  0279               	subwf	___xxtofl@exp,w
  2690  0CA5  1803               	skipnc
  2691  0CA6  2CA8               	goto	u3441
  2692  0CA7  2CA9               	goto	u3440
  2693  0CA8                     u3441:	
  2694  0CA8  2C94               	goto	l2487
  2695  0CA9                     u3440:	
  2696  0CA9                     l711:	
  2697  0CA9  1879               	btfsc	___xxtofl@exp,0
  2698  0CAA  2CAC               	goto	u3451
  2699  0CAB  2CAD               	goto	u3450
  2700  0CAC                     u3451:	
  2701  0CAC  2CB5               	goto	l712
  2702  0CAD                     u3450:	
  2703  0CAD                     l2493:	
  2704  0CAD  30FF               	movlw	255
  2705  0CAE  05FA               	andwf	___xxtofl@arg,f
  2706  0CAF  30FF               	movlw	255
  2707  0CB0  05FB               	andwf	___xxtofl@arg+1,f
  2708  0CB1  307F               	movlw	127
  2709  0CB2  05FC               	andwf	___xxtofl@arg+2,f
  2710  0CB3  30FF               	movlw	255
  2711  0CB4  05FD               	andwf	___xxtofl@arg+3,f
  2712  0CB5                     l712:	
  2713  0CB5  1003               	clrc
  2714  0CB6  0CF9               	rrf	___xxtofl@exp,f
  2715  0CB7                     l2495:	
  2716  0CB7  0879               	movf	___xxtofl@exp,w
  2717  0CB8  00F4               	movwf	??___xxtofl
  2718  0CB9  01F5               	clrf	??___xxtofl+1
  2719  0CBA  01F6               	clrf	??___xxtofl+2
  2720  0CBB  01F7               	clrf	??___xxtofl+3
  2721  0CBC  3018               	movlw	24
  2722  0CBD                     u3465:	
  2723  0CBD  1003               	clrc
  2724  0CBE  0DF4               	rlf	??___xxtofl,f
  2725  0CBF  0DF5               	rlf	??___xxtofl+1,f
  2726  0CC0  0DF6               	rlf	??___xxtofl+2,f
  2727  0CC1  0DF7               	rlf	??___xxtofl+3,f
  2728  0CC2                     u3460:	
  2729  0CC2  3EFF               	addlw	-1
  2730  0CC3  1D03               	skipz
  2731  0CC4  2CBD               	goto	u3465
  2732  0CC5  0874               	movf	??___xxtofl,w
  2733  0CC6  04FA               	iorwf	___xxtofl@arg,f
  2734  0CC7  0875               	movf	??___xxtofl+1,w
  2735  0CC8  04FB               	iorwf	___xxtofl@arg+1,f
  2736  0CC9  0876               	movf	??___xxtofl+2,w
  2737  0CCA  04FC               	iorwf	___xxtofl@arg+2,f
  2738  0CCB  0877               	movf	??___xxtofl+3,w
  2739  0CCC  04FD               	iorwf	___xxtofl@arg+3,f
  2740  0CCD                     l2497:	
  2741  0CCD  0878               	movf	___xxtofl@sign,w
  2742  0CCE  1903               	btfsc	3,2
  2743  0CCF  2CD1               	goto	u3471
  2744  0CD0  2CD2               	goto	u3470
  2745  0CD1                     u3471:	
  2746  0CD1  2CD7               	goto	l2503
  2747  0CD2                     u3470:	
  2748  0CD2                     l2499:	
  2749  0CD2  1FF3               	btfss	___xxtofl@val+3,7
  2750  0CD3  2CD5               	goto	u3481
  2751  0CD4  2CD6               	goto	u3480
  2752  0CD5                     u3481:	
  2753  0CD5  2CD7               	goto	l2503
  2754  0CD6                     u3480:	
  2755  0CD6                     l2501:	
  2756  0CD6  17FD               	bsf	___xxtofl@arg+3,7
  2757  0CD7                     l2503:	
  2758  0CD7  087D               	movf	___xxtofl@arg+3,w
  2759  0CD8  00F3               	movwf	?___xxtofl+3
  2760  0CD9  087C               	movf	___xxtofl@arg+2,w
  2761  0CDA  00F2               	movwf	?___xxtofl+2
  2762  0CDB  087B               	movf	___xxtofl@arg+1,w
  2763  0CDC  00F1               	movwf	?___xxtofl+1
  2764  0CDD  087A               	movf	___xxtofl@arg,w
  2765  0CDE  00F0               	movwf	?___xxtofl
  2766  0CDF                     l700:	
  2767  0CDF  0008               	return
  2768  0CE0                     __end_of___xxtofl:	
  2769                           
  2770                           	psect	text8
  2771  0BAC                     __ptext8:	
  2772 ;; *************** function ___fltol *****************
  2773 ;; Defined at:
  2774 ;;		line 43 in file "C:\Program Files (x86)\Microchip\xc8\v2.10\pic\sources\c90\common\fltol.c"
  2775 ;; Parameters:    Size  Location     Type
  2776 ;;  f1              4    0[COMMON] unsigned char 
  2777 ;; Auto vars:     Size  Location     Type
  2778 ;;  exp1            1   10[COMMON] unsigned char 
  2779 ;;  sign1           1    9[COMMON] unsigned char 
  2780 ;; Return value:  Size  Location     Type
  2781 ;;                  4    0[COMMON] long 
  2782 ;; Registers used:
  2783 ;;		wreg, status,2, status,0
  2784 ;; Tracked objects:
  2785 ;;		On entry : 0/0
  2786 ;;		On exit  : 0/0
  2787 ;;		Unchanged: 0/0
  2788 ;; Data sizes:     COMMON   BANK0   BANK1   BANK3   BANK2
  2789 ;;      Params:         4       0       0       0       0
  2790 ;;      Locals:         2       0       0       0       0
  2791 ;;      Temps:          5       0       0       0       0
  2792 ;;      Totals:        11       0       0       0       0
  2793 ;;Total ram usage:       11 bytes
  2794 ;; Hardware stack levels used:    1
  2795 ;; This function calls:
  2796 ;;		Nothing
  2797 ;; This function is called by:
  2798 ;;		_main
  2799 ;; This function uses a non-reentrant model
  2800 ;;
  2801                           
  2802                           
  2803                           ;psect for function ___fltol
  2804  0BAC                     ___fltol:	
  2805  0BAC                     l2139:	
  2806                           ;incstack = 0
  2807                           ; Regs used in ___fltol: [wreg+status,2+status,0]
  2808                           
  2809  0BAC  1003               	clrc
  2810  0BAD  0D72               	rlf	___fltol@f1+2,w
  2811  0BAE  0D73               	rlf	___fltol@f1+3,w
  2812  0BAF  00F4               	movwf	??___fltol
  2813  0BB0  0874               	movf	??___fltol,w
  2814  0BB1  00FA               	movwf	___fltol@exp1
  2815  0BB2  087A               	movf	___fltol@exp1,w
  2816  0BB3  1D03               	btfss	3,2
  2817  0BB4  2BB6               	goto	u2591
  2818  0BB5  2BB7               	goto	u2590
  2819  0BB6                     u2591:	
  2820  0BB6  2BC0               	goto	l2145
  2821  0BB7                     u2590:	
  2822  0BB7                     l2141:	
  2823  0BB7  3000               	movlw	0
  2824  0BB8  00F3               	movwf	?___fltol+3
  2825  0BB9  3000               	movlw	0
  2826  0BBA  00F2               	movwf	?___fltol+2
  2827  0BBB  3000               	movlw	0
  2828  0BBC  00F1               	movwf	?___fltol+1
  2829  0BBD  3000               	movlw	0
  2830  0BBE  00F0               	movwf	?___fltol
  2831  0BBF  2C25               	goto	l457
  2832  0BC0                     l2145:	
  2833  0BC0  0870               	movf	___fltol@f1,w
  2834  0BC1  00F4               	movwf	??___fltol
  2835  0BC2  0871               	movf	___fltol@f1+1,w
  2836  0BC3  00F5               	movwf	??___fltol+1
  2837  0BC4  0872               	movf	___fltol@f1+2,w
  2838  0BC5  00F6               	movwf	??___fltol+2
  2839  0BC6  0873               	movf	___fltol@f1+3,w
  2840  0BC7  00F7               	movwf	??___fltol+3
  2841  0BC8  301F               	movlw	31
  2842  0BC9                     u2605:	
  2843  0BC9  1003               	clrc
  2844  0BCA  0CF7               	rrf	??___fltol+3,f
  2845  0BCB  0CF6               	rrf	??___fltol+2,f
  2846  0BCC  0CF5               	rrf	??___fltol+1,f
  2847  0BCD  0CF4               	rrf	??___fltol,f
  2848  0BCE                     u2600:	
  2849  0BCE  3EFF               	addlw	-1
  2850  0BCF  1D03               	skipz
  2851  0BD0  2BC9               	goto	u2605
  2852  0BD1  0874               	movf	??___fltol,w
  2853  0BD2  00F8               	movwf	??___fltol+4
  2854  0BD3  0878               	movf	??___fltol+4,w
  2855  0BD4  00F9               	movwf	___fltol@sign1
  2856  0BD5                     l2147:	
  2857  0BD5  17F2               	bsf	___fltol@f1+2,7
  2858  0BD6                     l2149:	
  2859  0BD6  30FF               	movlw	255
  2860  0BD7  05F0               	andwf	___fltol@f1,f
  2861  0BD8  30FF               	movlw	255
  2862  0BD9  05F1               	andwf	___fltol@f1+1,f
  2863  0BDA  30FF               	movlw	255
  2864  0BDB  05F2               	andwf	___fltol@f1+2,f
  2865  0BDC  3000               	movlw	0
  2866  0BDD  05F3               	andwf	___fltol@f1+3,f
  2867  0BDE                     l2151:	
  2868  0BDE  3096               	movlw	150
  2869  0BDF  02FA               	subwf	___fltol@exp1,f
  2870  0BE0                     l2153:	
  2871  0BE0  1FFA               	btfss	___fltol@exp1,7
  2872  0BE1  2BE3               	goto	u2611
  2873  0BE2  2BE4               	goto	u2610
  2874  0BE3                     u2611:	
  2875  0BE3  2BFE               	goto	l2163
  2876  0BE4                     u2610:	
  2877  0BE4                     l2155:	
  2878  0BE4  087A               	movf	___fltol@exp1,w
  2879  0BE5  3A80               	xorlw	128
  2880  0BE6  3E97               	addlw	151
  2881  0BE7  1803               	skipnc
  2882  0BE8  2BEA               	goto	u2621
  2883  0BE9  2BEB               	goto	u2620
  2884  0BEA                     u2621:	
  2885  0BEA  2BEC               	goto	l2161
  2886  0BEB                     u2620:	
  2887  0BEB  2BB7               	goto	l2141
  2888  0BEC                     l2161:	
  2889  0BEC  3001               	movlw	1
  2890  0BED                     u2635:	
  2891  0BED  1003               	clrc
  2892  0BEE  0CF3               	rrf	___fltol@f1+3,f
  2893  0BEF  0CF2               	rrf	___fltol@f1+2,f
  2894  0BF0  0CF1               	rrf	___fltol@f1+1,f
  2895  0BF1  0CF0               	rrf	___fltol@f1,f
  2896  0BF2  3EFF               	addlw	-1
  2897  0BF3  1D03               	skipz
  2898  0BF4  2BED               	goto	u2635
  2899  0BF5  3001               	movlw	1
  2900  0BF6  00F4               	movwf	??___fltol
  2901  0BF7  0874               	movf	??___fltol,w
  2902  0BF8  07FA               	addwf	___fltol@exp1,f
  2903  0BF9  1D03               	btfss	3,2
  2904  0BFA  2BFC               	goto	u2641
  2905  0BFB  2BFD               	goto	u2640
  2906  0BFC                     u2641:	
  2907  0BFC  2BEC               	goto	l2161
  2908  0BFD                     u2640:	
  2909  0BFD  2C15               	goto	l2171
  2910  0BFE                     l2163:	
  2911  0BFE  3020               	movlw	32
  2912  0BFF  027A               	subwf	___fltol@exp1,w
  2913  0C00  1C03               	skipc
  2914  0C01  2C03               	goto	u2651
  2915  0C02  2C04               	goto	u2650
  2916  0C03                     u2651:	
  2917  0C03  2C10               	goto	l464
  2918  0C04                     u2650:	
  2919  0C04  2BB7               	goto	l2141
  2920  0C05                     l2169:	
  2921  0C05  3001               	movlw	1
  2922  0C06  00F4               	movwf	??___fltol
  2923  0C07                     u2665:	
  2924  0C07  1003               	clrc
  2925  0C08  0DF0               	rlf	___fltol@f1,f
  2926  0C09  0DF1               	rlf	___fltol@f1+1,f
  2927  0C0A  0DF2               	rlf	___fltol@f1+2,f
  2928  0C0B  0DF3               	rlf	___fltol@f1+3,f
  2929  0C0C  0BF4               	decfsz	??___fltol,f
  2930  0C0D  2C07               	goto	u2665
  2931  0C0E  3001               	movlw	1
  2932  0C0F  02FA               	subwf	___fltol@exp1,f
  2933  0C10                     l464:	
  2934  0C10  087A               	movf	___fltol@exp1,w
  2935  0C11  1D03               	btfss	3,2
  2936  0C12  2C14               	goto	u2671
  2937  0C13  2C15               	goto	u2670
  2938  0C14                     u2671:	
  2939  0C14  2C05               	goto	l2169
  2940  0C15                     u2670:	
  2941  0C15                     l2171:	
  2942  0C15  0879               	movf	___fltol@sign1,w
  2943  0C16  1903               	btfsc	3,2
  2944  0C17  2C19               	goto	u2681
  2945  0C18  2C1A               	goto	u2680
  2946  0C19                     u2681:	
  2947  0C19  2C25               	goto	l467
  2948  0C1A                     u2680:	
  2949  0C1A                     l2173:	
  2950  0C1A  09F0               	comf	___fltol@f1,f
  2951  0C1B  09F1               	comf	___fltol@f1+1,f
  2952  0C1C  09F2               	comf	___fltol@f1+2,f
  2953  0C1D  09F3               	comf	___fltol@f1+3,f
  2954  0C1E  0AF0               	incf	___fltol@f1,f
  2955  0C1F  1903               	skipnz
  2956  0C20  0AF1               	incf	___fltol@f1+1,f
  2957  0C21  1903               	skipnz
  2958  0C22  0AF2               	incf	___fltol@f1+2,f
  2959  0C23  1903               	skipnz
  2960  0C24  0AF3               	incf	___fltol@f1+3,f
  2961  0C25                     l467:	
  2962  0C25                     l457:	
  2963  0C25  0008               	return
  2964  0C26                     __end_of___fltol:	
  2965                           
  2966                           	psect	text9
  2967  099B                     __ptext9:	
  2968 ;; *************** function ___flsub *****************
  2969 ;; Defined at:
  2970 ;;		line 242 in file "C:\Program Files (x86)\Microchip\xc8\v2.10\pic\sources\c90\common\sprcadd.c"
  2971 ;; Parameters:    Size  Location     Type
  2972 ;;  a               4    8[BANK0 ] long 
  2973 ;;  b               4   12[BANK0 ] long 
  2974 ;; Auto vars:     Size  Location     Type
  2975 ;;		None
  2976 ;; Return value:  Size  Location     Type
  2977 ;;                  4    8[BANK0 ] long 
  2978 ;; Registers used:
  2979 ;;		wreg, status,2, status,0, btemp+1, pclath, cstack
  2980 ;; Tracked objects:
  2981 ;;		On entry : 0/0
  2982 ;;		On exit  : 0/0
  2983 ;;		Unchanged: 0/0
  2984 ;; Data sizes:     COMMON   BANK0   BANK1   BANK3   BANK2
  2985 ;;      Params:         0       8       0       0       0
  2986 ;;      Locals:         0       0       0       0       0
  2987 ;;      Temps:          0       0       0       0       0
  2988 ;;      Totals:         0       8       0       0       0
  2989 ;;Total ram usage:        8 bytes
  2990 ;; Hardware stack levels used:    1
  2991 ;; Hardware stack levels required when called:    1
  2992 ;; This function calls:
  2993 ;;		___fladd
  2994 ;; This function is called by:
  2995 ;;		_main
  2996 ;; This function uses a non-reentrant model
  2997 ;;
  2998                           
  2999                           
  3000                           ;psect for function ___flsub
  3001  099B                     ___flsub:	
  3002  099B                     l2175:	
  3003                           ;incstack = 0
  3004                           ; Regs used in ___flsub: [wreg+status,2+status,0+btemp+1+pclath+cstack]
  3005                           
  3006  099B  3080               	movlw	128
  3007  099C  1283               	bcf	3,5	;RP0=0, select bank0
  3008  099D  1303               	bcf	3,6	;RP1=0, select bank0
  3009  099E  06AB               	xorwf	___flsub@a+3,f
  3010  099F                     l2177:	
  3011  099F  082F               	movf	___flsub@b+3,w
  3012  09A0  00F3               	movwf	___fladd@b+3
  3013  09A1  082E               	movf	___flsub@b+2,w
  3014  09A2  00F2               	movwf	___fladd@b+2
  3015  09A3  082D               	movf	___flsub@b+1,w
  3016  09A4  00F1               	movwf	___fladd@b+1
  3017  09A5  082C               	movf	___flsub@b,w
  3018  09A6  00F0               	movwf	___fladd@b
  3019  09A7  082B               	movf	___flsub@a+3,w
  3020  09A8  00F7               	movwf	___fladd@a+3
  3021  09A9  082A               	movf	___flsub@a+2,w
  3022  09AA  00F6               	movwf	___fladd@a+2
  3023  09AB  0829               	movf	___flsub@a+1,w
  3024  09AC  00F5               	movwf	___fladd@a+1
  3025  09AD  0828               	movf	___flsub@a,w
  3026  09AE  00F4               	movwf	___fladd@a
  3027  09AF  120A  118A  21EB  120A  158A  	fcall	___fladd
  3028  09B4  0873               	movf	?___fladd+3,w
  3029  09B5  1283               	bcf	3,5	;RP0=0, select bank0
  3030  09B6  1303               	bcf	3,6	;RP1=0, select bank0
  3031  09B7  00AB               	movwf	?___flsub+3
  3032  09B8  0872               	movf	?___fladd+2,w
  3033  09B9  00AA               	movwf	?___flsub+2
  3034  09BA  0871               	movf	?___fladd+1,w
  3035  09BB  00A9               	movwf	?___flsub+1
  3036  09BC  0870               	movf	?___fladd,w
  3037  09BD  00A8               	movwf	?___flsub
  3038  09BE                     l610:	
  3039  09BE  0008               	return
  3040  09BF                     __end_of___flsub:	
  3041                           
  3042                           	psect	text10
  3043  01EB                     __ptext10:	
  3044 ;; *************** function ___fladd *****************
  3045 ;; Defined at:
  3046 ;;		line 10 in file "C:\Program Files (x86)\Microchip\xc8\v2.10\pic\sources\c90\common\sprcadd.c"
  3047 ;; Parameters:    Size  Location     Type
  3048 ;;  b               4    0[COMMON] long 
  3049 ;;  a               4    4[COMMON] long 
  3050 ;; Auto vars:     Size  Location     Type
  3051 ;;  grs             1   11[COMMON] unsigned char 
  3052 ;;  bexp            1   10[COMMON] unsigned char 
  3053 ;;  aexp            1    9[COMMON] unsigned char 
  3054 ;;  signs           1    8[COMMON] unsigned char 
  3055 ;; Return value:  Size  Location     Type
  3056 ;;                  4    0[COMMON] unsigned char 
  3057 ;; Registers used:
  3058 ;;		wreg, status,2, status,0, btemp+1
  3059 ;; Tracked objects:
  3060 ;;		On entry : 0/0
  3061 ;;		On exit  : 0/0
  3062 ;;		Unchanged: 0/0
  3063 ;; Data sizes:     COMMON   BANK0   BANK1   BANK3   BANK2
  3064 ;;      Params:         8       0       0       0       0
  3065 ;;      Locals:         4       0       0       0       0
  3066 ;;      Temps:          0       8       0       0       0
  3067 ;;      Totals:        12       8       0       0       0
  3068 ;;Total ram usage:       20 bytes
  3069 ;; Hardware stack levels used:    1
  3070 ;; This function calls:
  3071 ;;		Nothing
  3072 ;; This function is called by:
  3073 ;;		___flsub
  3074 ;; This function uses a non-reentrant model
  3075 ;;
  3076                           
  3077                           
  3078                           ;psect for function ___fladd
  3079  01EB                     ___fladd:	
  3080  01EB                     l1795:	
  3081                           ;incstack = 0
  3082                           ; Regs used in ___fladd: [wreg+status,2+status,0+btemp+1]
  3083                           
  3084  01EB  0873               	movf	___fladd@b+3,w
  3085  01EC  3980               	andlw	128
  3086  01ED  1283               	bcf	3,5	;RP0=0, select bank0
  3087  01EE  1303               	bcf	3,6	;RP1=0, select bank0
  3088  01EF  00A0               	movwf	??___fladd
  3089  01F0  0820               	movf	??___fladd,w
  3090  01F1  00F8               	movwf	___fladd@signs
  3091  01F2                     l1797:	
  3092  01F2  0873               	movf	___fladd@b+3,w
  3093  01F3  00A0               	movwf	??___fladd
  3094  01F4  0720               	addwf	??___fladd,w
  3095  01F5  00A1               	movwf	??___fladd+1
  3096  01F6  0821               	movf	??___fladd+1,w
  3097  01F7  00FA               	movwf	___fladd@bexp
  3098  01F8                     l1799:	
  3099  01F8  1FF2               	btfss	___fladd@b+2,7
  3100  01F9  29FB               	goto	u1991
  3101  01FA  29FC               	goto	u1990
  3102  01FB                     u1991:	
  3103  01FB  29FD               	goto	l1803
  3104  01FC                     u1990:	
  3105  01FC                     l1801:	
  3106  01FC  147A               	bsf	___fladd@bexp,0
  3107  01FD                     l1803:	
  3108  01FD  087A               	movf	___fladd@bexp,w
  3109  01FE  1903               	btfsc	3,2
  3110  01FF  2A01               	goto	u2001
  3111  0200  2A02               	goto	u2000
  3112  0201                     u2001:	
  3113  0201  2A12               	goto	l1813
  3114  0202                     u2000:	
  3115  0202                     l1805:	
  3116  0202  0A7A               	incf	___fladd@bexp,w
  3117  0203  1D03               	btfss	3,2
  3118  0204  2A06               	goto	u2011
  3119  0205  2A07               	goto	u2010
  3120  0206                     u2011:	
  3121  0206  2A0F               	goto	l1809
  3122  0207                     u2010:	
  3123  0207                     l1807:	
  3124  0207  3000               	movlw	0
  3125  0208  00F3               	movwf	___fladd@b+3
  3126  0209  3000               	movlw	0
  3127  020A  00F2               	movwf	___fladd@b+2
  3128  020B  3000               	movlw	0
  3129  020C  00F1               	movwf	___fladd@b+1
  3130  020D  3000               	movlw	0
  3131  020E  00F0               	movwf	___fladd@b
  3132  020F                     l1809:	
  3133  020F  17F2               	bsf	___fladd@b+2,7
  3134  0210                     l1811:	
  3135  0210  01F3               	clrf	___fladd@b+3
  3136  0211  2A1A               	goto	l1815
  3137  0212                     l1813:	
  3138  0212  3000               	movlw	0
  3139  0213  00F3               	movwf	___fladd@b+3
  3140  0214  3000               	movlw	0
  3141  0215  00F2               	movwf	___fladd@b+2
  3142  0216  3000               	movlw	0
  3143  0217  00F1               	movwf	___fladd@b+1
  3144  0218  3000               	movlw	0
  3145  0219  00F0               	movwf	___fladd@b
  3146  021A                     l1815:	
  3147  021A  0877               	movf	___fladd@a+3,w
  3148  021B  3980               	andlw	128
  3149  021C  00A0               	movwf	??___fladd
  3150  021D  0820               	movf	??___fladd,w
  3151  021E  00F9               	movwf	___fladd@aexp
  3152  021F                     l1817:	
  3153  021F  0879               	movf	___fladd@aexp,w
  3154  0220  0678               	xorwf	___fladd@signs,w
  3155  0221  1903               	skipnz
  3156  0222  2A24               	goto	u2021
  3157  0223  2A25               	goto	u2020
  3158  0224                     u2021:	
  3159  0224  2A26               	goto	l1821
  3160  0225                     u2020:	
  3161  0225                     l1819:	
  3162  0225  1778               	bsf	___fladd@signs,6
  3163  0226                     l1821:	
  3164  0226  0877               	movf	___fladd@a+3,w
  3165  0227  00A0               	movwf	??___fladd
  3166  0228  0720               	addwf	??___fladd,w
  3167  0229  00A1               	movwf	??___fladd+1
  3168  022A  0821               	movf	??___fladd+1,w
  3169  022B  00F9               	movwf	___fladd@aexp
  3170  022C                     l1823:	
  3171  022C  1FF6               	btfss	___fladd@a+2,7
  3172  022D  2A2F               	goto	u2031
  3173  022E  2A30               	goto	u2030
  3174  022F                     u2031:	
  3175  022F  2A31               	goto	l1827
  3176  0230                     u2030:	
  3177  0230                     l1825:	
  3178  0230  1479               	bsf	___fladd@aexp,0
  3179  0231                     l1827:	
  3180  0231  0879               	movf	___fladd@aexp,w
  3181  0232  1903               	btfsc	3,2
  3182  0233  2A35               	goto	u2041
  3183  0234  2A36               	goto	u2040
  3184  0235                     u2041:	
  3185  0235  2A46               	goto	l1837
  3186  0236                     u2040:	
  3187  0236                     l1829:	
  3188  0236  0A79               	incf	___fladd@aexp,w
  3189  0237  1D03               	btfss	3,2
  3190  0238  2A3A               	goto	u2051
  3191  0239  2A3B               	goto	u2050
  3192  023A                     u2051:	
  3193  023A  2A43               	goto	l1833
  3194  023B                     u2050:	
  3195  023B                     l1831:	
  3196  023B  3000               	movlw	0
  3197  023C  00F7               	movwf	___fladd@a+3
  3198  023D  3000               	movlw	0
  3199  023E  00F6               	movwf	___fladd@a+2
  3200  023F  3000               	movlw	0
  3201  0240  00F5               	movwf	___fladd@a+1
  3202  0241  3000               	movlw	0
  3203  0242  00F4               	movwf	___fladd@a
  3204  0243                     l1833:	
  3205  0243  17F6               	bsf	___fladd@a+2,7
  3206  0244                     l1835:	
  3207  0244  01F7               	clrf	___fladd@a+3
  3208  0245  2A4E               	goto	l564
  3209  0246                     l1837:	
  3210  0246  3000               	movlw	0
  3211  0247  00F7               	movwf	___fladd@a+3
  3212  0248  3000               	movlw	0
  3213  0249  00F6               	movwf	___fladd@a+2
  3214  024A  3000               	movlw	0
  3215  024B  00F5               	movwf	___fladd@a+1
  3216  024C  3000               	movlw	0
  3217  024D  00F4               	movwf	___fladd@a
  3218  024E                     l564:	
  3219  024E  087A               	movf	___fladd@bexp,w
  3220  024F  0279               	subwf	___fladd@aexp,w
  3221  0250  1803               	skipnc
  3222  0251  2A53               	goto	u2061
  3223  0252  2A54               	goto	u2060
  3224  0253                     u2061:	
  3225  0253  2A98               	goto	l1873
  3226  0254                     u2060:	
  3227  0254                     l1839:	
  3228  0254  1F78               	btfss	___fladd@signs,6
  3229  0255  2A57               	goto	u2071
  3230  0256  2A58               	goto	u2070
  3231  0257                     u2071:	
  3232  0257  2A5C               	goto	l1843
  3233  0258                     u2070:	
  3234  0258                     l1841:	
  3235  0258  3080               	movlw	128
  3236  0259  00A0               	movwf	??___fladd
  3237  025A  0820               	movf	??___fladd,w
  3238  025B  06F8               	xorwf	___fladd@signs,f
  3239  025C                     l1843:	
  3240  025C  087A               	movf	___fladd@bexp,w
  3241  025D  00A0               	movwf	??___fladd
  3242  025E  0820               	movf	??___fladd,w
  3243  025F  00FB               	movwf	___fladd@grs
  3244  0260                     l1845:	
  3245  0260  0879               	movf	___fladd@aexp,w
  3246  0261  00A0               	movwf	??___fladd
  3247  0262  0820               	movf	??___fladd,w
  3248  0263  00FA               	movwf	___fladd@bexp
  3249  0264                     l1847:	
  3250  0264  087B               	movf	___fladd@grs,w
  3251  0265  00A0               	movwf	??___fladd
  3252  0266  0820               	movf	??___fladd,w
  3253  0267  00F9               	movwf	___fladd@aexp
  3254  0268                     l1849:	
  3255  0268  0870               	movf	___fladd@b,w
  3256  0269  00A0               	movwf	??___fladd
  3257  026A  0820               	movf	??___fladd,w
  3258  026B  00FB               	movwf	___fladd@grs
  3259  026C                     l1851:	
  3260  026C  0874               	movf	___fladd@a,w
  3261  026D  00A0               	movwf	??___fladd
  3262  026E  0820               	movf	??___fladd,w
  3263  026F  00F0               	movwf	___fladd@b
  3264  0270                     l1853:	
  3265  0270  087B               	movf	___fladd@grs,w
  3266  0271  00A0               	movwf	??___fladd
  3267  0272  0820               	movf	??___fladd,w
  3268  0273  00F4               	movwf	___fladd@a
  3269  0274                     l1855:	
  3270  0274  0871               	movf	___fladd@b+1,w
  3271  0275  00A0               	movwf	??___fladd
  3272  0276  0820               	movf	??___fladd,w
  3273  0277  00FB               	movwf	___fladd@grs
  3274  0278                     l1857:	
  3275  0278  0875               	movf	___fladd@a+1,w
  3276  0279  00A0               	movwf	??___fladd
  3277  027A  0820               	movf	??___fladd,w
  3278  027B  00F1               	movwf	___fladd@b+1
  3279  027C                     l1859:	
  3280  027C  087B               	movf	___fladd@grs,w
  3281  027D  00A0               	movwf	??___fladd
  3282  027E  0820               	movf	??___fladd,w
  3283  027F  00F5               	movwf	___fladd@a+1
  3284  0280                     l1861:	
  3285  0280  0872               	movf	___fladd@b+2,w
  3286  0281  00A0               	movwf	??___fladd
  3287  0282  0820               	movf	??___fladd,w
  3288  0283  00FB               	movwf	___fladd@grs
  3289  0284                     l1863:	
  3290  0284  0876               	movf	___fladd@a+2,w
  3291  0285  00A0               	movwf	??___fladd
  3292  0286  0820               	movf	??___fladd,w
  3293  0287  00F2               	movwf	___fladd@b+2
  3294  0288                     l1865:	
  3295  0288  087B               	movf	___fladd@grs,w
  3296  0289  00A0               	movwf	??___fladd
  3297  028A  0820               	movf	??___fladd,w
  3298  028B  00F6               	movwf	___fladd@a+2
  3299  028C                     l1867:	
  3300  028C  0873               	movf	___fladd@b+3,w
  3301  028D  00A0               	movwf	??___fladd
  3302  028E  0820               	movf	??___fladd,w
  3303  028F  00FB               	movwf	___fladd@grs
  3304  0290                     l1869:	
  3305  0290  0877               	movf	___fladd@a+3,w
  3306  0291  00A0               	movwf	??___fladd
  3307  0292  0820               	movf	??___fladd,w
  3308  0293  00F3               	movwf	___fladd@b+3
  3309  0294                     l1871:	
  3310  0294  087B               	movf	___fladd@grs,w
  3311  0295  00A0               	movwf	??___fladd
  3312  0296  0820               	movf	??___fladd,w
  3313  0297  00F7               	movwf	___fladd@a+3
  3314  0298                     l1873:	
  3315  0298  01FB               	clrf	___fladd@grs
  3316  0299                     l1875:	
  3317  0299  0879               	movf	___fladd@aexp,w
  3318  029A  00A0               	movwf	??___fladd
  3319  029B  01A1               	clrf	??___fladd+1
  3320  029C  0821               	movf	??___fladd+1,w
  3321  029D  00A3               	movwf	??___fladd+3
  3322  029E  087A               	movf	___fladd@bexp,w
  3323  029F  0220               	subwf	??___fladd,w
  3324  02A0  00A2               	movwf	??___fladd+2
  3325  02A1  1C03               	skipc
  3326  02A2  03A3               	decf	??___fladd+3,f
  3327  02A3  0823               	movf	??___fladd+3,w
  3328  02A4  3A80               	xorlw	128
  3329  02A5  00FF               	movwf	btemp+1
  3330  02A6  3080               	movlw	128
  3331  02A7  027F               	subwf	btemp+1,w
  3332  02A8  1D03               	skipz
  3333  02A9  2AAC               	goto	u2085
  3334  02AA  301A               	movlw	26
  3335  02AB  0222               	subwf	??___fladd+2,w
  3336  02AC                     u2085:	
  3337  02AC  1C03               	skipc
  3338  02AD  2AAF               	goto	u2081
  3339  02AE  2AB0               	goto	u2080
  3340  02AF                     u2081:	
  3341  02AF  2AF1               	goto	l1891
  3342  02B0                     u2080:	
  3343  02B0                     l1877:	
  3344  02B0  0873               	movf	___fladd@b+3,w
  3345  02B1  0472               	iorwf	___fladd@b+2,w
  3346  02B2  0471               	iorwf	___fladd@b+1,w
  3347  02B3  0470               	iorwf	___fladd@b,w
  3348  02B4  1D03               	skipz
  3349  02B5  2AB7               	goto	u2091
  3350  02B6  2AB9               	goto	u2090
  3351  02B7                     u2091:	
  3352  02B7  3001               	movlw	1
  3353  02B8  2ABA               	goto	u2100
  3354  02B9                     u2090:	
  3355  02B9  3000               	movlw	0
  3356  02BA                     u2100:	
  3357  02BA  1283               	bcf	3,5	;RP0=0, select bank0
  3358  02BB  1303               	bcf	3,6	;RP1=0, select bank0
  3359  02BC  00A0               	movwf	??___fladd
  3360  02BD  0820               	movf	??___fladd,w
  3361  02BE  00FB               	movwf	___fladd@grs
  3362  02BF  3000               	movlw	0
  3363  02C0  00F3               	movwf	___fladd@b+3
  3364  02C1  3000               	movlw	0
  3365  02C2  00F2               	movwf	___fladd@b+2
  3366  02C3  3000               	movlw	0
  3367  02C4  00F1               	movwf	___fladd@b+1
  3368  02C5  3000               	movlw	0
  3369  02C6  00F0               	movwf	___fladd@b
  3370  02C7  0879               	movf	___fladd@aexp,w
  3371  02C8  00A0               	movwf	??___fladd
  3372  02C9  0820               	movf	??___fladd,w
  3373  02CA  00FA               	movwf	___fladd@bexp
  3374  02CB  2AF7               	goto	l568
  3375  02CC                     l570:	
  3376  02CC  1C7B               	btfss	___fladd@grs,0
  3377  02CD  2ACF               	goto	u2111
  3378  02CE  2AD0               	goto	u2110
  3379  02CF                     u2111:	
  3380  02CF  2ADB               	goto	l1881
  3381  02D0                     u2110:	
  3382  02D0                     l1879:	
  3383  02D0  087B               	movf	___fladd@grs,w
  3384  02D1  1283               	bcf	3,5	;RP0=0, select bank0
  3385  02D2  1303               	bcf	3,6	;RP1=0, select bank0
  3386  02D3  00A0               	movwf	??___fladd
  3387  02D4  1003               	clrc
  3388  02D5  0C20               	rrf	??___fladd,w
  3389  02D6  3801               	iorlw	1
  3390  02D7  00A1               	movwf	??___fladd+1
  3391  02D8  0821               	movf	??___fladd+1,w
  3392  02D9  00FB               	movwf	___fladd@grs
  3393  02DA  2ADD               	goto	l1883
  3394  02DB                     l1881:	
  3395  02DB  1003               	clrc
  3396  02DC  0CFB               	rrf	___fladd@grs,f
  3397  02DD                     l1883:	
  3398  02DD  1C70               	btfss	___fladd@b,0
  3399  02DE  2AE0               	goto	u2121
  3400  02DF  2AE1               	goto	u2120
  3401  02E0                     u2121:	
  3402  02E0  2AE2               	goto	l1887
  3403  02E1                     u2120:	
  3404  02E1                     l1885:	
  3405  02E1  17FB               	bsf	___fladd@grs,7
  3406  02E2                     l1887:	
  3407  02E2  3001               	movlw	1
  3408  02E3  1283               	bcf	3,5	;RP0=0, select bank0
  3409  02E4  1303               	bcf	3,6	;RP1=0, select bank0
  3410  02E5  00A0               	movwf	??___fladd
  3411  02E6                     u2135:	
  3412  02E6  0D73               	rlf	___fladd@b+3,w
  3413  02E7  0CF3               	rrf	___fladd@b+3,f
  3414  02E8  0CF2               	rrf	___fladd@b+2,f
  3415  02E9  0CF1               	rrf	___fladd@b+1,f
  3416  02EA  0CF0               	rrf	___fladd@b,f
  3417  02EB  0BA0               	decfsz	??___fladd& (0+127),f
  3418  02EC  2AE6               	goto	u2135
  3419  02ED                     l1889:	
  3420  02ED  3001               	movlw	1
  3421  02EE  00A0               	movwf	??___fladd
  3422  02EF  0820               	movf	??___fladd,w
  3423  02F0  07FA               	addwf	___fladd@bexp,f
  3424  02F1                     l1891:	
  3425  02F1  0879               	movf	___fladd@aexp,w
  3426  02F2  027A               	subwf	___fladd@bexp,w
  3427  02F3  1C03               	skipc
  3428  02F4  2AF6               	goto	u2141
  3429  02F5  2AF7               	goto	u2140
  3430  02F6                     u2141:	
  3431  02F6  2ACC               	goto	l570
  3432  02F7                     u2140:	
  3433  02F7                     l568:	
  3434  02F7  1B78               	btfsc	___fladd@signs,6
  3435  02F8  2AFA               	goto	u2151
  3436  02F9  2AFB               	goto	u2150
  3437  02FA                     u2151:	
  3438  02FA  2B4A               	goto	l1917
  3439  02FB                     u2150:	
  3440  02FB                     l1893:	
  3441  02FB  087A               	movf	___fladd@bexp,w
  3442  02FC  1D03               	btfss	3,2
  3443  02FD  2AFF               	goto	u2161
  3444  02FE  2B00               	goto	u2160
  3445  02FF                     u2161:	
  3446  02FF  2B09               	goto	l1899
  3447  0300                     u2160:	
  3448  0300                     l1895:	
  3449  0300  3000               	movlw	0
  3450  0301  00F3               	movwf	?___fladd+3
  3451  0302  3000               	movlw	0
  3452  0303  00F2               	movwf	?___fladd+2
  3453  0304  3000               	movlw	0
  3454  0305  00F1               	movwf	?___fladd+1
  3455  0306  3000               	movlw	0
  3456  0307  00F0               	movwf	?___fladd
  3457  0308  2C82               	goto	l577
  3458  0309                     l1899:	
  3459  0309  0874               	movf	___fladd@a,w
  3460  030A  07F0               	addwf	___fladd@b,f
  3461  030B  0875               	movf	___fladd@a+1,w
  3462  030C  1103               	clrz
  3463  030D  1803               	skipnc
  3464  030E  3E01               	addlw	1
  3465  030F  1903               	skipnz
  3466  0310  2B12               	goto	u2171
  3467  0311  07F1               	addwf	___fladd@b+1,f
  3468  0312                     u2171:	
  3469  0312  0876               	movf	___fladd@a+2,w
  3470  0313  1103               	clrz
  3471  0314  1803               	skipnc
  3472  0315  3E01               	addlw	1
  3473  0316  1903               	skipnz
  3474  0317  2B19               	goto	u2172
  3475  0318  07F2               	addwf	___fladd@b+2,f
  3476  0319                     u2172:	
  3477  0319  0877               	movf	___fladd@a+3,w
  3478  031A  1103               	clrz
  3479  031B  1803               	skipnc
  3480  031C  3E01               	addlw	1
  3481  031D  1903               	skipnz
  3482  031E  2B20               	goto	u2173
  3483  031F  07F3               	addwf	___fladd@b+3,f
  3484  0320                     u2173:	
  3485  0320                     l1901:	
  3486  0320  1C73               	btfss	___fladd@b+3,0
  3487  0321  2B23               	goto	u2181
  3488  0322  2B24               	goto	u2180
  3489  0323                     u2181:	
  3490  0323  2C02               	goto	l1951
  3491  0324                     u2180:	
  3492  0324                     l1903:	
  3493  0324  1C7B               	btfss	___fladd@grs,0
  3494  0325  2B27               	goto	u2191
  3495  0326  2B28               	goto	u2190
  3496  0327                     u2191:	
  3497  0327  2B33               	goto	l1907
  3498  0328                     u2190:	
  3499  0328                     l1905:	
  3500  0328  087B               	movf	___fladd@grs,w
  3501  0329  1283               	bcf	3,5	;RP0=0, select bank0
  3502  032A  1303               	bcf	3,6	;RP1=0, select bank0
  3503  032B  00A0               	movwf	??___fladd
  3504  032C  1003               	clrc
  3505  032D  0C20               	rrf	??___fladd,w
  3506  032E  3801               	iorlw	1
  3507  032F  00A1               	movwf	??___fladd+1
  3508  0330  0821               	movf	??___fladd+1,w
  3509  0331  00FB               	movwf	___fladd@grs
  3510  0332  2B35               	goto	l1909
  3511  0333                     l1907:	
  3512  0333  1003               	clrc
  3513  0334  0CFB               	rrf	___fladd@grs,f
  3514  0335                     l1909:	
  3515  0335  1C70               	btfss	___fladd@b,0
  3516  0336  2B38               	goto	u2201
  3517  0337  2B39               	goto	u2200
  3518  0338                     u2201:	
  3519  0338  2B3A               	goto	l1913
  3520  0339                     u2200:	
  3521  0339                     l1911:	
  3522  0339  17FB               	bsf	___fladd@grs,7
  3523  033A                     l1913:	
  3524  033A  3001               	movlw	1
  3525  033B  1283               	bcf	3,5	;RP0=0, select bank0
  3526  033C  1303               	bcf	3,6	;RP1=0, select bank0
  3527  033D  00A0               	movwf	??___fladd
  3528  033E                     u2215:	
  3529  033E  0D73               	rlf	___fladd@b+3,w
  3530  033F  0CF3               	rrf	___fladd@b+3,f
  3531  0340  0CF2               	rrf	___fladd@b+2,f
  3532  0341  0CF1               	rrf	___fladd@b+1,f
  3533  0342  0CF0               	rrf	___fladd@b,f
  3534  0343  0BA0               	decfsz	??___fladd& (0+127),f
  3535  0344  2B3E               	goto	u2215
  3536  0345                     l1915:	
  3537  0345  3001               	movlw	1
  3538  0346  00A0               	movwf	??___fladd
  3539  0347  0820               	movf	??___fladd,w
  3540  0348  07FA               	addwf	___fladd@bexp,f
  3541  0349  2C02               	goto	l1951
  3542  034A                     l1917:	
  3543  034A  0873               	movf	___fladd@b+3,w
  3544  034B  3A80               	xorlw	128
  3545  034C  00FF               	movwf	btemp+1
  3546  034D  0877               	movf	___fladd@a+3,w
  3547  034E  3A80               	xorlw	128
  3548  034F  027F               	subwf	btemp+1,w
  3549  0350  1D03               	skipz
  3550  0351  2B5C               	goto	u2223
  3551  0352  0876               	movf	___fladd@a+2,w
  3552  0353  0272               	subwf	___fladd@b+2,w
  3553  0354  1D03               	skipz
  3554  0355  2B5C               	goto	u2223
  3555  0356  0875               	movf	___fladd@a+1,w
  3556  0357  0271               	subwf	___fladd@b+1,w
  3557  0358  1D03               	skipz
  3558  0359  2B5C               	goto	u2223
  3559  035A  0874               	movf	___fladd@a,w
  3560  035B  0270               	subwf	___fladd@b,w
  3561  035C                     u2223:	
  3562  035C  1803               	skipnc
  3563  035D  2B5F               	goto	u2221
  3564  035E  2B60               	goto	u2220
  3565  035F                     u2221:	
  3566  035F  2BBA               	goto	l1927
  3567  0360                     u2220:	
  3568  0360                     l1919:	
  3569  0360  30FF               	movlw	255
  3570  0361  1283               	bcf	3,5	;RP0=0, select bank0
  3571  0362  1303               	bcf	3,6	;RP1=0, select bank0
  3572  0363  00A0               	movwf	??___fladd
  3573  0364  30FF               	movlw	255
  3574  0365  00A1               	movwf	??___fladd+1
  3575  0366  30FF               	movlw	255
  3576  0367  00A2               	movwf	??___fladd+2
  3577  0368  30FF               	movlw	255
  3578  0369  00A3               	movwf	??___fladd+3
  3579  036A  0874               	movf	___fladd@a,w
  3580  036B  00A4               	movwf	??___fladd+4
  3581  036C  0875               	movf	___fladd@a+1,w
  3582  036D  00A5               	movwf	??___fladd+5
  3583  036E  0876               	movf	___fladd@a+2,w
  3584  036F  00A6               	movwf	??___fladd+6
  3585  0370  0877               	movf	___fladd@a+3,w
  3586  0371  00A7               	movwf	??___fladd+7
  3587  0372  0870               	movf	___fladd@b,w
  3588  0373  02A4               	subwf	??___fladd+4,f
  3589  0374  0871               	movf	___fladd@b+1,w
  3590  0375  1C03               	skipc
  3591  0376  0F71               	incfsz	___fladd@b+1,w
  3592  0377  2B79               	goto	u2231
  3593  0378  2B7A               	goto	u2232
  3594  0379                     u2231:	
  3595  0379  02A5               	subwf	??___fladd+5,f
  3596  037A                     u2232:	
  3597  037A  0872               	movf	___fladd@b+2,w
  3598  037B  1C03               	skipc
  3599  037C  0F72               	incfsz	___fladd@b+2,w
  3600  037D  2B7F               	goto	u2233
  3601  037E  2B80               	goto	u2234
  3602  037F                     u2233:	
  3603  037F  02A6               	subwf	??___fladd+6,f
  3604  0380                     u2234:	
  3605  0380  0873               	movf	___fladd@b+3,w
  3606  0381  1C03               	skipc
  3607  0382  0F73               	incfsz	___fladd@b+3,w
  3608  0383  2B85               	goto	u2235
  3609  0384  2B86               	goto	u2236
  3610  0385                     u2235:	
  3611  0385  02A7               	subwf	??___fladd+7,f
  3612  0386                     u2236:	
  3613  0386  0824               	movf	??___fladd+4,w
  3614  0387  07A0               	addwf	??___fladd,f
  3615  0388  0825               	movf	??___fladd+5,w
  3616  0389  1803               	skipnc
  3617  038A  0F25               	incfsz	??___fladd+5,w
  3618  038B  2B8D               	goto	u2240
  3619  038C  2B8E               	goto	u2241
  3620  038D                     u2240:	
  3621  038D  07A1               	addwf	??___fladd+1,f
  3622  038E                     u2241:	
  3623  038E  0826               	movf	??___fladd+6,w
  3624  038F  1803               	skipnc
  3625  0390  0F26               	incfsz	??___fladd+6,w
  3626  0391  2B93               	goto	u2242
  3627  0392  2B94               	goto	u2243
  3628  0393                     u2242:	
  3629  0393  07A2               	addwf	??___fladd+2,f
  3630  0394                     u2243:	
  3631  0394  0827               	movf	??___fladd+7,w
  3632  0395  1803               	skipnc
  3633  0396  0A27               	incf	??___fladd+7,w
  3634  0397  07A3               	addwf	??___fladd+3,f
  3635  0398  0823               	movf	??___fladd+3,w
  3636  0399  00F3               	movwf	___fladd@b+3
  3637  039A  0822               	movf	??___fladd+2,w
  3638  039B  00F2               	movwf	___fladd@b+2
  3639  039C  0821               	movf	??___fladd+1,w
  3640  039D  00F1               	movwf	___fladd@b+1
  3641  039E  0820               	movf	??___fladd,w
  3642  039F  00F0               	movwf	___fladd@b
  3643  03A0                     l1921:	
  3644  03A0  3080               	movlw	128
  3645  03A1  00A0               	movwf	??___fladd
  3646  03A2  0820               	movf	??___fladd,w
  3647  03A3  06F8               	xorwf	___fladd@signs,f
  3648  03A4  09FB               	comf	___fladd@grs,f
  3649  03A5  0AFB               	incf	___fladd@grs,f
  3650  03A6                     l1923:	
  3651  03A6  087B               	movf	___fladd@grs,w
  3652  03A7  1D03               	btfss	3,2
  3653  03A8  2BAA               	goto	u2251
  3654  03A9  2BAB               	goto	u2250
  3655  03AA                     u2251:	
  3656  03AA  2BC8               	goto	l585
  3657  03AB                     u2250:	
  3658  03AB                     l1925:	
  3659  03AB  3001               	movlw	1
  3660  03AC  07F0               	addwf	___fladd@b,f
  3661  03AD  3000               	movlw	0
  3662  03AE  1803               	skipnc
  3663  03AF  3001               	movlw	1
  3664  03B0  07F1               	addwf	___fladd@b+1,f
  3665  03B1  3000               	movlw	0
  3666  03B2  1803               	skipnc
  3667  03B3  3001               	movlw	1
  3668  03B4  07F2               	addwf	___fladd@b+2,f
  3669  03B5  3000               	movlw	0
  3670  03B6  1803               	skipnc
  3671  03B7  3001               	movlw	1
  3672  03B8  07F3               	addwf	___fladd@b+3,f
  3673  03B9  2BC8               	goto	l585
  3674  03BA                     l1927:	
  3675  03BA  0874               	movf	___fladd@a,w
  3676  03BB  02F0               	subwf	___fladd@b,f
  3677  03BC  0875               	movf	___fladd@a+1,w
  3678  03BD  1C03               	skipc
  3679  03BE  0F75               	incfsz	___fladd@a+1,w
  3680  03BF  02F1               	subwf	___fladd@b+1,f
  3681  03C0  0876               	movf	___fladd@a+2,w
  3682  03C1  1C03               	skipc
  3683  03C2  0F76               	incfsz	___fladd@a+2,w
  3684  03C3  02F2               	subwf	___fladd@b+2,f
  3685  03C4  0877               	movf	___fladd@a+3,w
  3686  03C5  1C03               	skipc
  3687  03C6  0F77               	incfsz	___fladd@a+3,w
  3688  03C7  02F3               	subwf	___fladd@b+3,f
  3689  03C8                     l585:	
  3690  03C8  0873               	movf	___fladd@b+3,w
  3691  03C9  0472               	iorwf	___fladd@b+2,w
  3692  03CA  0471               	iorwf	___fladd@b+1,w
  3693  03CB  0470               	iorwf	___fladd@b,w
  3694  03CC  1D03               	skipz
  3695  03CD  2BCF               	goto	u2261
  3696  03CE  2BD0               	goto	u2260
  3697  03CF                     u2261:	
  3698  03CF  2BFE               	goto	l1949
  3699  03D0                     u2260:	
  3700  03D0                     l1929:	
  3701  03D0  087B               	movf	___fladd@grs,w
  3702  03D1  1D03               	btfss	3,2
  3703  03D2  2BD4               	goto	u2271
  3704  03D3  2BD5               	goto	u2270
  3705  03D4                     u2271:	
  3706  03D4  2BFE               	goto	l1949
  3707  03D5                     u2270:	
  3708  03D5                     l1931:	
  3709  03D5  3000               	movlw	0
  3710  03D6  00F3               	movwf	?___fladd+3
  3711  03D7  3000               	movlw	0
  3712  03D8  00F2               	movwf	?___fladd+2
  3713  03D9  3000               	movlw	0
  3714  03DA  00F1               	movwf	?___fladd+1
  3715  03DB  3000               	movlw	0
  3716  03DC  00F0               	movwf	?___fladd
  3717  03DD  2C82               	goto	l577
  3718  03DE                     l1935:	
  3719  03DE  3001               	movlw	1
  3720  03DF  1283               	bcf	3,5	;RP0=0, select bank0
  3721  03E0  1303               	bcf	3,6	;RP1=0, select bank0
  3722  03E1  00A0               	movwf	??___fladd
  3723  03E2                     u2285:	
  3724  03E2  1003               	clrc
  3725  03E3  0DF0               	rlf	___fladd@b,f
  3726  03E4  0DF1               	rlf	___fladd@b+1,f
  3727  03E5  0DF2               	rlf	___fladd@b+2,f
  3728  03E6  0DF3               	rlf	___fladd@b+3,f
  3729  03E7  0BA0               	decfsz	??___fladd,f
  3730  03E8  2BE2               	goto	u2285
  3731  03E9                     l1937:	
  3732  03E9  1FFB               	btfss	___fladd@grs,7
  3733  03EA  2BEC               	goto	u2291
  3734  03EB  2BED               	goto	u2290
  3735  03EC                     u2291:	
  3736  03EC  2BEE               	goto	l589
  3737  03ED                     u2290:	
  3738  03ED                     l1939:	
  3739  03ED  1470               	bsf	___fladd@b,0
  3740  03EE                     l589:	
  3741  03EE  1C7B               	btfss	___fladd@grs,0
  3742  03EF  2BF1               	goto	u2301
  3743  03F0  2BF2               	goto	u2300
  3744  03F1                     u2301:	
  3745  03F1  2BF5               	goto	l1943
  3746  03F2                     u2300:	
  3747  03F2                     l1941:	
  3748  03F2  1403               	setc
  3749  03F3  0DFB               	rlf	___fladd@grs,f
  3750  03F4  2BF7               	goto	l1945
  3751  03F5                     l1943:	
  3752  03F5  1003               	clrc
  3753  03F6  0DFB               	rlf	___fladd@grs,f
  3754  03F7                     l1945:	
  3755  03F7  087A               	movf	___fladd@bexp,w
  3756  03F8  1903               	btfsc	3,2
  3757  03F9  2BFB               	goto	u2311
  3758  03FA  2BFC               	goto	u2310
  3759  03FB                     u2311:	
  3760  03FB  2BFE               	goto	l1949
  3761  03FC                     u2310:	
  3762  03FC                     l1947:	
  3763  03FC  3001               	movlw	1
  3764  03FD  02FA               	subwf	___fladd@bexp,f
  3765  03FE                     l1949:	
  3766  03FE  1FF2               	btfss	___fladd@b+2,7
  3767  03FF  2C01               	goto	u2321
  3768  0400  2C02               	goto	u2320
  3769  0401                     u2321:	
  3770  0401  2BDE               	goto	l1935
  3771  0402                     u2320:	
  3772  0402                     l1951:	
  3773  0402  01F9               	clrf	___fladd@aexp
  3774  0403                     l1953:	
  3775  0403  1FFB               	btfss	___fladd@grs,7
  3776  0404  2C06               	goto	u2331
  3777  0405  2C07               	goto	u2330
  3778  0406                     u2331:	
  3779  0406  2C15               	goto	l1961
  3780  0407                     u2330:	
  3781  0407                     l1955:	
  3782  0407  087B               	movf	___fladd@grs,w
  3783  0408  397F               	andlw	127
  3784  0409  1903               	btfsc	3,2
  3785  040A  2C0C               	goto	u2341
  3786  040B  2C0D               	goto	u2340
  3787  040C                     u2341:	
  3788  040C  2C10               	goto	l595
  3789  040D                     u2340:	
  3790  040D                     l1957:	
  3791  040D  01F9               	clrf	___fladd@aexp
  3792  040E  0AF9               	incf	___fladd@aexp,f
  3793  040F  2C15               	goto	l1961
  3794  0410                     l595:	
  3795  0410  1C70               	btfss	___fladd@b,0
  3796  0411  2C13               	goto	u2351
  3797  0412  2C14               	goto	u2350
  3798  0413                     u2351:	
  3799  0413  2C15               	goto	l1961
  3800  0414                     u2350:	
  3801  0414  2C0D               	goto	l1957
  3802  0415                     l1961:	
  3803  0415  0879               	movf	___fladd@aexp,w
  3804  0416  1903               	btfsc	3,2
  3805  0417  2C19               	goto	u2361
  3806  0418  2C1A               	goto	u2360
  3807  0419                     u2361:	
  3808  0419  2C50               	goto	l598
  3809  041A                     u2360:	
  3810  041A                     l1963:	
  3811  041A  3001               	movlw	1
  3812  041B  07F0               	addwf	___fladd@b,f
  3813  041C  3000               	movlw	0
  3814  041D  1803               	skipnc
  3815  041E  3001               	movlw	1
  3816  041F  07F1               	addwf	___fladd@b+1,f
  3817  0420  3000               	movlw	0
  3818  0421  1803               	skipnc
  3819  0422  3001               	movlw	1
  3820  0423  07F2               	addwf	___fladd@b+2,f
  3821  0424  3000               	movlw	0
  3822  0425  1803               	skipnc
  3823  0426  3001               	movlw	1
  3824  0427  07F3               	addwf	___fladd@b+3,f
  3825  0428                     l1965:	
  3826  0428  1C73               	btfss	___fladd@b+3,0
  3827  0429  2C2B               	goto	u2371
  3828  042A  2C2C               	goto	u2370
  3829  042B                     u2371:	
  3830  042B  2C50               	goto	l598
  3831  042C                     u2370:	
  3832  042C                     l1967:	
  3833  042C  0870               	movf	___fladd@b,w
  3834  042D  1283               	bcf	3,5	;RP0=0, select bank0
  3835  042E  1303               	bcf	3,6	;RP1=0, select bank0
  3836  042F  00A0               	movwf	??___fladd
  3837  0430  0871               	movf	___fladd@b+1,w
  3838  0431  00A1               	movwf	??___fladd+1
  3839  0432  0872               	movf	___fladd@b+2,w
  3840  0433  00A2               	movwf	??___fladd+2
  3841  0434  0873               	movf	___fladd@b+3,w
  3842  0435  00A3               	movwf	??___fladd+3
  3843  0436  3001               	movlw	1
  3844  0437  00A4               	movwf	??___fladd+4
  3845  0438                     u2385:	
  3846  0438  0D23               	rlf	??___fladd+3,w
  3847  0439  0CA3               	rrf	??___fladd+3,f
  3848  043A  0CA2               	rrf	??___fladd+2,f
  3849  043B  0CA1               	rrf	??___fladd+1,f
  3850  043C  0CA0               	rrf	??___fladd,f
  3851  043D                     u2380:	
  3852  043D  0BA4               	decfsz	??___fladd+4,f
  3853  043E  2C38               	goto	u2385
  3854  043F  0823               	movf	??___fladd+3,w
  3855  0440  00F3               	movwf	___fladd@b+3
  3856  0441  0822               	movf	??___fladd+2,w
  3857  0442  00F2               	movwf	___fladd@b+2
  3858  0443  0821               	movf	??___fladd+1,w
  3859  0444  00F1               	movwf	___fladd@b+1
  3860  0445  0820               	movf	??___fladd,w
  3861  0446  00F0               	movwf	___fladd@b
  3862  0447  0A7A               	incf	___fladd@bexp,w
  3863  0448  1903               	btfsc	3,2
  3864  0449  2C4B               	goto	u2391
  3865  044A  2C4C               	goto	u2390
  3866  044B                     u2391:	
  3867  044B  2C50               	goto	l598
  3868  044C                     u2390:	
  3869  044C                     l1969:	
  3870  044C  3001               	movlw	1
  3871  044D  00A0               	movwf	??___fladd
  3872  044E  0820               	movf	??___fladd,w
  3873  044F  07FA               	addwf	___fladd@bexp,f
  3874  0450                     l598:	
  3875  0450  0A7A               	incf	___fladd@bexp,w
  3876  0451  1903               	btfsc	3,2
  3877  0452  2C54               	goto	u2401
  3878  0453  2C55               	goto	u2400
  3879  0454                     u2401:	
  3880  0454  2C5A               	goto	l1973
  3881  0455                     u2400:	
  3882  0455                     l1971:	
  3883  0455  087A               	movf	___fladd@bexp,w
  3884  0456  1D03               	btfss	3,2
  3885  0457  2C59               	goto	u2411
  3886  0458  2C5A               	goto	u2410
  3887  0459                     u2411:	
  3888  0459  2C68               	goto	l1979
  3889  045A                     u2410:	
  3890  045A                     l1973:	
  3891  045A  3000               	movlw	0
  3892  045B  00F3               	movwf	___fladd@b+3
  3893  045C  3000               	movlw	0
  3894  045D  00F2               	movwf	___fladd@b+2
  3895  045E  3000               	movlw	0
  3896  045F  00F1               	movwf	___fladd@b+1
  3897  0460  3000               	movlw	0
  3898  0461  00F0               	movwf	___fladd@b
  3899  0462                     l1975:	
  3900  0462  087A               	movf	___fladd@bexp,w
  3901  0463  1D03               	btfss	3,2
  3902  0464  2C66               	goto	u2421
  3903  0465  2C67               	goto	u2420
  3904  0466                     u2421:	
  3905  0466  2C68               	goto	l1979
  3906  0467                     u2420:	
  3907  0467                     l1977:	
  3908  0467  01F8               	clrf	___fladd@signs
  3909  0468                     l1979:	
  3910  0468  1C7A               	btfss	___fladd@bexp,0
  3911  0469  2C6B               	goto	u2431
  3912  046A  2C6C               	goto	u2430
  3913  046B                     u2431:	
  3914  046B  2C6E               	goto	l1983
  3915  046C                     u2430:	
  3916  046C                     l1981:	
  3917  046C  17F2               	bsf	___fladd@b+2,7
  3918  046D  2C74               	goto	l606
  3919  046E                     l1983:	
  3920  046E  307F               	movlw	127
  3921  046F  1283               	bcf	3,5	;RP0=0, select bank0
  3922  0470  1303               	bcf	3,6	;RP1=0, select bank0
  3923  0471  00A0               	movwf	??___fladd
  3924  0472  0820               	movf	??___fladd,w
  3925  0473  05F2               	andwf	___fladd@b+2,f
  3926  0474                     l606:	
  3927  0474  087A               	movf	___fladd@bexp,w
  3928  0475  1283               	bcf	3,5	;RP0=0, select bank0
  3929  0476  1303               	bcf	3,6	;RP1=0, select bank0
  3930  0477  00A0               	movwf	??___fladd
  3931  0478  1003               	clrc
  3932  0479  0C20               	rrf	??___fladd,w
  3933  047A  00A1               	movwf	??___fladd+1
  3934  047B  0821               	movf	??___fladd+1,w
  3935  047C  00F3               	movwf	___fladd@b+3
  3936  047D                     l1985:	
  3937  047D  1FF8               	btfss	___fladd@signs,7
  3938  047E  2C80               	goto	u2441
  3939  047F  2C81               	goto	u2440
  3940  0480                     u2441:	
  3941  0480  2C82               	goto	l607
  3942  0481                     u2440:	
  3943  0481                     l1987:	
  3944  0481  17F3               	bsf	___fladd@b+3,7
  3945  0482                     l607:	
  3946  0482                     l577:	
  3947  0482  0008               	return
  3948  0483                     __end_of___fladd:	
  3949                           
  3950                           	psect	text11
  3951  0483                     __ptext11:	
  3952 ;; *************** function ___flmul *****************
  3953 ;; Defined at:
  3954 ;;		line 8 in file "C:\Program Files (x86)\Microchip\xc8\v2.10\pic\sources\c90\common\sprcmul.c"
  3955 ;; Parameters:    Size  Location     Type
  3956 ;;  b               4   16[BANK0 ] unsigned char 
  3957 ;;  a               4   20[BANK0 ] unsigned char 
  3958 ;; Auto vars:     Size  Location     Type
  3959 ;;  prod            4   36[BANK0 ] struct .
  3960 ;;  grs             4   30[BANK0 ] unsigned long 
  3961 ;;  temp            2   40[BANK0 ] struct .
  3962 ;;  bexp            1   35[BANK0 ] unsigned char 
  3963 ;;  aexp            1   34[BANK0 ] unsigned char 
  3964 ;;  sign            1   29[BANK0 ] unsigned char 
  3965 ;; Return value:  Size  Location     Type
  3966 ;;                  4   16[BANK0 ] unsigned char 
  3967 ;; Registers used:
  3968 ;;		wreg, status,2, status,0, btemp+1, pclath, cstack
  3969 ;; Tracked objects:
  3970 ;;		On entry : 0/0
  3971 ;;		On exit  : 0/0
  3972 ;;		Unchanged: 0/0
  3973 ;; Data sizes:     COMMON   BANK0   BANK1   BANK3   BANK2
  3974 ;;      Params:         0       8       0       0       0
  3975 ;;      Locals:         0      13       0       0       0
  3976 ;;      Temps:          0       5       0       0       0
  3977 ;;      Totals:         0      26       0       0       0
  3978 ;;Total ram usage:       26 bytes
  3979 ;; Hardware stack levels used:    1
  3980 ;; Hardware stack levels required when called:    1
  3981 ;; This function calls:
  3982 ;;		__Umul8_16
  3983 ;; This function is called by:
  3984 ;;		_main
  3985 ;; This function uses a non-reentrant model
  3986 ;;
  3987                           
  3988                           
  3989                           ;psect for function ___flmul
  3990  0483                     ___flmul:	
  3991  0483                     l2323:	
  3992                           ;incstack = 0
  3993                           ; Regs used in ___flmul: [wreg+status,2+status,0+btemp+1+pclath+cstack]
  3994                           
  3995  0483  1283               	bcf	3,5	;RP0=0, select bank0
  3996  0484  1303               	bcf	3,6	;RP1=0, select bank0
  3997  0485  0833               	movf	___flmul@b+3,w
  3998  0486  3980               	andlw	128
  3999  0487  00B8               	movwf	??___flmul
  4000  0488  0838               	movf	??___flmul,w
  4001  0489  00BD               	movwf	___flmul@sign
  4002  048A                     l2325:	
  4003  048A  0833               	movf	___flmul@b+3,w
  4004  048B  00B8               	movwf	??___flmul
  4005  048C  0738               	addwf	??___flmul,w
  4006  048D  00B9               	movwf	??___flmul+1
  4007  048E  0839               	movf	??___flmul+1,w
  4008  048F  00C3               	movwf	___flmul@bexp
  4009  0490                     l2327:	
  4010  0490  1FB2               	btfss	___flmul@b+2,7
  4011  0491  2C93               	goto	u2981
  4012  0492  2C94               	goto	u2980
  4013  0493                     u2981:	
  4014  0493  2C95               	goto	l2331
  4015  0494                     u2980:	
  4016  0494                     l2329:	
  4017  0494  1443               	bsf	___flmul@bexp,0
  4018  0495                     l2331:	
  4019  0495  0843               	movf	___flmul@bexp,w
  4020  0496  1903               	btfsc	3,2
  4021  0497  2C99               	goto	u2991
  4022  0498  2C9A               	goto	u2990
  4023  0499                     u2991:	
  4024  0499  2CA9               	goto	l2339
  4025  049A                     u2990:	
  4026  049A                     l2333:	
  4027  049A  0A43               	incf	___flmul@bexp,w
  4028  049B  1D03               	btfss	3,2
  4029  049C  2C9E               	goto	u3001
  4030  049D  2C9F               	goto	u3000
  4031  049E                     u3001:	
  4032  049E  2CA7               	goto	l2337
  4033  049F                     u3000:	
  4034  049F                     l2335:	
  4035  049F  3000               	movlw	0
  4036  04A0  00B3               	movwf	___flmul@b+3
  4037  04A1  3000               	movlw	0
  4038  04A2  00B2               	movwf	___flmul@b+2
  4039  04A3  3000               	movlw	0
  4040  04A4  00B1               	movwf	___flmul@b+1
  4041  04A5  3000               	movlw	0
  4042  04A6  00B0               	movwf	___flmul@b
  4043  04A7                     l2337:	
  4044  04A7  17B2               	bsf	___flmul@b+2,7
  4045  04A8  2CB1               	goto	l2341
  4046  04A9                     l2339:	
  4047  04A9  3000               	movlw	0
  4048  04AA  00B3               	movwf	___flmul@b+3
  4049  04AB  3000               	movlw	0
  4050  04AC  00B2               	movwf	___flmul@b+2
  4051  04AD  3000               	movlw	0
  4052  04AE  00B1               	movwf	___flmul@b+1
  4053  04AF  3000               	movlw	0
  4054  04B0  00B0               	movwf	___flmul@b
  4055  04B1                     l2341:	
  4056  04B1  0837               	movf	___flmul@a+3,w
  4057  04B2  3980               	andlw	128
  4058  04B3  00B8               	movwf	??___flmul
  4059  04B4  0838               	movf	??___flmul,w
  4060  04B5  06BD               	xorwf	___flmul@sign,f
  4061  04B6                     l2343:	
  4062  04B6  0837               	movf	___flmul@a+3,w
  4063  04B7  00B8               	movwf	??___flmul
  4064  04B8  0738               	addwf	??___flmul,w
  4065  04B9  00B9               	movwf	??___flmul+1
  4066  04BA  0839               	movf	??___flmul+1,w
  4067  04BB  00C2               	movwf	___flmul@aexp
  4068  04BC                     l2345:	
  4069  04BC  1FB6               	btfss	___flmul@a+2,7
  4070  04BD  2CBF               	goto	u3011
  4071  04BE  2CC0               	goto	u3010
  4072  04BF                     u3011:	
  4073  04BF  2CC1               	goto	l2349
  4074  04C0                     u3010:	
  4075  04C0                     l2347:	
  4076  04C0  1442               	bsf	___flmul@aexp,0
  4077  04C1                     l2349:	
  4078  04C1  0842               	movf	___flmul@aexp,w
  4079  04C2  1903               	btfsc	3,2
  4080  04C3  2CC5               	goto	u3021
  4081  04C4  2CC6               	goto	u3020
  4082  04C5                     u3021:	
  4083  04C5  2CD5               	goto	l2357
  4084  04C6                     u3020:	
  4085  04C6                     l2351:	
  4086  04C6  0A42               	incf	___flmul@aexp,w
  4087  04C7  1D03               	btfss	3,2
  4088  04C8  2CCA               	goto	u3031
  4089  04C9  2CCB               	goto	u3030
  4090  04CA                     u3031:	
  4091  04CA  2CD3               	goto	l2355
  4092  04CB                     u3030:	
  4093  04CB                     l2353:	
  4094  04CB  3000               	movlw	0
  4095  04CC  00B7               	movwf	___flmul@a+3
  4096  04CD  3000               	movlw	0
  4097  04CE  00B6               	movwf	___flmul@a+2
  4098  04CF  3000               	movlw	0
  4099  04D0  00B5               	movwf	___flmul@a+1
  4100  04D1  3000               	movlw	0
  4101  04D2  00B4               	movwf	___flmul@a
  4102  04D3                     l2355:	
  4103  04D3  17B6               	bsf	___flmul@a+2,7
  4104  04D4  2CDD               	goto	l2359
  4105  04D5                     l2357:	
  4106  04D5  3000               	movlw	0
  4107  04D6  00B7               	movwf	___flmul@a+3
  4108  04D7  3000               	movlw	0
  4109  04D8  00B6               	movwf	___flmul@a+2
  4110  04D9  3000               	movlw	0
  4111  04DA  00B5               	movwf	___flmul@a+1
  4112  04DB  3000               	movlw	0
  4113  04DC  00B4               	movwf	___flmul@a
  4114  04DD                     l2359:	
  4115  04DD  0842               	movf	___flmul@aexp,w
  4116  04DE  1903               	btfsc	3,2
  4117  04DF  2CE1               	goto	u3041
  4118  04E0  2CE2               	goto	u3040
  4119  04E1                     u3041:	
  4120  04E1  2CE7               	goto	l2363
  4121  04E2                     u3040:	
  4122  04E2                     l2361:	
  4123  04E2  0843               	movf	___flmul@bexp,w
  4124  04E3  1D03               	btfss	3,2
  4125  04E4  2CE6               	goto	u3051
  4126  04E5  2CE7               	goto	u3050
  4127  04E6                     u3051:	
  4128  04E6  2CF0               	goto	l2367
  4129  04E7                     u3050:	
  4130  04E7                     l2363:	
  4131  04E7  3000               	movlw	0
  4132  04E8  00B3               	movwf	?___flmul+3
  4133  04E9  3000               	movlw	0
  4134  04EA  00B2               	movwf	?___flmul+2
  4135  04EB  3000               	movlw	0
  4136  04EC  00B1               	movwf	?___flmul+1
  4137  04ED  3000               	movlw	0
  4138  04EE  00B0               	movwf	?___flmul
  4139  04EF  2FE3               	goto	l660
  4140  04F0                     l2367:	
  4141  04F0  0830               	movf	___flmul@b,w
  4142  04F1  00B8               	movwf	??___flmul
  4143  04F2  0838               	movf	??___flmul,w
  4144  04F3  00F0               	movwf	__Umul8_16@multiplicand
  4145  04F4  0836               	movf	___flmul@a+2,w
  4146  04F5  120A  158A  21E5  120A  118A  	fcall	__Umul8_16
  4147  04FA  0871               	movf	?__Umul8_16+1,w
  4148  04FB  1283               	bcf	3,5	;RP0=0, select bank0
  4149  04FC  1303               	bcf	3,6	;RP1=0, select bank0
  4150  04FD  00C9               	movwf	___flmul@temp+1
  4151  04FE  0870               	movf	?__Umul8_16,w
  4152  04FF  00C8               	movwf	___flmul@temp
  4153  0500                     l2369:	
  4154  0500  0848               	movf	___flmul@temp,w
  4155  0501  00B8               	movwf	??___flmul
  4156  0502  01B9               	clrf	??___flmul+1
  4157  0503  01BA               	clrf	??___flmul+2
  4158  0504  01BB               	clrf	??___flmul+3
  4159  0505  083B               	movf	??___flmul+3,w
  4160  0506  00C1               	movwf	___flmul@grs+3
  4161  0507  083A               	movf	??___flmul+2,w
  4162  0508  00C0               	movwf	___flmul@grs+2
  4163  0509  0839               	movf	??___flmul+1,w
  4164  050A  00BF               	movwf	___flmul@grs+1
  4165  050B  0838               	movf	??___flmul,w
  4166  050C  00BE               	movwf	___flmul@grs
  4167  050D                     l2371:	
  4168  050D  0849               	movf	___flmul@temp+1,w
  4169  050E  00B8               	movwf	??___flmul
  4170  050F  01B9               	clrf	??___flmul+1
  4171  0510  01BA               	clrf	??___flmul+2
  4172  0511  01BB               	clrf	??___flmul+3
  4173  0512  083B               	movf	??___flmul+3,w
  4174  0513  00C7               	movwf	___flmul@prod+3
  4175  0514  083A               	movf	??___flmul+2,w
  4176  0515  00C6               	movwf	___flmul@prod+2
  4177  0516  0839               	movf	??___flmul+1,w
  4178  0517  00C5               	movwf	___flmul@prod+1
  4179  0518  0838               	movf	??___flmul,w
  4180  0519  00C4               	movwf	___flmul@prod
  4181  051A  0831               	movf	___flmul@b+1,w
  4182  051B  00B8               	movwf	??___flmul
  4183  051C  0838               	movf	??___flmul,w
  4184  051D  00F0               	movwf	__Umul8_16@multiplicand
  4185  051E  0835               	movf	___flmul@a+1,w
  4186  051F  120A  158A  21E5  120A  118A  	fcall	__Umul8_16
  4187  0524  0871               	movf	?__Umul8_16+1,w
  4188  0525  1283               	bcf	3,5	;RP0=0, select bank0
  4189  0526  1303               	bcf	3,6	;RP1=0, select bank0
  4190  0527  00C9               	movwf	___flmul@temp+1
  4191  0528  0870               	movf	?__Umul8_16,w
  4192  0529  00C8               	movwf	___flmul@temp
  4193  052A                     l2373:	
  4194  052A  0848               	movf	___flmul@temp,w
  4195  052B  00B8               	movwf	??___flmul
  4196  052C  01B9               	clrf	??___flmul+1
  4197  052D  01BA               	clrf	??___flmul+2
  4198  052E  01BB               	clrf	??___flmul+3
  4199  052F  0838               	movf	??___flmul,w
  4200  0530  07BE               	addwf	___flmul@grs,f
  4201  0531  0839               	movf	??___flmul+1,w
  4202  0532  1103               	clrz
  4203  0533  1803               	skipnc
  4204  0534  3E01               	addlw	1
  4205  0535  1903               	skipnz
  4206  0536  2D38               	goto	u3061
  4207  0537  07BF               	addwf	___flmul@grs+1,f
  4208  0538                     u3061:	
  4209  0538  083A               	movf	??___flmul+2,w
  4210  0539  1103               	clrz
  4211  053A  1803               	skipnc
  4212  053B  3E01               	addlw	1
  4213  053C  1903               	skipnz
  4214  053D  2D3F               	goto	u3062
  4215  053E  07C0               	addwf	___flmul@grs+2,f
  4216  053F                     u3062:	
  4217  053F  083B               	movf	??___flmul+3,w
  4218  0540  1103               	clrz
  4219  0541  1803               	skipnc
  4220  0542  3E01               	addlw	1
  4221  0543  1903               	skipnz
  4222  0544  2D46               	goto	u3063
  4223  0545  07C1               	addwf	___flmul@grs+3,f
  4224  0546                     u3063:	
  4225  0546                     l2375:	
  4226  0546  0849               	movf	___flmul@temp+1,w
  4227  0547  00B8               	movwf	??___flmul
  4228  0548  01B9               	clrf	??___flmul+1
  4229  0549  01BA               	clrf	??___flmul+2
  4230  054A  01BB               	clrf	??___flmul+3
  4231  054B  0838               	movf	??___flmul,w
  4232  054C  07C4               	addwf	___flmul@prod,f
  4233  054D  0839               	movf	??___flmul+1,w
  4234  054E  1103               	clrz
  4235  054F  1803               	skipnc
  4236  0550  3E01               	addlw	1
  4237  0551  1903               	skipnz
  4238  0552  2D54               	goto	u3071
  4239  0553  07C5               	addwf	___flmul@prod+1,f
  4240  0554                     u3071:	
  4241  0554  083A               	movf	??___flmul+2,w
  4242  0555  1103               	clrz
  4243  0556  1803               	skipnc
  4244  0557  3E01               	addlw	1
  4245  0558  1903               	skipnz
  4246  0559  2D5B               	goto	u3072
  4247  055A  07C6               	addwf	___flmul@prod+2,f
  4248  055B                     u3072:	
  4249  055B  083B               	movf	??___flmul+3,w
  4250  055C  1103               	clrz
  4251  055D  1803               	skipnc
  4252  055E  3E01               	addlw	1
  4253  055F  1903               	skipnz
  4254  0560  2D62               	goto	u3073
  4255  0561  07C7               	addwf	___flmul@prod+3,f
  4256  0562                     u3073:	
  4257  0562  0832               	movf	___flmul@b+2,w
  4258  0563  00B8               	movwf	??___flmul
  4259  0564  0838               	movf	??___flmul,w
  4260  0565  00F0               	movwf	__Umul8_16@multiplicand
  4261  0566  0834               	movf	___flmul@a,w
  4262  0567  120A  158A  21E5  120A  118A  	fcall	__Umul8_16
  4263  056C  0871               	movf	?__Umul8_16+1,w
  4264  056D  1283               	bcf	3,5	;RP0=0, select bank0
  4265  056E  1303               	bcf	3,6	;RP1=0, select bank0
  4266  056F  00C9               	movwf	___flmul@temp+1
  4267  0570  0870               	movf	?__Umul8_16,w
  4268  0571  00C8               	movwf	___flmul@temp
  4269  0572                     l2377:	
  4270  0572  0848               	movf	___flmul@temp,w
  4271  0573  00B8               	movwf	??___flmul
  4272  0574  01B9               	clrf	??___flmul+1
  4273  0575  01BA               	clrf	??___flmul+2
  4274  0576  01BB               	clrf	??___flmul+3
  4275  0577  0838               	movf	??___flmul,w
  4276  0578  07BE               	addwf	___flmul@grs,f
  4277  0579  0839               	movf	??___flmul+1,w
  4278  057A  1103               	clrz
  4279  057B  1803               	skipnc
  4280  057C  3E01               	addlw	1
  4281  057D  1903               	skipnz
  4282  057E  2D80               	goto	u3081
  4283  057F  07BF               	addwf	___flmul@grs+1,f
  4284  0580                     u3081:	
  4285  0580  083A               	movf	??___flmul+2,w
  4286  0581  1103               	clrz
  4287  0582  1803               	skipnc
  4288  0583  3E01               	addlw	1
  4289  0584  1903               	skipnz
  4290  0585  2D87               	goto	u3082
  4291  0586  07C0               	addwf	___flmul@grs+2,f
  4292  0587                     u3082:	
  4293  0587  083B               	movf	??___flmul+3,w
  4294  0588  1103               	clrz
  4295  0589  1803               	skipnc
  4296  058A  3E01               	addlw	1
  4297  058B  1903               	skipnz
  4298  058C  2D8E               	goto	u3083
  4299  058D  07C1               	addwf	___flmul@grs+3,f
  4300  058E                     u3083:	
  4301  058E                     l2379:	
  4302  058E  0849               	movf	___flmul@temp+1,w
  4303  058F  00B8               	movwf	??___flmul
  4304  0590  01B9               	clrf	??___flmul+1
  4305  0591  01BA               	clrf	??___flmul+2
  4306  0592  01BB               	clrf	??___flmul+3
  4307  0593  0838               	movf	??___flmul,w
  4308  0594  07C4               	addwf	___flmul@prod,f
  4309  0595  0839               	movf	??___flmul+1,w
  4310  0596  1103               	clrz
  4311  0597  1803               	skipnc
  4312  0598  3E01               	addlw	1
  4313  0599  1903               	skipnz
  4314  059A  2D9C               	goto	u3091
  4315  059B  07C5               	addwf	___flmul@prod+1,f
  4316  059C                     u3091:	
  4317  059C  083A               	movf	??___flmul+2,w
  4318  059D  1103               	clrz
  4319  059E  1803               	skipnc
  4320  059F  3E01               	addlw	1
  4321  05A0  1903               	skipnz
  4322  05A1  2DA3               	goto	u3092
  4323  05A2  07C6               	addwf	___flmul@prod+2,f
  4324  05A3                     u3092:	
  4325  05A3  083B               	movf	??___flmul+3,w
  4326  05A4  1103               	clrz
  4327  05A5  1803               	skipnc
  4328  05A6  3E01               	addlw	1
  4329  05A7  1903               	skipnz
  4330  05A8  2DAA               	goto	u3093
  4331  05A9  07C7               	addwf	___flmul@prod+3,f
  4332  05AA                     u3093:	
  4333  05AA                     l2381:	
  4334  05AA  3008               	movlw	8
  4335  05AB  00B8               	movwf	??___flmul
  4336  05AC                     u3105:	
  4337  05AC  1003               	clrc
  4338  05AD  0DBE               	rlf	___flmul@grs,f
  4339  05AE  0DBF               	rlf	___flmul@grs+1,f
  4340  05AF  0DC0               	rlf	___flmul@grs+2,f
  4341  05B0  0DC1               	rlf	___flmul@grs+3,f
  4342  05B1  0BB8               	decfsz	??___flmul,f
  4343  05B2  2DAC               	goto	u3105
  4344  05B3                     l2383:	
  4345  05B3  0831               	movf	___flmul@b+1,w
  4346  05B4  00B8               	movwf	??___flmul
  4347  05B5  0838               	movf	??___flmul,w
  4348  05B6  00F0               	movwf	__Umul8_16@multiplicand
  4349  05B7  0834               	movf	___flmul@a,w
  4350  05B8  120A  158A  21E5  120A  118A  	fcall	__Umul8_16
  4351  05BD  0871               	movf	?__Umul8_16+1,w
  4352  05BE  1283               	bcf	3,5	;RP0=0, select bank0
  4353  05BF  1303               	bcf	3,6	;RP1=0, select bank0
  4354  05C0  00C9               	movwf	___flmul@temp+1
  4355  05C1  0870               	movf	?__Umul8_16,w
  4356  05C2  00C8               	movwf	___flmul@temp
  4357  05C3                     l2385:	
  4358  05C3  0848               	movf	___flmul@temp,w
  4359  05C4  00B8               	movwf	??___flmul
  4360  05C5  0849               	movf	___flmul@temp+1,w
  4361  05C6  00B9               	movwf	??___flmul+1
  4362  05C7  01BA               	clrf	??___flmul+2
  4363  05C8  01BB               	clrf	??___flmul+3
  4364  05C9  0838               	movf	??___flmul,w
  4365  05CA  07BE               	addwf	___flmul@grs,f
  4366  05CB  0839               	movf	??___flmul+1,w
  4367  05CC  1103               	clrz
  4368  05CD  1803               	skipnc
  4369  05CE  3E01               	addlw	1
  4370  05CF  1903               	skipnz
  4371  05D0  2DD2               	goto	u3111
  4372  05D1  07BF               	addwf	___flmul@grs+1,f
  4373  05D2                     u3111:	
  4374  05D2  083A               	movf	??___flmul+2,w
  4375  05D3  1103               	clrz
  4376  05D4  1803               	skipnc
  4377  05D5  3E01               	addlw	1
  4378  05D6  1903               	skipnz
  4379  05D7  2DD9               	goto	u3112
  4380  05D8  07C0               	addwf	___flmul@grs+2,f
  4381  05D9                     u3112:	
  4382  05D9  083B               	movf	??___flmul+3,w
  4383  05DA  1103               	clrz
  4384  05DB  1803               	skipnc
  4385  05DC  3E01               	addlw	1
  4386  05DD  1903               	skipnz
  4387  05DE  2DE0               	goto	u3113
  4388  05DF  07C1               	addwf	___flmul@grs+3,f
  4389  05E0                     u3113:	
  4390  05E0                     l2387:	
  4391  05E0  0830               	movf	___flmul@b,w
  4392  05E1  00B8               	movwf	??___flmul
  4393  05E2  0838               	movf	??___flmul,w
  4394  05E3  00F0               	movwf	__Umul8_16@multiplicand
  4395  05E4  0835               	movf	___flmul@a+1,w
  4396  05E5  120A  158A  21E5  120A  118A  	fcall	__Umul8_16
  4397  05EA  0871               	movf	?__Umul8_16+1,w
  4398  05EB  1283               	bcf	3,5	;RP0=0, select bank0
  4399  05EC  1303               	bcf	3,6	;RP1=0, select bank0
  4400  05ED  00C9               	movwf	___flmul@temp+1
  4401  05EE  0870               	movf	?__Umul8_16,w
  4402  05EF  00C8               	movwf	___flmul@temp
  4403  05F0                     l2389:	
  4404  05F0  0848               	movf	___flmul@temp,w
  4405  05F1  00B8               	movwf	??___flmul
  4406  05F2  0849               	movf	___flmul@temp+1,w
  4407  05F3  00B9               	movwf	??___flmul+1
  4408  05F4  01BA               	clrf	??___flmul+2
  4409  05F5  01BB               	clrf	??___flmul+3
  4410  05F6  0838               	movf	??___flmul,w
  4411  05F7  07BE               	addwf	___flmul@grs,f
  4412  05F8  0839               	movf	??___flmul+1,w
  4413  05F9  1103               	clrz
  4414  05FA  1803               	skipnc
  4415  05FB  3E01               	addlw	1
  4416  05FC  1903               	skipnz
  4417  05FD  2DFF               	goto	u3121
  4418  05FE  07BF               	addwf	___flmul@grs+1,f
  4419  05FF                     u3121:	
  4420  05FF  083A               	movf	??___flmul+2,w
  4421  0600  1103               	clrz
  4422  0601  1803               	skipnc
  4423  0602  3E01               	addlw	1
  4424  0603  1903               	skipnz
  4425  0604  2E06               	goto	u3122
  4426  0605  07C0               	addwf	___flmul@grs+2,f
  4427  0606                     u3122:	
  4428  0606  083B               	movf	??___flmul+3,w
  4429  0607  1103               	clrz
  4430  0608  1803               	skipnc
  4431  0609  3E01               	addlw	1
  4432  060A  1903               	skipnz
  4433  060B  2E0D               	goto	u3123
  4434  060C  07C1               	addwf	___flmul@grs+3,f
  4435  060D                     u3123:	
  4436  060D                     l2391:	
  4437  060D  3008               	movlw	8
  4438  060E  00B8               	movwf	??___flmul
  4439  060F                     u3135:	
  4440  060F  1003               	clrc
  4441  0610  0DBE               	rlf	___flmul@grs,f
  4442  0611  0DBF               	rlf	___flmul@grs+1,f
  4443  0612  0DC0               	rlf	___flmul@grs+2,f
  4444  0613  0DC1               	rlf	___flmul@grs+3,f
  4445  0614  0BB8               	decfsz	??___flmul,f
  4446  0615  2E0F               	goto	u3135
  4447  0616  0830               	movf	___flmul@b,w
  4448  0617  00B8               	movwf	??___flmul
  4449  0618  0838               	movf	??___flmul,w
  4450  0619  00F0               	movwf	__Umul8_16@multiplicand
  4451  061A  0834               	movf	___flmul@a,w
  4452  061B  120A  158A  21E5  120A  118A  	fcall	__Umul8_16
  4453  0620  0871               	movf	?__Umul8_16+1,w
  4454  0621  1283               	bcf	3,5	;RP0=0, select bank0
  4455  0622  1303               	bcf	3,6	;RP1=0, select bank0
  4456  0623  00C9               	movwf	___flmul@temp+1
  4457  0624  0870               	movf	?__Umul8_16,w
  4458  0625  00C8               	movwf	___flmul@temp
  4459  0626                     l2393:	
  4460  0626  0848               	movf	___flmul@temp,w
  4461  0627  00B8               	movwf	??___flmul
  4462  0628  0849               	movf	___flmul@temp+1,w
  4463  0629  00B9               	movwf	??___flmul+1
  4464  062A  01BA               	clrf	??___flmul+2
  4465  062B  01BB               	clrf	??___flmul+3
  4466  062C  0838               	movf	??___flmul,w
  4467  062D  07BE               	addwf	___flmul@grs,f
  4468  062E  0839               	movf	??___flmul+1,w
  4469  062F  1103               	clrz
  4470  0630  1803               	skipnc
  4471  0631  3E01               	addlw	1
  4472  0632  1903               	skipnz
  4473  0633  2E35               	goto	u3141
  4474  0634  07BF               	addwf	___flmul@grs+1,f
  4475  0635                     u3141:	
  4476  0635  083A               	movf	??___flmul+2,w
  4477  0636  1103               	clrz
  4478  0637  1803               	skipnc
  4479  0638  3E01               	addlw	1
  4480  0639  1903               	skipnz
  4481  063A  2E3C               	goto	u3142
  4482  063B  07C0               	addwf	___flmul@grs+2,f
  4483  063C                     u3142:	
  4484  063C  083B               	movf	??___flmul+3,w
  4485  063D  1103               	clrz
  4486  063E  1803               	skipnc
  4487  063F  3E01               	addlw	1
  4488  0640  1903               	skipnz
  4489  0641  2E43               	goto	u3143
  4490  0642  07C1               	addwf	___flmul@grs+3,f
  4491  0643                     u3143:	
  4492  0643                     l2395:	
  4493  0643  0831               	movf	___flmul@b+1,w
  4494  0644  00B8               	movwf	??___flmul
  4495  0645  0838               	movf	??___flmul,w
  4496  0646  00F0               	movwf	__Umul8_16@multiplicand
  4497  0647  0836               	movf	___flmul@a+2,w
  4498  0648  120A  158A  21E5  120A  118A  	fcall	__Umul8_16
  4499  064D  0871               	movf	?__Umul8_16+1,w
  4500  064E  1283               	bcf	3,5	;RP0=0, select bank0
  4501  064F  1303               	bcf	3,6	;RP1=0, select bank0
  4502  0650  00C9               	movwf	___flmul@temp+1
  4503  0651  0870               	movf	?__Umul8_16,w
  4504  0652  00C8               	movwf	___flmul@temp
  4505  0653  0848               	movf	___flmul@temp,w
  4506  0654  00B8               	movwf	??___flmul
  4507  0655  0849               	movf	___flmul@temp+1,w
  4508  0656  00B9               	movwf	??___flmul+1
  4509  0657  01BA               	clrf	??___flmul+2
  4510  0658  01BB               	clrf	??___flmul+3
  4511  0659  0838               	movf	??___flmul,w
  4512  065A  07C4               	addwf	___flmul@prod,f
  4513  065B  0839               	movf	??___flmul+1,w
  4514  065C  1103               	clrz
  4515  065D  1803               	skipnc
  4516  065E  3E01               	addlw	1
  4517  065F  1903               	skipnz
  4518  0660  2E62               	goto	u3151
  4519  0661  07C5               	addwf	___flmul@prod+1,f
  4520  0662                     u3151:	
  4521  0662  083A               	movf	??___flmul+2,w
  4522  0663  1103               	clrz
  4523  0664  1803               	skipnc
  4524  0665  3E01               	addlw	1
  4525  0666  1903               	skipnz
  4526  0667  2E69               	goto	u3152
  4527  0668  07C6               	addwf	___flmul@prod+2,f
  4528  0669                     u3152:	
  4529  0669  083B               	movf	??___flmul+3,w
  4530  066A  1103               	clrz
  4531  066B  1803               	skipnc
  4532  066C  3E01               	addlw	1
  4533  066D  1903               	skipnz
  4534  066E  2E70               	goto	u3153
  4535  066F  07C7               	addwf	___flmul@prod+3,f
  4536  0670                     u3153:	
  4537  0670                     l2397:	
  4538  0670  0832               	movf	___flmul@b+2,w
  4539  0671  00B8               	movwf	??___flmul
  4540  0672  0838               	movf	??___flmul,w
  4541  0673  00F0               	movwf	__Umul8_16@multiplicand
  4542  0674  0835               	movf	___flmul@a+1,w
  4543  0675  120A  158A  21E5  120A  118A  	fcall	__Umul8_16
  4544  067A  0871               	movf	?__Umul8_16+1,w
  4545  067B  1283               	bcf	3,5	;RP0=0, select bank0
  4546  067C  1303               	bcf	3,6	;RP1=0, select bank0
  4547  067D  00C9               	movwf	___flmul@temp+1
  4548  067E  0870               	movf	?__Umul8_16,w
  4549  067F  00C8               	movwf	___flmul@temp
  4550  0680                     l2399:	
  4551  0680  0848               	movf	___flmul@temp,w
  4552  0681  00B8               	movwf	??___flmul
  4553  0682  0849               	movf	___flmul@temp+1,w
  4554  0683  00B9               	movwf	??___flmul+1
  4555  0684  01BA               	clrf	??___flmul+2
  4556  0685  01BB               	clrf	??___flmul+3
  4557  0686  0838               	movf	??___flmul,w
  4558  0687  07C4               	addwf	___flmul@prod,f
  4559  0688  0839               	movf	??___flmul+1,w
  4560  0689  1103               	clrz
  4561  068A  1803               	skipnc
  4562  068B  3E01               	addlw	1
  4563  068C  1903               	skipnz
  4564  068D  2E8F               	goto	u3161
  4565  068E  07C5               	addwf	___flmul@prod+1,f
  4566  068F                     u3161:	
  4567  068F  083A               	movf	??___flmul+2,w
  4568  0690  1103               	clrz
  4569  0691  1803               	skipnc
  4570  0692  3E01               	addlw	1
  4571  0693  1903               	skipnz
  4572  0694  2E96               	goto	u3162
  4573  0695  07C6               	addwf	___flmul@prod+2,f
  4574  0696                     u3162:	
  4575  0696  083B               	movf	??___flmul+3,w
  4576  0697  1103               	clrz
  4577  0698  1803               	skipnc
  4578  0699  3E01               	addlw	1
  4579  069A  1903               	skipnz
  4580  069B  2E9D               	goto	u3163
  4581  069C  07C7               	addwf	___flmul@prod+3,f
  4582  069D                     u3163:	
  4583  069D  0832               	movf	___flmul@b+2,w
  4584  069E  00B8               	movwf	??___flmul
  4585  069F  0838               	movf	??___flmul,w
  4586  06A0  00F0               	movwf	__Umul8_16@multiplicand
  4587  06A1  0836               	movf	___flmul@a+2,w
  4588  06A2  120A  158A  21E5  120A  118A  	fcall	__Umul8_16
  4589  06A7  0871               	movf	?__Umul8_16+1,w
  4590  06A8  1283               	bcf	3,5	;RP0=0, select bank0
  4591  06A9  1303               	bcf	3,6	;RP1=0, select bank0
  4592  06AA  00C9               	movwf	___flmul@temp+1
  4593  06AB  0870               	movf	?__Umul8_16,w
  4594  06AC  00C8               	movwf	___flmul@temp
  4595  06AD                     l2401:	
  4596  06AD  0848               	movf	___flmul@temp,w
  4597  06AE  00B8               	movwf	??___flmul
  4598  06AF  0849               	movf	___flmul@temp+1,w
  4599  06B0  00B9               	movwf	??___flmul+1
  4600  06B1  01BA               	clrf	??___flmul+2
  4601  06B2  01BB               	clrf	??___flmul+3
  4602  06B3  3008               	movlw	8
  4603  06B4                     u3175:	
  4604  06B4  1003               	clrc
  4605  06B5  0DB8               	rlf	??___flmul,f
  4606  06B6  0DB9               	rlf	??___flmul+1,f
  4607  06B7  0DBA               	rlf	??___flmul+2,f
  4608  06B8  0DBB               	rlf	??___flmul+3,f
  4609  06B9                     u3170:	
  4610  06B9  3EFF               	addlw	-1
  4611  06BA  1D03               	skipz
  4612  06BB  2EB4               	goto	u3175
  4613  06BC  0838               	movf	??___flmul,w
  4614  06BD  07C4               	addwf	___flmul@prod,f
  4615  06BE  0839               	movf	??___flmul+1,w
  4616  06BF  1103               	clrz
  4617  06C0  1803               	skipnc
  4618  06C1  3E01               	addlw	1
  4619  06C2  1903               	skipnz
  4620  06C3  2EC5               	goto	u3181
  4621  06C4  07C5               	addwf	___flmul@prod+1,f
  4622  06C5                     u3181:	
  4623  06C5  083A               	movf	??___flmul+2,w
  4624  06C6  1103               	clrz
  4625  06C7  1803               	skipnc
  4626  06C8  3E01               	addlw	1
  4627  06C9  1903               	skipnz
  4628  06CA  2ECC               	goto	u3182
  4629  06CB  07C6               	addwf	___flmul@prod+2,f
  4630  06CC                     u3182:	
  4631  06CC  083B               	movf	??___flmul+3,w
  4632  06CD  1103               	clrz
  4633  06CE  1803               	skipnc
  4634  06CF  3E01               	addlw	1
  4635  06D0  1903               	skipnz
  4636  06D1  2ED3               	goto	u3183
  4637  06D2  07C7               	addwf	___flmul@prod+3,f
  4638  06D3                     u3183:	
  4639  06D3                     l2403:	
  4640  06D3  083E               	movf	___flmul@grs,w
  4641  06D4  00B8               	movwf	??___flmul
  4642  06D5  083F               	movf	___flmul@grs+1,w
  4643  06D6  00B9               	movwf	??___flmul+1
  4644  06D7  0840               	movf	___flmul@grs+2,w
  4645  06D8  00BA               	movwf	??___flmul+2
  4646  06D9  0841               	movf	___flmul@grs+3,w
  4647  06DA  00BB               	movwf	??___flmul+3
  4648  06DB  3018               	movlw	24
  4649  06DC                     u3195:	
  4650  06DC  1003               	clrc
  4651  06DD  0CBB               	rrf	??___flmul+3,f
  4652  06DE  0CBA               	rrf	??___flmul+2,f
  4653  06DF  0CB9               	rrf	??___flmul+1,f
  4654  06E0  0CB8               	rrf	??___flmul,f
  4655  06E1                     u3190:	
  4656  06E1  3EFF               	addlw	-1
  4657  06E2  1D03               	skipz
  4658  06E3  2EDC               	goto	u3195
  4659  06E4  0838               	movf	??___flmul,w
  4660  06E5  07C4               	addwf	___flmul@prod,f
  4661  06E6  0839               	movf	??___flmul+1,w
  4662  06E7  1103               	clrz
  4663  06E8  1803               	skipnc
  4664  06E9  3E01               	addlw	1
  4665  06EA  1903               	skipnz
  4666  06EB  2EED               	goto	u3201
  4667  06EC  07C5               	addwf	___flmul@prod+1,f
  4668  06ED                     u3201:	
  4669  06ED  083A               	movf	??___flmul+2,w
  4670  06EE  1103               	clrz
  4671  06EF  1803               	skipnc
  4672  06F0  3E01               	addlw	1
  4673  06F1  1903               	skipnz
  4674  06F2  2EF4               	goto	u3202
  4675  06F3  07C6               	addwf	___flmul@prod+2,f
  4676  06F4                     u3202:	
  4677  06F4  083B               	movf	??___flmul+3,w
  4678  06F5  1103               	clrz
  4679  06F6  1803               	skipnc
  4680  06F7  3E01               	addlw	1
  4681  06F8  1903               	skipnz
  4682  06F9  2EFB               	goto	u3203
  4683  06FA  07C7               	addwf	___flmul@prod+3,f
  4684  06FB                     u3203:	
  4685  06FB                     l2405:	
  4686  06FB  3008               	movlw	8
  4687  06FC  00B8               	movwf	??___flmul
  4688  06FD                     u3215:	
  4689  06FD  1003               	clrc
  4690  06FE  0DBE               	rlf	___flmul@grs,f
  4691  06FF  0DBF               	rlf	___flmul@grs+1,f
  4692  0700  0DC0               	rlf	___flmul@grs+2,f
  4693  0701  0DC1               	rlf	___flmul@grs+3,f
  4694  0702  0BB8               	decfsz	??___flmul,f
  4695  0703  2EFD               	goto	u3215
  4696  0704                     l2407:	
  4697  0704  0843               	movf	___flmul@bexp,w
  4698  0705  0742               	addwf	___flmul@aexp,w
  4699  0706  00B8               	movwf	??___flmul
  4700  0707  01B9               	clrf	??___flmul+1
  4701  0708  0DB9               	rlf	??___flmul+1,f
  4702  0709  0838               	movf	??___flmul,w
  4703  070A  3E82               	addlw	130
  4704  070B  00C8               	movwf	___flmul@temp
  4705  070C  0839               	movf	??___flmul+1,w
  4706  070D  1803               	skipnc
  4707  070E  3E01               	addlw	1
  4708  070F  3EFF               	addlw	255
  4709  0710  00C9               	movwf	___flmul@temp+1
  4710  0711  2F2F               	goto	l2419
  4711  0712                     l2409:	
  4712  0712  3001               	movlw	1
  4713  0713  00B8               	movwf	??___flmul
  4714  0714                     u3225:	
  4715  0714  1003               	clrc
  4716  0715  0DC4               	rlf	___flmul@prod,f
  4717  0716  0DC5               	rlf	___flmul@prod+1,f
  4718  0717  0DC6               	rlf	___flmul@prod+2,f
  4719  0718  0DC7               	rlf	___flmul@prod+3,f
  4720  0719  0BB8               	decfsz	??___flmul,f
  4721  071A  2F14               	goto	u3225
  4722  071B                     l2411:	
  4723  071B  1FC1               	btfss	___flmul@grs+3,7
  4724  071C  2F1E               	goto	u3231
  4725  071D  2F1F               	goto	u3230
  4726  071E                     u3231:	
  4727  071E  2F20               	goto	l2415
  4728  071F                     u3230:	
  4729  071F                     l2413:	
  4730  071F  1444               	bsf	___flmul@prod,0
  4731  0720                     l2415:	
  4732  0720  3001               	movlw	1
  4733  0721  00B8               	movwf	??___flmul
  4734  0722                     u3245:	
  4735  0722  1003               	clrc
  4736  0723  0DBE               	rlf	___flmul@grs,f
  4737  0724  0DBF               	rlf	___flmul@grs+1,f
  4738  0725  0DC0               	rlf	___flmul@grs+2,f
  4739  0726  0DC1               	rlf	___flmul@grs+3,f
  4740  0727  0BB8               	decfsz	??___flmul,f
  4741  0728  2F22               	goto	u3245
  4742  0729                     l2417:	
  4743  0729  30FF               	movlw	255
  4744  072A  07C8               	addwf	___flmul@temp,f
  4745  072B  1803               	skipnc
  4746  072C  0AC9               	incf	___flmul@temp+1,f
  4747  072D  30FF               	movlw	255
  4748  072E  07C9               	addwf	___flmul@temp+1,f
  4749  072F                     l2419:	
  4750  072F  1FC6               	btfss	___flmul@prod+2,7
  4751  0730  2F32               	goto	u3251
  4752  0731  2F33               	goto	u3250
  4753  0732                     u3251:	
  4754  0732  2F12               	goto	l2409
  4755  0733                     u3250:	
  4756  0733                     l2421:	
  4757  0733  01C2               	clrf	___flmul@aexp
  4758  0734                     l2423:	
  4759  0734  1FC1               	btfss	___flmul@grs+3,7
  4760  0735  2F37               	goto	u3261
  4761  0736  2F38               	goto	u3260
  4762  0737                     u3261:	
  4763  0737  2F54               	goto	l2431
  4764  0738                     u3260:	
  4765  0738                     l2425:	
  4766  0738  30FF               	movlw	255
  4767  0739  053E               	andwf	___flmul@grs,w
  4768  073A  00B8               	movwf	??___flmul
  4769  073B  30FF               	movlw	255
  4770  073C  053F               	andwf	___flmul@grs+1,w
  4771  073D  00B9               	movwf	??___flmul+1
  4772  073E  30FF               	movlw	255
  4773  073F  0540               	andwf	___flmul@grs+2,w
  4774  0740  00BA               	movwf	??___flmul+2
  4775  0741  307F               	movlw	127
  4776  0742  0541               	andwf	___flmul@grs+3,w
  4777  0743  00BB               	movwf	??___flmul+3
  4778  0744  083B               	movf	??___flmul+3,w
  4779  0745  043A               	iorwf	??___flmul+2,w
  4780  0746  0439               	iorwf	??___flmul+1,w
  4781  0747  0438               	iorwf	??___flmul,w
  4782  0748  1903               	skipnz
  4783  0749  2F4B               	goto	u3271
  4784  074A  2F4C               	goto	u3270
  4785  074B                     u3271:	
  4786  074B  2F4F               	goto	l666
  4787  074C                     u3270:	
  4788  074C                     l2427:	
  4789  074C  01C2               	clrf	___flmul@aexp
  4790  074D  0AC2               	incf	___flmul@aexp,f
  4791  074E  2F54               	goto	l2431
  4792  074F                     l666:	
  4793  074F  1C44               	btfss	___flmul@prod,0
  4794  0750  2F52               	goto	u3281
  4795  0751  2F53               	goto	u3280
  4796  0752                     u3281:	
  4797  0752  2F54               	goto	l2431
  4798  0753                     u3280:	
  4799  0753  2F4C               	goto	l2427
  4800  0754                     l2431:	
  4801  0754  0842               	movf	___flmul@aexp,w
  4802  0755  1903               	btfsc	3,2
  4803  0756  2F58               	goto	u3291
  4804  0757  2F59               	goto	u3290
  4805  0758                     u3291:	
  4806  0758  2F8A               	goto	l2441
  4807  0759                     u3290:	
  4808  0759                     l2433:	
  4809  0759  3001               	movlw	1
  4810  075A  07C4               	addwf	___flmul@prod,f
  4811  075B  3000               	movlw	0
  4812  075C  1803               	skipnc
  4813  075D  3001               	movlw	1
  4814  075E  07C5               	addwf	___flmul@prod+1,f
  4815  075F  3000               	movlw	0
  4816  0760  1803               	skipnc
  4817  0761  3001               	movlw	1
  4818  0762  07C6               	addwf	___flmul@prod+2,f
  4819  0763  3000               	movlw	0
  4820  0764  1803               	skipnc
  4821  0765  3001               	movlw	1
  4822  0766  07C7               	addwf	___flmul@prod+3,f
  4823  0767                     l2435:	
  4824  0767  1C47               	btfss	___flmul@prod+3,0
  4825  0768  2F6A               	goto	u3301
  4826  0769  2F6B               	goto	u3300
  4827  076A                     u3301:	
  4828  076A  2F8A               	goto	l2441
  4829  076B                     u3300:	
  4830  076B                     l2437:	
  4831  076B  0844               	movf	___flmul@prod,w
  4832  076C  00B8               	movwf	??___flmul
  4833  076D  0845               	movf	___flmul@prod+1,w
  4834  076E  00B9               	movwf	??___flmul+1
  4835  076F  0846               	movf	___flmul@prod+2,w
  4836  0770  00BA               	movwf	??___flmul+2
  4837  0771  0847               	movf	___flmul@prod+3,w
  4838  0772  00BB               	movwf	??___flmul+3
  4839  0773  3001               	movlw	1
  4840  0774  00BC               	movwf	??___flmul+4
  4841  0775                     u3315:	
  4842  0775  0D3B               	rlf	??___flmul+3,w
  4843  0776  0CBB               	rrf	??___flmul+3,f
  4844  0777  0CBA               	rrf	??___flmul+2,f
  4845  0778  0CB9               	rrf	??___flmul+1,f
  4846  0779  0CB8               	rrf	??___flmul,f
  4847  077A                     u3310:	
  4848  077A  0BBC               	decfsz	??___flmul+4,f
  4849  077B  2F75               	goto	u3315
  4850  077C  083B               	movf	??___flmul+3,w
  4851  077D  00C7               	movwf	___flmul@prod+3
  4852  077E  083A               	movf	??___flmul+2,w
  4853  077F  00C6               	movwf	___flmul@prod+2
  4854  0780  0839               	movf	??___flmul+1,w
  4855  0781  00C5               	movwf	___flmul@prod+1
  4856  0782  0838               	movf	??___flmul,w
  4857  0783  00C4               	movwf	___flmul@prod
  4858  0784                     l2439:	
  4859  0784  3001               	movlw	1
  4860  0785  07C8               	addwf	___flmul@temp,f
  4861  0786  1803               	skipnc
  4862  0787  0AC9               	incf	___flmul@temp+1,f
  4863  0788  3000               	movlw	0
  4864  0789  07C9               	addwf	___flmul@temp+1,f
  4865  078A                     l2441:	
  4866  078A  0849               	movf	___flmul@temp+1,w
  4867  078B  3A80               	xorlw	128
  4868  078C  00FF               	movwf	btemp+1
  4869  078D  3080               	movlw	128
  4870  078E  027F               	subwf	btemp+1,w
  4871  078F  1D03               	skipz
  4872  0790  2F93               	goto	u3325
  4873  0791  30FF               	movlw	255
  4874  0792  0248               	subwf	___flmul@temp,w
  4875  0793                     u3325:	
  4876  0793  1C03               	skipc
  4877  0794  2F96               	goto	u3321
  4878  0795  2F97               	goto	u3320
  4879  0796                     u3321:	
  4880  0796  2FA2               	goto	l2445
  4881  0797                     u3320:	
  4882  0797                     l2443:	
  4883  0797  307F               	movlw	127
  4884  0798  1283               	bcf	3,5	;RP0=0, select bank0
  4885  0799  1303               	bcf	3,6	;RP1=0, select bank0
  4886  079A  00C7               	movwf	___flmul@prod+3
  4887  079B  3080               	movlw	128
  4888  079C  00C6               	movwf	___flmul@prod+2
  4889  079D  3000               	movlw	0
  4890  079E  00C5               	movwf	___flmul@prod+1
  4891  079F  3000               	movlw	0
  4892  07A0  00C4               	movwf	___flmul@prod
  4893  07A1  2FD7               	goto	l672
  4894  07A2                     l2445:	
  4895  07A2  1283               	bcf	3,5	;RP0=0, select bank0
  4896  07A3  1303               	bcf	3,6	;RP1=0, select bank0
  4897  07A4  0849               	movf	___flmul@temp+1,w
  4898  07A5  3A80               	xorlw	128
  4899  07A6  00FF               	movwf	btemp+1
  4900  07A7  3080               	movlw	128
  4901  07A8  027F               	subwf	btemp+1,w
  4902  07A9  1D03               	skipz
  4903  07AA  2FAD               	goto	u3335
  4904  07AB  3001               	movlw	1
  4905  07AC  0248               	subwf	___flmul@temp,w
  4906  07AD                     u3335:	
  4907  07AD  1803               	skipnc
  4908  07AE  2FB0               	goto	u3331
  4909  07AF  2FB1               	goto	u3330
  4910  07B0                     u3331:	
  4911  07B0  2FBD               	goto	l2451
  4912  07B1                     u3330:	
  4913  07B1                     l2447:	
  4914  07B1  3000               	movlw	0
  4915  07B2  1283               	bcf	3,5	;RP0=0, select bank0
  4916  07B3  1303               	bcf	3,6	;RP1=0, select bank0
  4917  07B4  00C7               	movwf	___flmul@prod+3
  4918  07B5  3000               	movlw	0
  4919  07B6  00C6               	movwf	___flmul@prod+2
  4920  07B7  3000               	movlw	0
  4921  07B8  00C5               	movwf	___flmul@prod+1
  4922  07B9  3000               	movlw	0
  4923  07BA  00C4               	movwf	___flmul@prod
  4924  07BB                     l2449:	
  4925  07BB  01BD               	clrf	___flmul@sign
  4926  07BC  2FD7               	goto	l672
  4927  07BD                     l2451:	
  4928  07BD  1283               	bcf	3,5	;RP0=0, select bank0
  4929  07BE  1303               	bcf	3,6	;RP1=0, select bank0
  4930  07BF  0848               	movf	___flmul@temp,w
  4931  07C0  00B8               	movwf	??___flmul
  4932  07C1  0838               	movf	??___flmul,w
  4933  07C2  00C3               	movwf	___flmul@bexp
  4934  07C3  30FF               	movlw	255
  4935  07C4  05C4               	andwf	___flmul@prod,f
  4936  07C5  30FF               	movlw	255
  4937  07C6  05C5               	andwf	___flmul@prod+1,f
  4938  07C7  307F               	movlw	127
  4939  07C8  05C6               	andwf	___flmul@prod+2,f
  4940  07C9  3000               	movlw	0
  4941  07CA  05C7               	andwf	___flmul@prod+3,f
  4942  07CB                     l2453:	
  4943  07CB  1C43               	btfss	___flmul@bexp,0
  4944  07CC  2FCE               	goto	u3341
  4945  07CD  2FCF               	goto	u3340
  4946  07CE                     u3341:	
  4947  07CE  2FD0               	goto	l2457
  4948  07CF                     u3340:	
  4949  07CF                     l2455:	
  4950  07CF  17C6               	bsf	___flmul@prod+2,7
  4951  07D0                     l2457:	
  4952  07D0  0843               	movf	___flmul@bexp,w
  4953  07D1  00B8               	movwf	??___flmul
  4954  07D2  1003               	clrc
  4955  07D3  0C38               	rrf	??___flmul,w
  4956  07D4  00B9               	movwf	??___flmul+1
  4957  07D5  0839               	movf	??___flmul+1,w
  4958  07D6  00C7               	movwf	___flmul@prod+3
  4959  07D7                     l672:	
  4960  07D7  083D               	movf	___flmul@sign,w
  4961  07D8  00B8               	movwf	??___flmul
  4962  07D9  0838               	movf	??___flmul,w
  4963  07DA  04C7               	iorwf	___flmul@prod+3,f
  4964  07DB                     l2459:	
  4965  07DB  0847               	movf	___flmul@prod+3,w
  4966  07DC  00B3               	movwf	?___flmul+3
  4967  07DD  0846               	movf	___flmul@prod+2,w
  4968  07DE  00B2               	movwf	?___flmul+2
  4969  07DF  0845               	movf	___flmul@prod+1,w
  4970  07E0  00B1               	movwf	?___flmul+1
  4971  07E1  0844               	movf	___flmul@prod,w
  4972  07E2  00B0               	movwf	?___flmul
  4973  07E3                     l660:	
  4974  07E3  0008               	return
  4975  07E4                     __end_of___flmul:	
  4976                           
  4977                           	psect	text12
  4978  09E5                     __ptext12:	
  4979 ;; *************** function __Umul8_16 *****************
  4980 ;; Defined at:
  4981 ;;		line 4 in file "C:\Program Files (x86)\Microchip\xc8\v2.10\pic\sources\c90\common\Umul8_16.c"
  4982 ;; Parameters:    Size  Location     Type
  4983 ;;  multiplier      1    wreg     unsigned char 
  4984 ;;  multiplicand    1    0[COMMON] unsigned char 
  4985 ;; Auto vars:     Size  Location     Type
  4986 ;;  multiplier      1    8[COMMON] unsigned char 
  4987 ;;  word_mpld       2    6[COMMON] unsigned int 
  4988 ;;  product         2    4[COMMON] unsigned int 
  4989 ;; Return value:  Size  Location     Type
  4990 ;;                  2    0[COMMON] unsigned int 
  4991 ;; Registers used:
  4992 ;;		wreg, status,2, status,0
  4993 ;; Tracked objects:
  4994 ;;		On entry : 0/0
  4995 ;;		On exit  : 0/0
  4996 ;;		Unchanged: 0/0
  4997 ;; Data sizes:     COMMON   BANK0   BANK1   BANK3   BANK2
  4998 ;;      Params:         2       0       0       0       0
  4999 ;;      Locals:         5       0       0       0       0
  5000 ;;      Temps:          2       0       0       0       0
  5001 ;;      Totals:         9       0       0       0       0
  5002 ;;Total ram usage:        9 bytes
  5003 ;; Hardware stack levels used:    1
  5004 ;; This function calls:
  5005 ;;		Nothing
  5006 ;; This function is called by:
  5007 ;;		___flmul
  5008 ;; This function uses a non-reentrant model
  5009 ;;
  5010                           
  5011                           
  5012                           ;psect for function __Umul8_16
  5013  09E5                     __Umul8_16:	
  5014                           
  5015                           ;incstack = 0
  5016                           ; Regs used in __Umul8_16: [wreg+status,2+status,0]
  5017                           ;__Umul8_16@multiplier stored from wreg
  5018  09E5  00F8               	movwf	__Umul8_16@multiplier
  5019  09E6                     l1989:	
  5020  09E6  01F4               	clrf	__Umul8_16@product
  5021  09E7  01F5               	clrf	__Umul8_16@product+1
  5022  09E8                     l1991:	
  5023  09E8  0870               	movf	__Umul8_16@multiplicand,w
  5024  09E9  00F2               	movwf	??__Umul8_16
  5025  09EA  01F3               	clrf	??__Umul8_16+1
  5026  09EB  0872               	movf	??__Umul8_16,w
  5027  09EC  00F6               	movwf	__Umul8_16@word_mpld
  5028  09ED  0873               	movf	??__Umul8_16+1,w
  5029  09EE  00F7               	movwf	__Umul8_16@word_mpld+1
  5030  09EF                     l1993:	
  5031  09EF  1C78               	btfss	__Umul8_16@multiplier,0
  5032  09F0  29F2               	goto	u2451
  5033  09F1  29F3               	goto	u2450
  5034  09F2                     u2451:	
  5035  09F2  29F9               	goto	l717
  5036  09F3                     u2450:	
  5037  09F3                     l1995:	
  5038  09F3  0876               	movf	__Umul8_16@word_mpld,w
  5039  09F4  07F4               	addwf	__Umul8_16@product,f
  5040  09F5  1803               	skipnc
  5041  09F6  0AF5               	incf	__Umul8_16@product+1,f
  5042  09F7  0877               	movf	__Umul8_16@word_mpld+1,w
  5043  09F8  07F5               	addwf	__Umul8_16@product+1,f
  5044  09F9                     l717:	
  5045  09F9  3001               	movlw	1
  5046  09FA                     u2465:	
  5047  09FA  1003               	clrc
  5048  09FB  0DF6               	rlf	__Umul8_16@word_mpld,f
  5049  09FC  0DF7               	rlf	__Umul8_16@word_mpld+1,f
  5050  09FD  3EFF               	addlw	-1
  5051  09FE  1D03               	skipz
  5052  09FF  29FA               	goto	u2465
  5053  0A00  1003               	clrc
  5054  0A01  0CF8               	rrf	__Umul8_16@multiplier,f
  5055  0A02                     l1997:	
  5056  0A02  0878               	movf	__Umul8_16@multiplier,w
  5057  0A03  1D03               	btfss	3,2
  5058  0A04  2A06               	goto	u2471
  5059  0A05  2A07               	goto	u2470
  5060  0A06                     u2471:	
  5061  0A06  29EF               	goto	l1993
  5062  0A07                     u2470:	
  5063  0A07                     l1999:	
  5064  0A07  0875               	movf	__Umul8_16@product+1,w
  5065  0A08  00F1               	movwf	?__Umul8_16+1
  5066  0A09  0874               	movf	__Umul8_16@product,w
  5067  0A0A  00F0               	movwf	?__Umul8_16
  5068  0A0B                     l719:	
  5069  0A0B  0008               	return
  5070  0A0C                     __end_of__Umul8_16:	
  5071                           
  5072                           	psect	text13
  5073  000E                     __ptext13:	
  5074 ;; *************** function ___fldiv *****************
  5075 ;; Defined at:
  5076 ;;		line 8 in file "C:\Program Files (x86)\Microchip\xc8\v2.10\pic\sources\c90\common\sprcdiv.c"
  5077 ;; Parameters:    Size  Location     Type
  5078 ;;  a               4   42[BANK0 ] unsigned int 
  5079 ;;  b               4   46[BANK0 ] unsigned int 
  5080 ;; Auto vars:     Size  Location     Type
  5081 ;;  grs             4   62[BANK0 ] unsigned long 
  5082 ;;  rem             4   55[BANK0 ] unsigned long 
  5083 ;;  new_exp         2   60[BANK0 ] int 
  5084 ;;  aexp            1   67[BANK0 ] unsigned char 
  5085 ;;  bexp            1   66[BANK0 ] unsigned char 
  5086 ;;  sign            1   59[BANK0 ] unsigned char 
  5087 ;; Return value:  Size  Location     Type
  5088 ;;                  4   42[BANK0 ] unsigned char 
  5089 ;; Registers used:
  5090 ;;		wreg, status,2, status,0, btemp+1
  5091 ;; Tracked objects:
  5092 ;;		On entry : 0/0
  5093 ;;		On exit  : 0/0
  5094 ;;		Unchanged: 0/0
  5095 ;; Data sizes:     COMMON   BANK0   BANK1   BANK3   BANK2
  5096 ;;      Params:         0       8       0       0       0
  5097 ;;      Locals:         0      13       0       0       0
  5098 ;;      Temps:          0       5       0       0       0
  5099 ;;      Totals:         0      26       0       0       0
  5100 ;;Total ram usage:       26 bytes
  5101 ;; Hardware stack levels used:    1
  5102 ;; This function calls:
  5103 ;;		Nothing
  5104 ;; This function is called by:
  5105 ;;		_main
  5106 ;; This function uses a non-reentrant model
  5107 ;;
  5108                           
  5109                           
  5110                           ;psect for function ___fldiv
  5111  000E                     ___fldiv:	
  5112  000E                     l2181:	
  5113                           ;incstack = 0
  5114                           ; Regs used in ___fldiv: [wreg+status,2+status,0+btemp+1]
  5115                           
  5116  000E  1283               	bcf	3,5	;RP0=0, select bank0
  5117  000F  1303               	bcf	3,6	;RP1=0, select bank0
  5118  0010  0851               	movf	___fldiv@b+3,w
  5119  0011  3980               	andlw	128
  5120  0012  00D2               	movwf	??___fldiv
  5121  0013  0852               	movf	??___fldiv,w
  5122  0014  00DB               	movwf	___fldiv@sign
  5123  0015                     l2183:	
  5124  0015  0851               	movf	___fldiv@b+3,w
  5125  0016  00D2               	movwf	??___fldiv
  5126  0017  0752               	addwf	??___fldiv,w
  5127  0018  00D3               	movwf	??___fldiv+1
  5128  0019  0853               	movf	??___fldiv+1,w
  5129  001A  00E2               	movwf	___fldiv@bexp
  5130  001B                     l2185:	
  5131  001B  1FD0               	btfss	___fldiv@b+2,7
  5132  001C  281E               	goto	u2691
  5133  001D  281F               	goto	u2690
  5134  001E                     u2691:	
  5135  001E  2820               	goto	l2189
  5136  001F                     u2690:	
  5137  001F                     l2187:	
  5138  001F  1462               	bsf	___fldiv@bexp,0
  5139  0020                     l2189:	
  5140  0020  0862               	movf	___fldiv@bexp,w
  5141  0021  1903               	btfsc	3,2
  5142  0022  2824               	goto	u2701
  5143  0023  2825               	goto	u2700
  5144  0024                     u2701:	
  5145  0024  2835               	goto	l2199
  5146  0025                     u2700:	
  5147  0025                     l2191:	
  5148  0025  0A62               	incf	___fldiv@bexp,w
  5149  0026  1D03               	btfss	3,2
  5150  0027  2829               	goto	u2711
  5151  0028  282A               	goto	u2710
  5152  0029                     u2711:	
  5153  0029  2832               	goto	l2195
  5154  002A                     u2710:	
  5155  002A                     l2193:	
  5156  002A  3000               	movlw	0
  5157  002B  00D1               	movwf	___fldiv@b+3
  5158  002C  3000               	movlw	0
  5159  002D  00D0               	movwf	___fldiv@b+2
  5160  002E  3000               	movlw	0
  5161  002F  00CF               	movwf	___fldiv@b+1
  5162  0030  3000               	movlw	0
  5163  0031  00CE               	movwf	___fldiv@b
  5164  0032                     l2195:	
  5165  0032  17D0               	bsf	___fldiv@b+2,7
  5166  0033                     l2197:	
  5167  0033  01D1               	clrf	___fldiv@b+3
  5168  0034  283D               	goto	l2201
  5169  0035                     l2199:	
  5170  0035  3000               	movlw	0
  5171  0036  00D1               	movwf	___fldiv@b+3
  5172  0037  3000               	movlw	0
  5173  0038  00D0               	movwf	___fldiv@b+2
  5174  0039  3000               	movlw	0
  5175  003A  00CF               	movwf	___fldiv@b+1
  5176  003B  3000               	movlw	0
  5177  003C  00CE               	movwf	___fldiv@b
  5178  003D                     l2201:	
  5179  003D  084D               	movf	___fldiv@a+3,w
  5180  003E  3980               	andlw	128
  5181  003F  00D2               	movwf	??___fldiv
  5182  0040  0852               	movf	??___fldiv,w
  5183  0041  06DB               	xorwf	___fldiv@sign,f
  5184  0042                     l2203:	
  5185  0042  084D               	movf	___fldiv@a+3,w
  5186  0043  00D2               	movwf	??___fldiv
  5187  0044  0752               	addwf	??___fldiv,w
  5188  0045  00D3               	movwf	??___fldiv+1
  5189  0046  0853               	movf	??___fldiv+1,w
  5190  0047  00E3               	movwf	___fldiv@aexp
  5191  0048                     l2205:	
  5192  0048  1FCC               	btfss	___fldiv@a+2,7
  5193  0049  284B               	goto	u2721
  5194  004A  284C               	goto	u2720
  5195  004B                     u2721:	
  5196  004B  284D               	goto	l2209
  5197  004C                     u2720:	
  5198  004C                     l2207:	
  5199  004C  1463               	bsf	___fldiv@aexp,0
  5200  004D                     l2209:	
  5201  004D  0863               	movf	___fldiv@aexp,w
  5202  004E  1903               	btfsc	3,2
  5203  004F  2851               	goto	u2731
  5204  0050  2852               	goto	u2730
  5205  0051                     u2731:	
  5206  0051  2862               	goto	l2219
  5207  0052                     u2730:	
  5208  0052                     l2211:	
  5209  0052  0A63               	incf	___fldiv@aexp,w
  5210  0053  1D03               	btfss	3,2
  5211  0054  2856               	goto	u2741
  5212  0055  2857               	goto	u2740
  5213  0056                     u2741:	
  5214  0056  285F               	goto	l2215
  5215  0057                     u2740:	
  5216  0057                     l2213:	
  5217  0057  3000               	movlw	0
  5218  0058  00CD               	movwf	___fldiv@a+3
  5219  0059  3000               	movlw	0
  5220  005A  00CC               	movwf	___fldiv@a+2
  5221  005B  3000               	movlw	0
  5222  005C  00CB               	movwf	___fldiv@a+1
  5223  005D  3000               	movlw	0
  5224  005E  00CA               	movwf	___fldiv@a
  5225  005F                     l2215:	
  5226  005F  17CC               	bsf	___fldiv@a+2,7
  5227  0060                     l2217:	
  5228  0060  01CD               	clrf	___fldiv@a+3
  5229  0061  286A               	goto	l620
  5230  0062                     l2219:	
  5231  0062  3000               	movlw	0
  5232  0063  00CD               	movwf	___fldiv@a+3
  5233  0064  3000               	movlw	0
  5234  0065  00CC               	movwf	___fldiv@a+2
  5235  0066  3000               	movlw	0
  5236  0067  00CB               	movwf	___fldiv@a+1
  5237  0068  3000               	movlw	0
  5238  0069  00CA               	movwf	___fldiv@a
  5239  006A                     l620:	
  5240  006A  084D               	movf	___fldiv@a+3,w
  5241  006B  044C               	iorwf	___fldiv@a+2,w
  5242  006C  044B               	iorwf	___fldiv@a+1,w
  5243  006D  044A               	iorwf	___fldiv@a,w
  5244  006E  1D03               	skipz
  5245  006F  2871               	goto	u2751
  5246  0070  2872               	goto	u2750
  5247  0071                     u2751:	
  5248  0071  288B               	goto	l2229
  5249  0072                     u2750:	
  5250  0072                     l2221:	
  5251  0072  3000               	movlw	0
  5252  0073  00D1               	movwf	___fldiv@b+3
  5253  0074  3000               	movlw	0
  5254  0075  00D0               	movwf	___fldiv@b+2
  5255  0076  3000               	movlw	0
  5256  0077  00CF               	movwf	___fldiv@b+1
  5257  0078  3000               	movlw	0
  5258  0079  00CE               	movwf	___fldiv@b
  5259  007A  3080               	movlw	128
  5260  007B  04D0               	iorwf	___fldiv@b+2,f
  5261  007C  307F               	movlw	127
  5262  007D  04D1               	iorwf	___fldiv@b+3,f
  5263  007E                     l2223:	
  5264  007E  085B               	movf	___fldiv@sign,w
  5265  007F  00D2               	movwf	??___fldiv
  5266  0080  0852               	movf	??___fldiv,w
  5267  0081  04D1               	iorwf	___fldiv@b+3,f
  5268  0082                     l2225:	
  5269  0082  0851               	movf	___fldiv@b+3,w
  5270  0083  00CD               	movwf	?___fldiv+3
  5271  0084  0850               	movf	___fldiv@b+2,w
  5272  0085  00CC               	movwf	?___fldiv+2
  5273  0086  084F               	movf	___fldiv@b+1,w
  5274  0087  00CB               	movwf	?___fldiv+1
  5275  0088  084E               	movf	___fldiv@b,w
  5276  0089  00CA               	movwf	?___fldiv
  5277  008A  29EA               	goto	l622
  5278  008B                     l2229:	
  5279  008B  0862               	movf	___fldiv@bexp,w
  5280  008C  1D03               	btfss	3,2
  5281  008D  288F               	goto	u2761
  5282  008E  2890               	goto	u2760
  5283  008F                     u2761:	
  5284  008F  2899               	goto	l2235
  5285  0090                     u2760:	
  5286  0090                     l2231:	
  5287  0090  3000               	movlw	0
  5288  0091  00CD               	movwf	?___fldiv+3
  5289  0092  3000               	movlw	0
  5290  0093  00CC               	movwf	?___fldiv+2
  5291  0094  3000               	movlw	0
  5292  0095  00CB               	movwf	?___fldiv+1
  5293  0096  3000               	movlw	0
  5294  0097  00CA               	movwf	?___fldiv
  5295  0098  29EA               	goto	l622
  5296  0099                     l2235:	
  5297  0099  0862               	movf	___fldiv@bexp,w
  5298  009A  00D2               	movwf	??___fldiv
  5299  009B  01D3               	clrf	??___fldiv+1
  5300  009C  0853               	movf	??___fldiv+1,w
  5301  009D  00D5               	movwf	??___fldiv+3
  5302  009E  0863               	movf	___fldiv@aexp,w
  5303  009F  0252               	subwf	??___fldiv,w
  5304  00A0  00D4               	movwf	??___fldiv+2
  5305  00A1  1C03               	skipc
  5306  00A2  03D5               	decf	??___fldiv+3,f
  5307  00A3  0854               	movf	??___fldiv+2,w
  5308  00A4  3E7F               	addlw	127
  5309  00A5  00DC               	movwf	___fldiv@new_exp
  5310  00A6  0855               	movf	??___fldiv+3,w
  5311  00A7  1803               	skipnc
  5312  00A8  3E01               	addlw	1
  5313  00A9  3E00               	addlw	0
  5314  00AA  00DD               	movwf	___fldiv@new_exp+1
  5315  00AB                     l2237:	
  5316  00AB  0851               	movf	___fldiv@b+3,w
  5317  00AC  00DA               	movwf	___fldiv@rem+3
  5318  00AD  0850               	movf	___fldiv@b+2,w
  5319  00AE  00D9               	movwf	___fldiv@rem+2
  5320  00AF  084F               	movf	___fldiv@b+1,w
  5321  00B0  00D8               	movwf	___fldiv@rem+1
  5322  00B1  084E               	movf	___fldiv@b,w
  5323  00B2  00D7               	movwf	___fldiv@rem
  5324  00B3                     l2239:	
  5325  00B3  3000               	movlw	0
  5326  00B4  00D1               	movwf	___fldiv@b+3
  5327  00B5  3000               	movlw	0
  5328  00B6  00D0               	movwf	___fldiv@b+2
  5329  00B7  3000               	movlw	0
  5330  00B8  00CF               	movwf	___fldiv@b+1
  5331  00B9  3000               	movlw	0
  5332  00BA  00CE               	movwf	___fldiv@b
  5333  00BB                     l2241:	
  5334  00BB  3000               	movlw	0
  5335  00BC  00E1               	movwf	___fldiv@grs+3
  5336  00BD  3000               	movlw	0
  5337  00BE  00E0               	movwf	___fldiv@grs+2
  5338  00BF  3000               	movlw	0
  5339  00C0  00DF               	movwf	___fldiv@grs+1
  5340  00C1  3000               	movlw	0
  5341  00C2  00DE               	movwf	___fldiv@grs
  5342  00C3                     l2243:	
  5343  00C3  01E3               	clrf	___fldiv@aexp
  5344  00C4  290F               	goto	l2263
  5345  00C5                     l2245:	
  5346  00C5  0863               	movf	___fldiv@aexp,w
  5347  00C6  1903               	btfsc	3,2
  5348  00C7  28C9               	goto	u2771
  5349  00C8  28CA               	goto	u2770
  5350  00C9                     u2771:	
  5351  00C9  28EA               	goto	l2255
  5352  00CA                     u2770:	
  5353  00CA                     l2247:	
  5354  00CA  3001               	movlw	1
  5355  00CB  00D2               	movwf	??___fldiv
  5356  00CC                     u2785:	
  5357  00CC  1003               	clrc
  5358  00CD  0DD7               	rlf	___fldiv@rem,f
  5359  00CE  0DD8               	rlf	___fldiv@rem+1,f
  5360  00CF  0DD9               	rlf	___fldiv@rem+2,f
  5361  00D0  0DDA               	rlf	___fldiv@rem+3,f
  5362  00D1  0BD2               	decfsz	??___fldiv,f
  5363  00D2  28CC               	goto	u2785
  5364  00D3  3001               	movlw	1
  5365  00D4  00D2               	movwf	??___fldiv
  5366  00D5                     u2795:	
  5367  00D5  1003               	clrc
  5368  00D6  0DCE               	rlf	___fldiv@b,f
  5369  00D7  0DCF               	rlf	___fldiv@b+1,f
  5370  00D8  0DD0               	rlf	___fldiv@b+2,f
  5371  00D9  0DD1               	rlf	___fldiv@b+3,f
  5372  00DA  0BD2               	decfsz	??___fldiv,f
  5373  00DB  28D5               	goto	u2795
  5374  00DC                     l2249:	
  5375  00DC  1FE1               	btfss	___fldiv@grs+3,7
  5376  00DD  28DF               	goto	u2801
  5377  00DE  28E0               	goto	u2800
  5378  00DF                     u2801:	
  5379  00DF  28E1               	goto	l2253
  5380  00E0                     u2800:	
  5381  00E0                     l2251:	
  5382  00E0  144E               	bsf	___fldiv@b,0
  5383  00E1                     l2253:	
  5384  00E1  3001               	movlw	1
  5385  00E2  00D2               	movwf	??___fldiv
  5386  00E3                     u2815:	
  5387  00E3  1003               	clrc
  5388  00E4  0DDE               	rlf	___fldiv@grs,f
  5389  00E5  0DDF               	rlf	___fldiv@grs+1,f
  5390  00E6  0DE0               	rlf	___fldiv@grs+2,f
  5391  00E7  0DE1               	rlf	___fldiv@grs+3,f
  5392  00E8  0BD2               	decfsz	??___fldiv,f
  5393  00E9  28E3               	goto	u2815
  5394  00EA                     l2255:	
  5395  00EA  084D               	movf	___fldiv@a+3,w
  5396  00EB  025A               	subwf	___fldiv@rem+3,w
  5397  00EC  1D03               	skipz
  5398  00ED  28F8               	goto	u2825
  5399  00EE  084C               	movf	___fldiv@a+2,w
  5400  00EF  0259               	subwf	___fldiv@rem+2,w
  5401  00F0  1D03               	skipz
  5402  00F1  28F8               	goto	u2825
  5403  00F2  084B               	movf	___fldiv@a+1,w
  5404  00F3  0258               	subwf	___fldiv@rem+1,w
  5405  00F4  1D03               	skipz
  5406  00F5  28F8               	goto	u2825
  5407  00F6  084A               	movf	___fldiv@a,w
  5408  00F7  0257               	subwf	___fldiv@rem,w
  5409  00F8                     u2825:	
  5410  00F8  1C03               	skipc
  5411  00F9  28FB               	goto	u2821
  5412  00FA  28FC               	goto	u2820
  5413  00FB                     u2821:	
  5414  00FB  290B               	goto	l2261
  5415  00FC                     u2820:	
  5416  00FC                     l2257:	
  5417  00FC  1761               	bsf	___fldiv@grs+3,6
  5418  00FD                     l2259:	
  5419  00FD  084A               	movf	___fldiv@a,w
  5420  00FE  02D7               	subwf	___fldiv@rem,f
  5421  00FF  084B               	movf	___fldiv@a+1,w
  5422  0100  1C03               	skipc
  5423  0101  0F4B               	incfsz	___fldiv@a+1,w
  5424  0102  02D8               	subwf	___fldiv@rem+1,f
  5425  0103  084C               	movf	___fldiv@a+2,w
  5426  0104  1C03               	skipc
  5427  0105  0F4C               	incfsz	___fldiv@a+2,w
  5428  0106  02D9               	subwf	___fldiv@rem+2,f
  5429  0107  084D               	movf	___fldiv@a+3,w
  5430  0108  1C03               	skipc
  5431  0109  0F4D               	incfsz	___fldiv@a+3,w
  5432  010A  02DA               	subwf	___fldiv@rem+3,f
  5433  010B                     l2261:	
  5434  010B  3001               	movlw	1
  5435  010C  00D2               	movwf	??___fldiv
  5436  010D  0852               	movf	??___fldiv,w
  5437  010E  07E3               	addwf	___fldiv@aexp,f
  5438  010F                     l2263:	
  5439  010F  301A               	movlw	26
  5440  0110  0263               	subwf	___fldiv@aexp,w
  5441  0111  1C03               	skipc
  5442  0112  2914               	goto	u2831
  5443  0113  2915               	goto	u2830
  5444  0114                     u2831:	
  5445  0114  28C5               	goto	l2245
  5446  0115                     u2830:	
  5447  0115                     l2265:	
  5448  0115  085A               	movf	___fldiv@rem+3,w
  5449  0116  0459               	iorwf	___fldiv@rem+2,w
  5450  0117  0458               	iorwf	___fldiv@rem+1,w
  5451  0118  0457               	iorwf	___fldiv@rem,w
  5452  0119  1903               	skipnz
  5453  011A  291C               	goto	u2841
  5454  011B  291D               	goto	u2840
  5455  011C                     u2841:	
  5456  011C  293C               	goto	l2279
  5457  011D                     u2840:	
  5458  011D                     l2267:	
  5459  011D  145E               	bsf	___fldiv@grs,0
  5460  011E  293C               	goto	l2279
  5461  011F                     l2269:	
  5462  011F  3001               	movlw	1
  5463  0120  00D2               	movwf	??___fldiv
  5464  0121                     u2855:	
  5465  0121  1003               	clrc
  5466  0122  0DCE               	rlf	___fldiv@b,f
  5467  0123  0DCF               	rlf	___fldiv@b+1,f
  5468  0124  0DD0               	rlf	___fldiv@b+2,f
  5469  0125  0DD1               	rlf	___fldiv@b+3,f
  5470  0126  0BD2               	decfsz	??___fldiv,f
  5471  0127  2921               	goto	u2855
  5472  0128                     l2271:	
  5473  0128  1FE1               	btfss	___fldiv@grs+3,7
  5474  0129  292B               	goto	u2861
  5475  012A  292C               	goto	u2860
  5476  012B                     u2861:	
  5477  012B  292D               	goto	l2275
  5478  012C                     u2860:	
  5479  012C                     l2273:	
  5480  012C  144E               	bsf	___fldiv@b,0
  5481  012D                     l2275:	
  5482  012D  3001               	movlw	1
  5483  012E  00D2               	movwf	??___fldiv
  5484  012F                     u2875:	
  5485  012F  1003               	clrc
  5486  0130  0DDE               	rlf	___fldiv@grs,f
  5487  0131  0DDF               	rlf	___fldiv@grs+1,f
  5488  0132  0DE0               	rlf	___fldiv@grs+2,f
  5489  0133  0DE1               	rlf	___fldiv@grs+3,f
  5490  0134  0BD2               	decfsz	??___fldiv,f
  5491  0135  292F               	goto	u2875
  5492  0136                     l2277:	
  5493  0136  30FF               	movlw	255
  5494  0137  07DC               	addwf	___fldiv@new_exp,f
  5495  0138  1803               	skipnc
  5496  0139  0ADD               	incf	___fldiv@new_exp+1,f
  5497  013A  30FF               	movlw	255
  5498  013B  07DD               	addwf	___fldiv@new_exp+1,f
  5499  013C                     l2279:	
  5500  013C  1FD0               	btfss	___fldiv@b+2,7
  5501  013D  293F               	goto	u2881
  5502  013E  2940               	goto	u2880
  5503  013F                     u2881:	
  5504  013F  291F               	goto	l2269
  5505  0140                     u2880:	
  5506  0140                     l2281:	
  5507  0140  01E3               	clrf	___fldiv@aexp
  5508  0141                     l2283:	
  5509  0141  1FE1               	btfss	___fldiv@grs+3,7
  5510  0142  2944               	goto	u2891
  5511  0143  2945               	goto	u2890
  5512  0144                     u2891:	
  5513  0144  2961               	goto	l2291
  5514  0145                     u2890:	
  5515  0145                     l2285:	
  5516  0145  30FF               	movlw	255
  5517  0146  055E               	andwf	___fldiv@grs,w
  5518  0147  00D2               	movwf	??___fldiv
  5519  0148  30FF               	movlw	255
  5520  0149  055F               	andwf	___fldiv@grs+1,w
  5521  014A  00D3               	movwf	??___fldiv+1
  5522  014B  30FF               	movlw	255
  5523  014C  0560               	andwf	___fldiv@grs+2,w
  5524  014D  00D4               	movwf	??___fldiv+2
  5525  014E  307F               	movlw	127
  5526  014F  0561               	andwf	___fldiv@grs+3,w
  5527  0150  00D5               	movwf	??___fldiv+3
  5528  0151  0855               	movf	??___fldiv+3,w
  5529  0152  0454               	iorwf	??___fldiv+2,w
  5530  0153  0453               	iorwf	??___fldiv+1,w
  5531  0154  0452               	iorwf	??___fldiv,w
  5532  0155  1903               	skipnz
  5533  0156  2958               	goto	u2901
  5534  0157  2959               	goto	u2900
  5535  0158                     u2901:	
  5536  0158  295C               	goto	l636
  5537  0159                     u2900:	
  5538  0159                     l2287:	
  5539  0159  01E3               	clrf	___fldiv@aexp
  5540  015A  0AE3               	incf	___fldiv@aexp,f
  5541  015B  2961               	goto	l2291
  5542  015C                     l636:	
  5543  015C  1C4E               	btfss	___fldiv@b,0
  5544  015D  295F               	goto	u2911
  5545  015E  2960               	goto	u2910
  5546  015F                     u2911:	
  5547  015F  2961               	goto	l2291
  5548  0160                     u2910:	
  5549  0160  2959               	goto	l2287
  5550  0161                     l2291:	
  5551  0161  0863               	movf	___fldiv@aexp,w
  5552  0162  1903               	btfsc	3,2
  5553  0163  2965               	goto	u2921
  5554  0164  2966               	goto	u2920
  5555  0165                     u2921:	
  5556  0165  2997               	goto	l2301
  5557  0166                     u2920:	
  5558  0166                     l2293:	
  5559  0166  3001               	movlw	1
  5560  0167  07CE               	addwf	___fldiv@b,f
  5561  0168  3000               	movlw	0
  5562  0169  1803               	skipnc
  5563  016A  3001               	movlw	1
  5564  016B  07CF               	addwf	___fldiv@b+1,f
  5565  016C  3000               	movlw	0
  5566  016D  1803               	skipnc
  5567  016E  3001               	movlw	1
  5568  016F  07D0               	addwf	___fldiv@b+2,f
  5569  0170  3000               	movlw	0
  5570  0171  1803               	skipnc
  5571  0172  3001               	movlw	1
  5572  0173  07D1               	addwf	___fldiv@b+3,f
  5573  0174                     l2295:	
  5574  0174  1C51               	btfss	___fldiv@b+3,0
  5575  0175  2977               	goto	u2931
  5576  0176  2978               	goto	u2930
  5577  0177                     u2931:	
  5578  0177  2997               	goto	l2301
  5579  0178                     u2930:	
  5580  0178                     l2297:	
  5581  0178  084E               	movf	___fldiv@b,w
  5582  0179  00D2               	movwf	??___fldiv
  5583  017A  084F               	movf	___fldiv@b+1,w
  5584  017B  00D3               	movwf	??___fldiv+1
  5585  017C  0850               	movf	___fldiv@b+2,w
  5586  017D  00D4               	movwf	??___fldiv+2
  5587  017E  0851               	movf	___fldiv@b+3,w
  5588  017F  00D5               	movwf	??___fldiv+3
  5589  0180  3001               	movlw	1
  5590  0181  00D6               	movwf	??___fldiv+4
  5591  0182                     u2945:	
  5592  0182  0D55               	rlf	??___fldiv+3,w
  5593  0183  0CD5               	rrf	??___fldiv+3,f
  5594  0184  0CD4               	rrf	??___fldiv+2,f
  5595  0185  0CD3               	rrf	??___fldiv+1,f
  5596  0186  0CD2               	rrf	??___fldiv,f
  5597  0187                     u2940:	
  5598  0187  0BD6               	decfsz	??___fldiv+4,f
  5599  0188  2982               	goto	u2945
  5600  0189  0855               	movf	??___fldiv+3,w
  5601  018A  00D1               	movwf	___fldiv@b+3
  5602  018B  0854               	movf	??___fldiv+2,w
  5603  018C  00D0               	movwf	___fldiv@b+2
  5604  018D  0853               	movf	??___fldiv+1,w
  5605  018E  00CF               	movwf	___fldiv@b+1
  5606  018F  0852               	movf	??___fldiv,w
  5607  0190  00CE               	movwf	___fldiv@b
  5608  0191                     l2299:	
  5609  0191  3001               	movlw	1
  5610  0192  07DC               	addwf	___fldiv@new_exp,f
  5611  0193  1803               	skipnc
  5612  0194  0ADD               	incf	___fldiv@new_exp+1,f
  5613  0195  3000               	movlw	0
  5614  0196  07DD               	addwf	___fldiv@new_exp+1,f
  5615  0197                     l2301:	
  5616  0197  085D               	movf	___fldiv@new_exp+1,w
  5617  0198  3A80               	xorlw	128
  5618  0199  00FF               	movwf	btemp+1
  5619  019A  3080               	movlw	128
  5620  019B  027F               	subwf	btemp+1,w
  5621  019C  1D03               	skipz
  5622  019D  29A0               	goto	u2955
  5623  019E  30FF               	movlw	255
  5624  019F  025C               	subwf	___fldiv@new_exp,w
  5625  01A0                     u2955:	
  5626  01A0  1C03               	skipc
  5627  01A1  29A3               	goto	u2951
  5628  01A2  29A4               	goto	u2950
  5629  01A3                     u2951:	
  5630  01A3  29B2               	goto	l2305
  5631  01A4                     u2950:	
  5632  01A4                     l2303:	
  5633  01A4  30FF               	movlw	255
  5634  01A5  1283               	bcf	3,5	;RP0=0, select bank0
  5635  01A6  1303               	bcf	3,6	;RP1=0, select bank0
  5636  01A7  00DC               	movwf	___fldiv@new_exp
  5637  01A8  3000               	movlw	0
  5638  01A9  00DD               	movwf	___fldiv@new_exp+1
  5639  01AA  3000               	movlw	0
  5640  01AB  00D1               	movwf	___fldiv@b+3
  5641  01AC  3000               	movlw	0
  5642  01AD  00D0               	movwf	___fldiv@b+2
  5643  01AE  3000               	movlw	0
  5644  01AF  00CF               	movwf	___fldiv@b+1
  5645  01B0  3000               	movlw	0
  5646  01B1  00CE               	movwf	___fldiv@b
  5647  01B2                     l2305:	
  5648  01B2  1283               	bcf	3,5	;RP0=0, select bank0
  5649  01B3  1303               	bcf	3,6	;RP1=0, select bank0
  5650  01B4  085D               	movf	___fldiv@new_exp+1,w
  5651  01B5  3A80               	xorlw	128
  5652  01B6  00FF               	movwf	btemp+1
  5653  01B7  3080               	movlw	128
  5654  01B8  027F               	subwf	btemp+1,w
  5655  01B9  1D03               	skipz
  5656  01BA  29BD               	goto	u2965
  5657  01BB  3001               	movlw	1
  5658  01BC  025C               	subwf	___fldiv@new_exp,w
  5659  01BD                     u2965:	
  5660  01BD  1803               	skipnc
  5661  01BE  29C0               	goto	u2961
  5662  01BF  29C1               	goto	u2960
  5663  01C0                     u2961:	
  5664  01C0  29CE               	goto	l642
  5665  01C1                     u2960:	
  5666  01C1                     l2307:	
  5667  01C1  1283               	bcf	3,5	;RP0=0, select bank0
  5668  01C2  1303               	bcf	3,6	;RP1=0, select bank0
  5669  01C3  01DC               	clrf	___fldiv@new_exp
  5670  01C4  01DD               	clrf	___fldiv@new_exp+1
  5671  01C5                     l2309:	
  5672  01C5  3000               	movlw	0
  5673  01C6  00D1               	movwf	___fldiv@b+3
  5674  01C7  3000               	movlw	0
  5675  01C8  00D0               	movwf	___fldiv@b+2
  5676  01C9  3000               	movlw	0
  5677  01CA  00CF               	movwf	___fldiv@b+1
  5678  01CB  3000               	movlw	0
  5679  01CC  00CE               	movwf	___fldiv@b
  5680  01CD                     l2311:	
  5681  01CD  01DB               	clrf	___fldiv@sign
  5682  01CE                     l642:	
  5683  01CE  1283               	bcf	3,5	;RP0=0, select bank0
  5684  01CF  1303               	bcf	3,6	;RP1=0, select bank0
  5685  01D0  085C               	movf	___fldiv@new_exp,w
  5686  01D1  00D2               	movwf	??___fldiv
  5687  01D2  0852               	movf	??___fldiv,w
  5688  01D3  00E2               	movwf	___fldiv@bexp
  5689  01D4                     l2313:	
  5690  01D4  1C62               	btfss	___fldiv@bexp,0
  5691  01D5  29D7               	goto	u2971
  5692  01D6  29D8               	goto	u2970
  5693  01D7                     u2971:	
  5694  01D7  29DA               	goto	l2317
  5695  01D8                     u2970:	
  5696  01D8                     l2315:	
  5697  01D8  17D0               	bsf	___fldiv@b+2,7
  5698  01D9  29DE               	goto	l644
  5699  01DA                     l2317:	
  5700  01DA  307F               	movlw	127
  5701  01DB  00D2               	movwf	??___fldiv
  5702  01DC  0852               	movf	??___fldiv,w
  5703  01DD  05D0               	andwf	___fldiv@b+2,f
  5704  01DE                     l644:	
  5705  01DE  0862               	movf	___fldiv@bexp,w
  5706  01DF  00D2               	movwf	??___fldiv
  5707  01E0  1003               	clrc
  5708  01E1  0C52               	rrf	??___fldiv,w
  5709  01E2  00D3               	movwf	??___fldiv+1
  5710  01E3  0853               	movf	??___fldiv+1,w
  5711  01E4  00D1               	movwf	___fldiv@b+3
  5712  01E5  085B               	movf	___fldiv@sign,w
  5713  01E6  00D2               	movwf	??___fldiv
  5714  01E7  0852               	movf	??___fldiv,w
  5715  01E8  04D1               	iorwf	___fldiv@b+3,f
  5716  01E9  2882               	goto	l2225
  5717  01EA                     l622:	
  5718  01EA  0008               	return
  5719  01EB                     __end_of___fldiv:	
  5720                           
  5721                           	psect	text14
  5722  09BF                     __ptext14:	
  5723 ;; *************** function _LCDisplay *****************
  5724 ;; Defined at:
  5725 ;;		line 46 in file "LCD.c"
  5726 ;; Parameters:    Size  Location     Type
  5727 ;;  val             2    3[COMMON] PTR unsigned char 
  5728 ;;		 -> STR_9(2), STR_8(2), STR_7(2), STR_6(2), 
  5729 ;;		 -> decpot1(2), potStr1(3), contStr(1), STR_2(6), 
  5730 ;;		 -> STR_1(4), 
  5731 ;; Auto vars:     Size  Location     Type
  5732 ;;		None
  5733 ;; Return value:  Size  Location     Type
  5734 ;;                  1    wreg      void 
  5735 ;; Registers used:
  5736 ;;		wreg, fsr0l, fsr0h, status,2, status,0, btemp+1, pclath, cstack
  5737 ;; Tracked objects:
  5738 ;;		On entry : 0/0
  5739 ;;		On exit  : 0/0
  5740 ;;		Unchanged: 0/0
  5741 ;; Data sizes:     COMMON   BANK0   BANK1   BANK3   BANK2
  5742 ;;      Params:         2       0       0       0       0
  5743 ;;      Locals:         0       0       0       0       0
  5744 ;;      Temps:          0       0       0       0       0
  5745 ;;      Totals:         2       0       0       0       0
  5746 ;;Total ram usage:        2 bytes
  5747 ;; Hardware stack levels used:    1
  5748 ;; Hardware stack levels required when called:    1
  5749 ;; This function calls:
  5750 ;;		_LCDwrite
  5751 ;; This function is called by:
  5752 ;;		_main
  5753 ;; This function uses a non-reentrant model
  5754 ;;
  5755                           
  5756                           
  5757                           ;psect for function _LCDisplay
  5758  09BF                     _LCDisplay:	
  5759  09BF                     l2041:	
  5760                           ;incstack = 0
  5761                           ; Regs used in _LCDisplay: [wreg-fsr0h+status,2+status,0+btemp+1+pclath+cstack]
  5762                           
  5763                           
  5764                           ;LCD.c: 47:     while(*val){
  5765  09BF  29D4               	goto	l2047
  5766  09C0                     l2043:	
  5767                           
  5768                           ;LCD.c: 48:         LCDwrite(*val++);
  5769  09C0  0874               	movf	LCDisplay@val+1,w
  5770  09C1  00FF               	movwf	btemp+1
  5771  09C2  0873               	movf	LCDisplay@val,w
  5772  09C3  0084               	movwf	4
  5773  09C4  120A  158A  2000  120A  158A  	fcall	stringtab
  5774  09C9  120A  158A  214D  120A  158A  	fcall	_LCDwrite
  5775  09CE                     l2045:	
  5776  09CE  3001               	movlw	1
  5777  09CF  07F3               	addwf	LCDisplay@val,f
  5778  09D0  1803               	skipnc
  5779  09D1  0AF4               	incf	LCDisplay@val+1,f
  5780  09D2  3000               	movlw	0
  5781  09D3  07F4               	addwf	LCDisplay@val+1,f
  5782  09D4                     l2047:	
  5783                           
  5784                           ;LCD.c: 47:     while(*val){
  5785  09D4  0874               	movf	LCDisplay@val+1,w
  5786  09D5  1283               	bcf	3,5	;RP0=0, select bank0
  5787  09D6  1303               	bcf	3,6	;RP1=0, select bank0
  5788  09D7  00FF               	movwf	btemp+1
  5789  09D8  0873               	movf	LCDisplay@val,w
  5790  09D9  0084               	movwf	4
  5791  09DA  120A  158A  2000  120A  158A  	fcall	stringtab
  5792  09DF  3A00               	xorlw	0
  5793  09E0  1D03               	skipz
  5794  09E1  29E3               	goto	u2501
  5795  09E2  29E4               	goto	u2500
  5796  09E3                     u2501:	
  5797  09E3  29C0               	goto	l2043
  5798  09E4                     u2500:	
  5799  09E4                     l96:	
  5800  09E4  0008               	return
  5801  09E5                     __end_of_LCDisplay:	
  5802                           
  5803                           	psect	text15
  5804  094D                     __ptext15:	
  5805 ;; *************** function _LCDwrite *****************
  5806 ;; Defined at:
  5807 ;;		line 38 in file "LCD.c"
  5808 ;; Parameters:    Size  Location     Type
  5809 ;;  dato            1    wreg     unsigned char 
  5810 ;; Auto vars:     Size  Location     Type
  5811 ;;  dato            1    2[COMMON] unsigned char 
  5812 ;; Return value:  Size  Location     Type
  5813 ;;                  1    wreg      void 
  5814 ;; Registers used:
  5815 ;;		wreg
  5816 ;; Tracked objects:
  5817 ;;		On entry : 0/0
  5818 ;;		On exit  : 0/0
  5819 ;;		Unchanged: 0/0
  5820 ;; Data sizes:     COMMON   BANK0   BANK1   BANK3   BANK2
  5821 ;;      Params:         0       0       0       0       0
  5822 ;;      Locals:         1       0       0       0       0
  5823 ;;      Temps:          2       0       0       0       0
  5824 ;;      Totals:         3       0       0       0       0
  5825 ;;Total ram usage:        3 bytes
  5826 ;; Hardware stack levels used:    1
  5827 ;; This function calls:
  5828 ;;		Nothing
  5829 ;; This function is called by:
  5830 ;;		_LCDisplay
  5831 ;; This function uses a non-reentrant model
  5832 ;;
  5833                           
  5834                           
  5835                           ;psect for function _LCDwrite
  5836  094D                     _LCDwrite:	
  5837                           
  5838                           ;incstack = 0
  5839                           ; Regs used in _LCDwrite: [wreg]
  5840                           ;LCDwrite@dato stored from wreg
  5841  094D  00F2               	movwf	LCDwrite@dato
  5842  094E                     l1735:	
  5843                           
  5844                           ;LCD.c: 39:     PORTD = dato;
  5845  094E  0872               	movf	LCDwrite@dato,w
  5846  094F  1283               	bcf	3,5	;RP0=0, select bank0
  5847  0950  1303               	bcf	3,6	;RP1=0, select bank0
  5848  0951  0088               	movwf	8	;volatile
  5849  0952                     l1737:	
  5850                           
  5851                           ;LCD.c: 40:     PORTBbits.RB6 = 1;
  5852  0952  1706               	bsf	6,6	;volatile
  5853  0953                     l1739:	
  5854                           
  5855                           ;LCD.c: 41:     PORTBbits.RB7 = 1;
  5856  0953  1786               	bsf	6,7	;volatile
  5857                           
  5858                           ;LCD.c: 42:     _delay((unsigned long)((4)*(4000000/4000.0)));
  5859  0954  3006               	movlw	6
  5860  0955  00F1               	movwf	??_LCDwrite+1
  5861  0956  3030               	movlw	48
  5862  0957  00F0               	movwf	??_LCDwrite
  5863  0958                     u3537:	
  5864  0958  0BF0               	decfsz	??_LCDwrite,f
  5865  0959  2958               	goto	u3537
  5866  095A  0BF1               	decfsz	??_LCDwrite+1,f
  5867  095B  2958               	goto	u3537
  5868  095C  0000               	nop
  5869  095D                     l1741:	
  5870                           
  5871                           ;LCD.c: 43:     PORTBbits.RB7 = 0;
  5872  095D  1283               	bcf	3,5	;RP0=0, select bank0
  5873  095E  1303               	bcf	3,6	;RP1=0, select bank0
  5874  095F  1386               	bcf	6,7	;volatile
  5875  0960                     l90:	
  5876  0960  0008               	return
  5877  0961                     __end_of_LCDwrite:	
  5878                           
  5879                           	psect	text16
  5880  0961                     __ptext16:	
  5881 ;; *************** function _LCDcursorSet *****************
  5882 ;; Defined at:
  5883 ;;		line 52 in file "LCD.c"
  5884 ;; Parameters:    Size  Location     Type
  5885 ;;  row             1    wreg     unsigned char 
  5886 ;;  column          1    3[COMMON] unsigned char 
  5887 ;; Auto vars:     Size  Location     Type
  5888 ;;  row             1    4[COMMON] unsigned char 
  5889 ;; Return value:  Size  Location     Type
  5890 ;;                  1    wreg      void 
  5891 ;; Registers used:
  5892 ;;		wreg, status,2, status,0, pclath, cstack
  5893 ;; Tracked objects:
  5894 ;;		On entry : 0/0
  5895 ;;		On exit  : 0/0
  5896 ;;		Unchanged: 0/0
  5897 ;; Data sizes:     COMMON   BANK0   BANK1   BANK3   BANK2
  5898 ;;      Params:         1       0       0       0       0
  5899 ;;      Locals:         1       0       0       0       0
  5900 ;;      Temps:          0       0       0       0       0
  5901 ;;      Totals:         2       0       0       0       0
  5902 ;;Total ram usage:        2 bytes
  5903 ;; Hardware stack levels used:    1
  5904 ;; Hardware stack levels required when called:    1
  5905 ;; This function calls:
  5906 ;;		_LCDcmd
  5907 ;; This function is called by:
  5908 ;;		_main
  5909 ;; This function uses a non-reentrant model
  5910 ;;
  5911                           
  5912                           
  5913                           ;psect for function _LCDcursorSet
  5914  0961                     _LCDcursorSet:	
  5915                           
  5916                           ;incstack = 0
  5917                           ; Regs used in _LCDcursorSet: [wreg+status,2+status,0+pclath+cstack]
  5918                           ;LCDcursorSet@row stored from wreg
  5919  0961  00F4               	movwf	LCDcursorSet@row
  5920  0962                     l2033:	
  5921                           
  5922                           ;LCD.c: 53:     if (row == 1){
  5923  0962  0374               	decf	LCDcursorSet@row,w
  5924  0963  1D03               	btfss	3,2
  5925  0964  2966               	goto	u2481
  5926  0965  2967               	goto	u2480
  5927  0966                     u2481:	
  5928  0966  296F               	goto	l2037
  5929  0967                     u2480:	
  5930  0967                     l2035:	
  5931                           
  5932                           ;LCD.c: 54:         LCDcmd(0x80 + column);
  5933  0967  0873               	movf	LCDcursorSet@column,w
  5934  0968  3E80               	addlw	128
  5935  0969  120A  158A  2139  120A  158A  	fcall	_LCDcmd
  5936                           
  5937                           ;LCD.c: 55:     } else if(row == 2){
  5938  096E  297C               	goto	l102
  5939  096F                     l2037:	
  5940  096F  3002               	movlw	2
  5941  0970  0674               	xorwf	LCDcursorSet@row,w
  5942  0971  1D03               	btfss	3,2
  5943  0972  2974               	goto	u2491
  5944  0973  2975               	goto	u2490
  5945  0974                     u2491:	
  5946  0974  297C               	goto	l102
  5947  0975                     u2490:	
  5948  0975                     l2039:	
  5949                           
  5950                           ;LCD.c: 56:         LCDcmd(0xC0 + column);
  5951  0975  0873               	movf	LCDcursorSet@column,w
  5952  0976  3EC0               	addlw	192
  5953  0977  120A  158A  2139  120A  158A  	fcall	_LCDcmd
  5954  097C                     l102:	
  5955  097C  0008               	return
  5956  097D                     __end_of_LCDcursorSet:	
  5957                           
  5958                           	psect	text17
  5959  0AF0                     __ptext17:	
  5960 ;; *************** function _LCD8bits_init *****************
  5961 ;; Defined at:
  5962 ;;		line 14 in file "LCD.c"
  5963 ;; Parameters:    Size  Location     Type
  5964 ;;		None
  5965 ;; Auto vars:     Size  Location     Type
  5966 ;;		None
  5967 ;; Return value:  Size  Location     Type
  5968 ;;                  1    wreg      void 
  5969 ;; Registers used:
  5970 ;;		wreg, status,2, status,0, pclath, cstack
  5971 ;; Tracked objects:
  5972 ;;		On entry : 0/0
  5973 ;;		On exit  : 0/0
  5974 ;;		Unchanged: 0/0
  5975 ;; Data sizes:     COMMON   BANK0   BANK1   BANK3   BANK2
  5976 ;;      Params:         0       0       0       0       0
  5977 ;;      Locals:         0       0       0       0       0
  5978 ;;      Temps:          2       0       0       0       0
  5979 ;;      Totals:         2       0       0       0       0
  5980 ;;Total ram usage:        2 bytes
  5981 ;; Hardware stack levels used:    1
  5982 ;; Hardware stack levels required when called:    1
  5983 ;; This function calls:
  5984 ;;		_LCDcmd
  5985 ;; This function is called by:
  5986 ;;		_main
  5987 ;; This function uses a non-reentrant model
  5988 ;;
  5989                           
  5990                           
  5991                           ;psect for function _LCD8bits_init
  5992  0AF0                     _LCD8bits_init:	
  5993  0AF0                     l2011:	
  5994                           ;incstack = 0
  5995                           ; Regs used in _LCD8bits_init: [wreg+status,2+status,0+pclath+cstack]
  5996                           
  5997                           
  5998                           ;LCD.c: 15:     _delay((unsigned long)((20)*(4000000/4000.0)));
  5999  0AF0  301A               	movlw	26
  6000  0AF1  00F4               	movwf	??_LCD8bits_init+1
  6001  0AF2  30F8               	movlw	248
  6002  0AF3  00F3               	movwf	??_LCD8bits_init
  6003  0AF4                     u3547:	
  6004  0AF4  0BF3               	decfsz	??_LCD8bits_init,f
  6005  0AF5  2AF4               	goto	u3547
  6006  0AF6  0BF4               	decfsz	??_LCD8bits_init+1,f
  6007  0AF7  2AF4               	goto	u3547
  6008  0AF8  0000               	nop
  6009  0AF9                     l2013:	
  6010                           
  6011                           ;LCD.c: 16:     LCDcmd(0x30);
  6012  0AF9  3030               	movlw	48
  6013  0AFA  120A  158A  2139  120A  158A  	fcall	_LCDcmd
  6014  0AFF                     l2015:	
  6015                           
  6016                           ;LCD.c: 17:     _delay((unsigned long)((5)*(4000000/4000.0)));
  6017  0AFF  3007               	movlw	7
  6018  0B00  00F4               	movwf	??_LCD8bits_init+1
  6019  0B01  307D               	movlw	125
  6020  0B02  00F3               	movwf	??_LCD8bits_init
  6021  0B03                     u3557:	
  6022  0B03  0BF3               	decfsz	??_LCD8bits_init,f
  6023  0B04  2B03               	goto	u3557
  6024  0B05  0BF4               	decfsz	??_LCD8bits_init+1,f
  6025  0B06  2B03               	goto	u3557
  6026                           
  6027                           ;LCD.c: 18:     LCDcmd(0x30);
  6028  0B07  3030               	movlw	48
  6029  0B08  120A  158A  2139  120A  158A  	fcall	_LCDcmd
  6030  0B0D                     l2017:	
  6031                           
  6032                           ;LCD.c: 19:     _delay((unsigned long)((1)*(4000000/4000.0)));
  6033  0B0D  30C7               	movlw	199
  6034  0B0E  00F3               	movwf	??_LCD8bits_init
  6035  0B0F                     u3567:	
  6036  0B0F  2B10               	nop2
  6037  0B10  0BF3               	decfsz	??_LCD8bits_init,f
  6038  0B11  2B0F               	goto	u3567
  6039  0B12  2B13               	nop2
  6040  0B13  2B14               	nop2
  6041  0B14                     l2019:	
  6042                           
  6043                           ;LCD.c: 20:     LCDcmd(0x30);
  6044  0B14  3030               	movlw	48
  6045  0B15  120A  158A  2139  120A  158A  	fcall	_LCDcmd
  6046                           
  6047                           ;LCD.c: 21:     _delay((unsigned long)((1)*(4000000/4000.0)));
  6048  0B1A  30C7               	movlw	199
  6049  0B1B  00F3               	movwf	??_LCD8bits_init
  6050  0B1C                     u3577:	
  6051  0B1C  2B1D               	nop2
  6052  0B1D  0BF3               	decfsz	??_LCD8bits_init,f
  6053  0B1E  2B1C               	goto	u3577
  6054  0B1F  2B20               	nop2
  6055  0B20  2B21               	nop2
  6056  0B21                     l2021:	
  6057                           
  6058                           ;LCD.c: 22:     LCDcmd(0x38);
  6059  0B21  3038               	movlw	56
  6060  0B22  120A  158A  2139  120A  158A  	fcall	_LCDcmd
  6061  0B27                     l2023:	
  6062                           
  6063                           ;LCD.c: 23:     LCDcmd(0x10);
  6064  0B27  3010               	movlw	16
  6065  0B28  120A  158A  2139  120A  158A  	fcall	_LCDcmd
  6066  0B2D                     l2025:	
  6067                           
  6068                           ;LCD.c: 24:     LCDcmd(0x01);
  6069  0B2D  3001               	movlw	1
  6070  0B2E  120A  158A  2139  120A  158A  	fcall	_LCDcmd
  6071  0B33                     l2027:	
  6072                           
  6073                           ;LCD.c: 25:     LCDcmd(0x06);
  6074  0B33  3006               	movlw	6
  6075  0B34  120A  158A  2139  120A  158A  	fcall	_LCDcmd
  6076  0B39                     l2029:	
  6077                           
  6078                           ;LCD.c: 26:     LCDcmd(0x0C);
  6079  0B39  300C               	movlw	12
  6080  0B3A  120A  158A  2139  120A  158A  	fcall	_LCDcmd
  6081  0B3F                     l2031:	
  6082                           
  6083                           ;LCD.c: 27:     LCDcmd(0x80);
  6084  0B3F  3080               	movlw	128
  6085  0B40  120A  158A  2139  120A  158A  	fcall	_LCDcmd
  6086  0B45                     l84:	
  6087  0B45  0008               	return
  6088  0B46                     __end_of_LCD8bits_init:	
  6089                           
  6090                           	psect	text18
  6091  0939                     __ptext18:	
  6092 ;; *************** function _LCDcmd *****************
  6093 ;; Defined at:
  6094 ;;		line 30 in file "LCD.c"
  6095 ;; Parameters:    Size  Location     Type
  6096 ;;  cmd             1    wreg     unsigned char 
  6097 ;; Auto vars:     Size  Location     Type
  6098 ;;  cmd             1    2[COMMON] unsigned char 
  6099 ;; Return value:  Size  Location     Type
  6100 ;;                  1    wreg      void 
  6101 ;; Registers used:
  6102 ;;		wreg
  6103 ;; Tracked objects:
  6104 ;;		On entry : 0/0
  6105 ;;		On exit  : 0/0
  6106 ;;		Unchanged: 0/0
  6107 ;; Data sizes:     COMMON   BANK0   BANK1   BANK3   BANK2
  6108 ;;      Params:         0       0       0       0       0
  6109 ;;      Locals:         1       0       0       0       0
  6110 ;;      Temps:          2       0       0       0       0
  6111 ;;      Totals:         3       0       0       0       0
  6112 ;;Total ram usage:        3 bytes
  6113 ;; Hardware stack levels used:    1
  6114 ;; This function calls:
  6115 ;;		Nothing
  6116 ;; This function is called by:
  6117 ;;		_LCD8bits_init
  6118 ;;		_LCDcursorSet
  6119 ;; This function uses a non-reentrant model
  6120 ;;
  6121                           
  6122                           
  6123                           ;psect for function _LCDcmd
  6124  0939                     _LCDcmd:	
  6125                           
  6126                           ;incstack = 0
  6127                           ; Regs used in _LCDcmd: [wreg]
  6128                           ;LCDcmd@cmd stored from wreg
  6129  0939  00F2               	movwf	LCDcmd@cmd
  6130  093A                     l1727:	
  6131                           
  6132                           ;LCD.c: 31:     PORTD = cmd;
  6133  093A  0872               	movf	LCDcmd@cmd,w
  6134  093B  1283               	bcf	3,5	;RP0=0, select bank0
  6135  093C  1303               	bcf	3,6	;RP1=0, select bank0
  6136  093D  0088               	movwf	8	;volatile
  6137  093E                     l1729:	
  6138                           
  6139                           ;LCD.c: 32:     PORTBbits.RB6 = 0;
  6140  093E  1306               	bcf	6,6	;volatile
  6141  093F                     l1731:	
  6142                           
  6143                           ;LCD.c: 33:     PORTBbits.RB7 = 1;
  6144  093F  1786               	bsf	6,7	;volatile
  6145                           
  6146                           ;LCD.c: 34:     _delay((unsigned long)((4)*(4000000/4000.0)));
  6147  0940  3006               	movlw	6
  6148  0941  00F1               	movwf	??_LCDcmd+1
  6149  0942  3030               	movlw	48
  6150  0943  00F0               	movwf	??_LCDcmd
  6151  0944                     u3587:	
  6152  0944  0BF0               	decfsz	??_LCDcmd,f
  6153  0945  2944               	goto	u3587
  6154  0946  0BF1               	decfsz	??_LCDcmd+1,f
  6155  0947  2944               	goto	u3587
  6156  0948  0000               	nop
  6157  0949                     l1733:	
  6158                           
  6159                           ;LCD.c: 35:     PORTBbits.RB7 = 0;
  6160  0949  1283               	bcf	3,5	;RP0=0, select bank0
  6161  094A  1303               	bcf	3,6	;RP1=0, select bank0
  6162  094B  1386               	bcf	6,7	;volatile
  6163  094C                     l87:	
  6164  094C  0008               	return
  6165  094D                     __end_of_LCDcmd:	
  6166                           
  6167                           	psect	text19
  6168  0004                     __ptext19:	
  6169 ;; *************** function _I2C_Master_Write *****************
  6170 ;; Defined at:
  6171 ;;		line 66 in file "I2C.c"
  6172 ;; Parameters:    Size  Location     Type
  6173 ;;  d               2    0[COMMON] unsigned int 
  6174 ;; Auto vars:     Size  Location     Type
  6175 ;;		None
  6176 ;; Return value:  Size  Location     Type
  6177 ;;                  1    wreg      void 
  6178 ;; Registers used:
  6179 ;;		wreg, status,2, status,0, pclath, cstack
  6180 ;; Tracked objects:
  6181 ;;		On entry : 0/0
  6182 ;;		On exit  : 0/0
  6183 ;;		Unchanged: 0/0
  6184 ;; Data sizes:     COMMON   BANK0   BANK1   BANK3   BANK2
  6185 ;;      Params:         2       0       0       0       0
  6186 ;;      Locals:         0       0       0       0       0
  6187 ;;      Temps:          0       0       0       0       0
  6188 ;;      Totals:         2       0       0       0       0
  6189 ;;Total ram usage:        2 bytes
  6190 ;; Hardware stack levels used:    1
  6191 ;; Hardware stack levels required when called:    1
  6192 ;; This function calls:
  6193 ;;		_I2C_Master_Wait
  6194 ;; This function is called by:
  6195 ;;		_main
  6196 ;; This function uses a non-reentrant model
  6197 ;;
  6198                           
  6199                           
  6200                           ;psect for function _I2C_Master_Write
  6201  0004                     _I2C_Master_Write:	
  6202  0004                     l2053:	
  6203                           ;incstack = 0
  6204                           ; Regs used in _I2C_Master_Write: [wreg+status,2+status,0+pclath+cstack]
  6205                           
  6206                           
  6207                           ;I2C.c: 66: void I2C_Master_Write(unsigned d);I2C.c: 67: {;I2C.c: 68:     I2C_Master_Wai
      +                          t();
  6208  0004  120A  158A  212C  120A  118A  	fcall	_I2C_Master_Wait
  6209  0009                     l2055:	
  6210                           
  6211                           ;I2C.c: 69:     SSPBUF = d;
  6212  0009  0870               	movf	I2C_Master_Write@d,w
  6213  000A  1283               	bcf	3,5	;RP0=0, select bank0
  6214  000B  1303               	bcf	3,6	;RP1=0, select bank0
  6215  000C  0093               	movwf	19	;volatile
  6216  000D                     l149:	
  6217  000D  0008               	return
  6218  000E                     __end_of_I2C_Master_Write:	
  6219                           
  6220                           	psect	text20
  6221  0923                     __ptext20:	
  6222 ;; *************** function _I2C_Master_Stop *****************
  6223 ;; Defined at:
  6224 ;;		line 56 in file "I2C.c"
  6225 ;; Parameters:    Size  Location     Type
  6226 ;;		None
  6227 ;; Auto vars:     Size  Location     Type
  6228 ;;		None
  6229 ;; Return value:  Size  Location     Type
  6230 ;;                  1    wreg      void 
  6231 ;; Registers used:
  6232 ;;		wreg, status,2, status,0, pclath, cstack
  6233 ;; Tracked objects:
  6234 ;;		On entry : 0/0
  6235 ;;		On exit  : 0/0
  6236 ;;		Unchanged: 0/0
  6237 ;; Data sizes:     COMMON   BANK0   BANK1   BANK3   BANK2
  6238 ;;      Params:         0       0       0       0       0
  6239 ;;      Locals:         0       0       0       0       0
  6240 ;;      Temps:          0       0       0       0       0
  6241 ;;      Totals:         0       0       0       0       0
  6242 ;;Total ram usage:        0 bytes
  6243 ;; Hardware stack levels used:    1
  6244 ;; Hardware stack levels required when called:    1
  6245 ;; This function calls:
  6246 ;;		_I2C_Master_Wait
  6247 ;; This function is called by:
  6248 ;;		_main
  6249 ;; This function uses a non-reentrant model
  6250 ;;
  6251                           
  6252                           
  6253                           ;psect for function _I2C_Master_Stop
  6254  0923                     _I2C_Master_Stop:	
  6255  0923                     l2073:	
  6256                           ;incstack = 0
  6257                           ; Regs used in _I2C_Master_Stop: [wreg+status,2+status,0+pclath+cstack]
  6258                           
  6259                           
  6260                           ;I2C.c: 58:     I2C_Master_Wait();
  6261  0923  120A  158A  212C  120A  158A  	fcall	_I2C_Master_Wait
  6262  0928                     l2075:	
  6263                           
  6264                           ;I2C.c: 59:     SSPCON2bits.PEN = 1;
  6265  0928  1683               	bsf	3,5	;RP0=1, select bank1
  6266  0929  1303               	bcf	3,6	;RP1=0, select bank1
  6267  092A  1511               	bsf	17,2	;volatile
  6268  092B                     l146:	
  6269  092B  0008               	return
  6270  092C                     __end_of_I2C_Master_Stop:	
  6271                           
  6272                           	psect	text21
  6273  091A                     __ptext21:	
  6274 ;; *************** function _I2C_Master_Start *****************
  6275 ;; Defined at:
  6276 ;;		line 40 in file "I2C.c"
  6277 ;; Parameters:    Size  Location     Type
  6278 ;;		None
  6279 ;; Auto vars:     Size  Location     Type
  6280 ;;		None
  6281 ;; Return value:  Size  Location     Type
  6282 ;;                  1    wreg      void 
  6283 ;; Registers used:
  6284 ;;		wreg, status,2, status,0, pclath, cstack
  6285 ;; Tracked objects:
  6286 ;;		On entry : 0/0
  6287 ;;		On exit  : 0/0
  6288 ;;		Unchanged: 0/0
  6289 ;; Data sizes:     COMMON   BANK0   BANK1   BANK3   BANK2
  6290 ;;      Params:         0       0       0       0       0
  6291 ;;      Locals:         0       0       0       0       0
  6292 ;;      Temps:          0       0       0       0       0
  6293 ;;      Totals:         0       0       0       0       0
  6294 ;;Total ram usage:        0 bytes
  6295 ;; Hardware stack levels used:    1
  6296 ;; Hardware stack levels required when called:    1
  6297 ;; This function calls:
  6298 ;;		_I2C_Master_Wait
  6299 ;; This function is called by:
  6300 ;;		_main
  6301 ;; This function uses a non-reentrant model
  6302 ;;
  6303                           
  6304                           
  6305                           ;psect for function _I2C_Master_Start
  6306  091A                     _I2C_Master_Start:	
  6307  091A                     l2049:	
  6308                           ;incstack = 0
  6309                           ; Regs used in _I2C_Master_Start: [wreg+status,2+status,0+pclath+cstack]
  6310                           
  6311                           
  6312                           ;I2C.c: 42:     I2C_Master_Wait();
  6313  091A  120A  158A  212C  120A  158A  	fcall	_I2C_Master_Wait
  6314  091F                     l2051:	
  6315                           
  6316                           ;I2C.c: 43:     SSPCON2bits.SEN = 1;
  6317  091F  1683               	bsf	3,5	;RP0=1, select bank1
  6318  0920  1303               	bcf	3,6	;RP1=0, select bank1
  6319  0921  1411               	bsf	17,0	;volatile
  6320  0922                     l140:	
  6321  0922  0008               	return
  6322  0923                     __end_of_I2C_Master_Start:	
  6323                           
  6324                           	psect	text22
  6325  0A0C                     __ptext22:	
  6326 ;; *************** function _I2C_Master_Read *****************
  6327 ;; Defined at:
  6328 ;;		line 75 in file "I2C.c"
  6329 ;; Parameters:    Size  Location     Type
  6330 ;;  a               2    0[COMMON] unsigned short 
  6331 ;; Auto vars:     Size  Location     Type
  6332 ;;  temp            2    4[COMMON] unsigned short 
  6333 ;; Return value:  Size  Location     Type
  6334 ;;                  2    0[COMMON] unsigned short 
  6335 ;; Registers used:
  6336 ;;		wreg, status,2, status,0, pclath, cstack
  6337 ;; Tracked objects:
  6338 ;;		On entry : 0/0
  6339 ;;		On exit  : 0/0
  6340 ;;		Unchanged: 0/0
  6341 ;; Data sizes:     COMMON   BANK0   BANK1   BANK3   BANK2
  6342 ;;      Params:         2       0       0       0       0
  6343 ;;      Locals:         2       0       0       0       0
  6344 ;;      Temps:          2       0       0       0       0
  6345 ;;      Totals:         6       0       0       0       0
  6346 ;;Total ram usage:        6 bytes
  6347 ;; Hardware stack levels used:    1
  6348 ;; Hardware stack levels required when called:    1
  6349 ;; This function calls:
  6350 ;;		_I2C_Master_Wait
  6351 ;; This function is called by:
  6352 ;;		_main
  6353 ;; This function uses a non-reentrant model
  6354 ;;
  6355                           
  6356                           
  6357                           ;psect for function _I2C_Master_Read
  6358  0A0C                     _I2C_Master_Read:	
  6359  0A0C                     l2057:	
  6360                           ;incstack = 0
  6361                           ; Regs used in _I2C_Master_Read: [wreg+status,2+status,0+pclath+cstack]
  6362                           
  6363                           
  6364                           ;I2C.c: 75: unsigned short I2C_Master_Read(unsigned short a);I2C.c: 76: {;I2C.c: 77:    
      +                           unsigned short temp;;I2C.c: 78:     I2C_Master_Wait();
  6365  0A0C  120A  158A  212C  120A  158A  	fcall	_I2C_Master_Wait
  6366  0A11                     l2059:	
  6367                           
  6368                           ;I2C.c: 79:     SSPCON2bits.RCEN = 1;
  6369  0A11  1683               	bsf	3,5	;RP0=1, select bank1
  6370  0A12  1303               	bcf	3,6	;RP1=0, select bank1
  6371  0A13  1591               	bsf	17,3	;volatile
  6372                           
  6373                           ;I2C.c: 80:     I2C_Master_Wait();
  6374  0A14  120A  158A  212C  120A  158A  	fcall	_I2C_Master_Wait
  6375  0A19                     l2061:	
  6376                           
  6377                           ;I2C.c: 81:     temp = SSPBUF;
  6378  0A19  1283               	bcf	3,5	;RP0=0, select bank0
  6379  0A1A  1303               	bcf	3,6	;RP1=0, select bank0
  6380  0A1B  0813               	movf	19,w	;volatile
  6381  0A1C  00F2               	movwf	??_I2C_Master_Read
  6382  0A1D  01F3               	clrf	??_I2C_Master_Read+1
  6383  0A1E  0872               	movf	??_I2C_Master_Read,w
  6384  0A1F  00F4               	movwf	I2C_Master_Read@temp
  6385  0A20  0873               	movf	??_I2C_Master_Read+1,w
  6386  0A21  00F5               	movwf	I2C_Master_Read@temp+1
  6387  0A22                     l2063:	
  6388                           
  6389                           ;I2C.c: 82:     I2C_Master_Wait();
  6390  0A22  120A  158A  212C  120A  158A  	fcall	_I2C_Master_Wait
  6391  0A27                     l2065:	
  6392                           
  6393                           ;I2C.c: 83:     if(a == 1){
  6394  0A27  0370               	decf	I2C_Master_Read@a,w
  6395  0A28  0471               	iorwf	I2C_Master_Read@a+1,w
  6396  0A29  1D03               	btfss	3,2
  6397  0A2A  2A2C               	goto	u2511
  6398  0A2B  2A2D               	goto	u2510
  6399  0A2C                     u2511:	
  6400  0A2C  2A31               	goto	l152
  6401  0A2D                     u2510:	
  6402  0A2D                     l2067:	
  6403                           
  6404                           ;I2C.c: 84:         SSPCON2bits.ACKDT = 0;
  6405  0A2D  1683               	bsf	3,5	;RP0=1, select bank1
  6406  0A2E  1303               	bcf	3,6	;RP1=0, select bank1
  6407  0A2F  1291               	bcf	17,5	;volatile
  6408                           
  6409                           ;I2C.c: 85:     }else{
  6410  0A30  2A34               	goto	l153
  6411  0A31                     l152:	
  6412                           
  6413                           ;I2C.c: 86:         SSPCON2bits.ACKDT = 1;
  6414  0A31  1683               	bsf	3,5	;RP0=1, select bank1
  6415  0A32  1303               	bcf	3,6	;RP1=0, select bank1
  6416  0A33  1691               	bsf	17,5	;volatile
  6417  0A34                     l153:	
  6418                           ;I2C.c: 87:     }
  6419                           
  6420                           
  6421                           ;I2C.c: 88:     SSPCON2bits.ACKEN = 1;
  6422  0A34  1611               	bsf	17,4	;volatile
  6423  0A35                     l2069:	
  6424                           
  6425                           ;I2C.c: 89:     return temp;
  6426  0A35  0875               	movf	I2C_Master_Read@temp+1,w
  6427  0A36  00F1               	movwf	?_I2C_Master_Read+1
  6428  0A37  0874               	movf	I2C_Master_Read@temp,w
  6429  0A38  00F0               	movwf	?_I2C_Master_Read
  6430  0A39                     l154:	
  6431  0A39  0008               	return
  6432  0A3A                     __end_of_I2C_Master_Read:	
  6433                           
  6434                           	psect	text23
  6435  092C                     __ptext23:	
  6436 ;; *************** function _I2C_Master_Wait *****************
  6437 ;; Defined at:
  6438 ;;		line 33 in file "I2C.c"
  6439 ;; Parameters:    Size  Location     Type
  6440 ;;		None
  6441 ;; Auto vars:     Size  Location     Type
  6442 ;;		None
  6443 ;; Return value:  Size  Location     Type
  6444 ;;                  1    wreg      void 
  6445 ;; Registers used:
  6446 ;;		wreg, status,2
  6447 ;; Tracked objects:
  6448 ;;		On entry : 0/0
  6449 ;;		On exit  : 0/0
  6450 ;;		Unchanged: 0/0
  6451 ;; Data sizes:     COMMON   BANK0   BANK1   BANK3   BANK2
  6452 ;;      Params:         0       0       0       0       0
  6453 ;;      Locals:         0       0       0       0       0
  6454 ;;      Temps:          0       0       0       0       0
  6455 ;;      Totals:         0       0       0       0       0
  6456 ;;Total ram usage:        0 bytes
  6457 ;; Hardware stack levels used:    1
  6458 ;; This function calls:
  6459 ;;		Nothing
  6460 ;; This function is called by:
  6461 ;;		_I2C_Master_Start
  6462 ;;		_I2C_Master_Stop
  6463 ;;		_I2C_Master_Write
  6464 ;;		_I2C_Master_Read
  6465 ;;		_I2C_Master_RepeatedStart
  6466 ;; This function uses a non-reentrant model
  6467 ;;
  6468                           
  6469                           
  6470                           ;psect for function _I2C_Master_Wait
  6471  092C                     _I2C_Master_Wait:	
  6472  092C                     l1743:	
  6473                           ;incstack = 0
  6474                           ; Regs used in _I2C_Master_Wait: [wreg+status,2]
  6475                           
  6476  092C                     l134:	
  6477                           ;I2C.c: 35:     while ((SSPSTAT & 0x04) || (SSPCON2 & 0x1F));
  6478                           
  6479  092C  1683               	bsf	3,5	;RP0=1, select bank1
  6480  092D  1303               	bcf	3,6	;RP1=0, select bank1
  6481  092E  1914               	btfsc	20,2	;volatile
  6482  092F  2931               	goto	u1841
  6483  0930  2932               	goto	u1840
  6484  0931                     u1841:	
  6485  0931  292C               	goto	l134
  6486  0932                     u1840:	
  6487  0932                     l1745:	
  6488  0932  0811               	movf	17,w	;volatile
  6489  0933  391F               	andlw	31
  6490  0934  1D03               	btfss	3,2
  6491  0935  2937               	goto	u1851
  6492  0936  2938               	goto	u1850
  6493  0937                     u1851:	
  6494  0937  292C               	goto	l134
  6495  0938                     u1850:	
  6496  0938                     l137:	
  6497  0938  0008               	return
  6498  0939                     __end_of_I2C_Master_Wait:	
  6499  007E                     btemp	set	126	;btemp
  6500  007E                     wtemp0	set	126


Data Sizes:
    Strings     19
    Constant    10
    Data        0
    BSS         20
    Persistent  0
    Stack       0

Auto Spaces:
    Space          Size  Autos    Used
    COMMON           14     14      14
    BANK0            80     72      79
    BANK1            80      0      13
    BANK3            96      0       0
    BANK2            96      0       0

Pointer List with Targets:

    sprintf@f	PTR const unsigned char  size(1) Largest target is 3
		 -> STR_5(CODE[3]), STR_4(CODE[3]), STR_3(CODE[3]), 

    sprintf@sp	PTR unsigned char  size(1) Largest target is 3
		 -> decpot1(BANK1[2]), potStr1(BANK1[3]), contStr(BANK0[1]), 

    sprintf@ap	PTR void [1] size(1) Largest target is 2
		 -> ?_sprintf(BANK0[2]), 

    LCDisplay@val	PTR unsigned char  size(2) Largest target is 6
		 -> STR_9(CODE[2]), STR_8(CODE[2]), STR_7(CODE[2]), STR_6(CODE[2]), 
		 -> decpot1(BANK1[2]), potStr1(BANK1[3]), contStr(BANK0[1]), STR_2(CODE[6]), 
		 -> STR_1(CODE[4]), 


Critical Paths under _main in COMMON

    _main->___xxtofl
    _sprintf->___lwmod
    ___lwmod->___lwdiv
    _I2C_Master_Init->___lldiv
    ___flsub->___xxtofl
    ___flmul->___xxtofl
    _LCDisplay->_LCDwrite
    _LCDcursorSet->_LCDcmd
    _LCD8bits_init->_LCDcmd

Critical Paths under _main in BANK0

    _main->___fldiv
    _config->_I2C_Master_Init
    ___flsub->___fladd
    ___flmul->___flsub
    ___fldiv->___flmul

Critical Paths under _main in BANK1

    None.

Critical Paths under _main in BANK3

    None.

Critical Paths under _main in BANK2

    None.

Call Graph Tables:

 ---------------------------------------------------------------------------------
 (Depth) Function   	        Calls       Base Space   Used Autos Params    Refs
 ---------------------------------------------------------------------------------
 (0) _main                                                 4     4      0   10581
                                             68 BANK0      4     4      0
                    _I2C_Master_Read
                   _I2C_Master_Start
                    _I2C_Master_Stop
                   _I2C_Master_Write
                      _LCD8bits_init
                       _LCDcursorSet
                          _LCDisplay
                            ___fldiv
                            ___flmul
                            ___flsub
                            ___fltol
                           ___xxtofl
                             _config
                            _sprintf
 ---------------------------------------------------------------------------------
 (1) _sprintf                                             21    18      3    1429
                                              0 BANK0     13    10      3
                            ___lwdiv
                            ___lwmod
 ---------------------------------------------------------------------------------
 (2) ___lwmod                                              6     2      4     311
                                              8 COMMON     6     2      4
                            ___lwdiv (ARG)
 ---------------------------------------------------------------------------------
 (2) ___lwdiv                                              8     4      4     314
                                              0 COMMON     8     4      4
 ---------------------------------------------------------------------------------
 (1) _config                                               0     0      0     412
                    _I2C_Master_Init
 ---------------------------------------------------------------------------------
 (2) _I2C_Master_Init                                      8     4      4     412
                                              0 BANK0      8     4      4
                            ___lldiv
 ---------------------------------------------------------------------------------
 (3) ___lldiv                                             14     6      8     314
                                              0 COMMON    14     6      8
 ---------------------------------------------------------------------------------
 (1) ___xxtofl                                            14    10      4     474
                                              0 COMMON    14    10      4
 ---------------------------------------------------------------------------------
 (1) ___fltol                                             11     7      4     381
                                              0 COMMON    11     7      4
 ---------------------------------------------------------------------------------
 (1) ___flsub                                              8     0      8    2333
                                              8 BANK0      8     0      8
                            ___fladd
                           ___xxtofl (ARG)
 ---------------------------------------------------------------------------------
 (2) ___fladd                                             20    12      8    2136
                                              0 COMMON    12     4      8
                                              0 BANK0      8     8      0
 ---------------------------------------------------------------------------------
 (1) ___flmul                                             26    18      8    2569
                                             16 BANK0     26    18      8
                          __Umul8_16
                            ___flsub (ARG)
                           ___xxtofl (ARG)
 ---------------------------------------------------------------------------------
 (2) __Umul8_16                                            9     7      2     799
                                              0 COMMON     9     7      2
 ---------------------------------------------------------------------------------
 (1) ___fldiv                                             26    18      8    1273
                                             42 BANK0     26    18      8
                            ___flmul (ARG)
 ---------------------------------------------------------------------------------
 (1) _LCDisplay                                            2     0      2     903
                                              3 COMMON     2     0      2
                           _LCDwrite
 ---------------------------------------------------------------------------------
 (2) _LCDwrite                                             3     3      0      22
                                              0 COMMON     3     3      0
 ---------------------------------------------------------------------------------
 (1) _LCDcursorSet                                         2     1      1     414
                                              3 COMMON     2     1      1
                             _LCDcmd
 ---------------------------------------------------------------------------------
 (1) _LCD8bits_init                                        2     2      0      22
                                              3 COMMON     2     2      0
                             _LCDcmd
 ---------------------------------------------------------------------------------
 (2) _LCDcmd                                               3     3      0      22
                                              0 COMMON     3     3      0
 ---------------------------------------------------------------------------------
 (1) _I2C_Master_Write                                     2     0      2     174
                                              0 COMMON     2     0      2
                    _I2C_Master_Wait
 ---------------------------------------------------------------------------------
 (1) _I2C_Master_Stop                                      0     0      0       0
                    _I2C_Master_Wait
 ---------------------------------------------------------------------------------
 (1) _I2C_Master_Start                                     0     0      0       0
                    _I2C_Master_Wait
 ---------------------------------------------------------------------------------
 (1) _I2C_Master_Read                                      6     4      2     197
                                              0 COMMON     6     4      2
                    _I2C_Master_Wait
 ---------------------------------------------------------------------------------
 (2) _I2C_Master_Wait                                      0     0      0       0
 ---------------------------------------------------------------------------------
 Estimated maximum stack depth 3
 ---------------------------------------------------------------------------------

 Call Graph Graphs:

 _main (ROOT)
   _I2C_Master_Read
     _I2C_Master_Wait
   _I2C_Master_Start
     _I2C_Master_Wait
   _I2C_Master_Stop
     _I2C_Master_Wait
   _I2C_Master_Write
     _I2C_Master_Wait
   _LCD8bits_init
     _LCDcmd
   _LCDcursorSet
     _LCDcmd
   _LCDisplay
     _LCDwrite
   ___fldiv
     ___flmul (ARG)
       __Umul8_16
       ___flsub (ARG)
         ___fladd
         ___xxtofl (ARG)
       ___xxtofl (ARG)
   ___flmul
     __Umul8_16
     ___flsub (ARG)
       ___fladd
       ___xxtofl (ARG)
     ___xxtofl (ARG)
   ___flsub
     ___fladd
     ___xxtofl (ARG)
   ___fltol
   ___xxtofl
   _config
     _I2C_Master_Init
       ___lldiv
   _sprintf
     ___lwdiv
     ___lwmod
       ___lwdiv (ARG)

 Address spaces:
Name               Size   Autos  Total    Cost      Usage
BITCOMMON            E      0       0       0        0.0%
EEDATA             100      0       0       0        0.0%
NULL                 0      0       0       0        0.0%
CODE                 0      0       0       0        0.0%
COMMON               E      E       E       1      100.0%
BITSFR0              0      0       0       1        0.0%
SFR0                 0      0       0       1        0.0%
BITSFR1              0      0       0       2        0.0%
SFR1                 0      0       0       2        0.0%
STACK                0      0       0       2        0.0%
ABS                  0      0      6A       3        0.0%
BITBANK0            50      0       0       4        0.0%
BITSFR3              0      0       0       4        0.0%
SFR3                 0      0       0       4        0.0%
BANK0               50     48      4F       5       98.8%
BITSFR2              0      0       0       5        0.0%
SFR2                 0      0       0       5        0.0%
BITBANK1            50      0       0       6        0.0%
BANK1               50      0       D       7       16.3%
BITBANK3            60      0       0       8        0.0%
BANK3               60      0       0       9        0.0%
BITBANK2            60      0       0      10        0.0%
BANK2               60      0       0      11        0.0%
DATA                 0      0      6A      12        0.0%


Microchip Technology PIC Macro Assembler V2.10 build 88905656 
Symbol Table                                                                                   Tue Feb 25 14:07:09 2020

             ___fldiv@aexp 0063               ___fldiv@bexp 0062                          pc 0002  
             ___fldiv@sign 005B                __CFG_CP$OFF 0000                         l73 099A  
                       l65 0FC3                         l90 0960                         l84 0B45  
                       l87 094C                         l96 09E4                         fsr 0004  
      __Umul8_16@word_mpld 0076                        l102 097C                        l131 0A71  
                      l140 0922                        l134 092C                        l152 0A31  
                      l137 0938                        l153 0A34                        l154 0A39  
                      l146 092B                        l307 0BAB                        l149 000D  
                      l610 09BE                        l267 0DC7                        l620 006A  
                      l700 0CDF                        l622 01EA                        l606 0474  
                      l607 0482                        l711 0CA9                        l543 0AEF  
                      l464 0C10                        l712 0CB5                        l704 0C8D  
                      l457 0C25                        l553 0AAB                        l642 01CE  
                      l570 02CC                        l467 0C25                        l644 01DE  
                      l636 015C                        l660 07E3                        l564 024E  
                      l717 09F9                        l719 0A0B                        l672 07D7  
                      l568 02F7                        l585 03C8                        l577 0482  
                      l666 074F                        l595 0410                        l589 03EE  
                      l598 0450                        l698 0C48                        _GIE 005F  
             __CFG_CPD$OFF 0000                        _va1 006C                        fsr0 0004  
                      indf 0000               ___flmul@aexp 0042               ___flmul@bexp 0043  
             ___flmul@sign 003D               ___flmul@temp 0048               ___flmul@prod 0044  
             __CFG_LVP$OFF 0000               ___fltol@exp1 007A                       l2011 0AF0  
                     l2003 097D                       l2021 0B21                       l2013 0AF9  
                     l2005 0985                       l2101 0D31                       l2031 0B3F  
                     l2023 0B27                       l2015 0AFF                       l2007 0986  
                     l2111 0D4F                       l2025 0B2D                       l2017 0B0D  
                     l2033 0962                       l2041 09BF                       l2201 003D  
                     l2009 098D                       l2121 0D6F                       l2113 0D59  
                     l2051 091F                       l2027 0B33                       l2019 0B14  
                     l2035 0967                       l2043 09C0                       l2211 0052  
                     l2203 0042                       l2123 0D9D                       l2115 0D5F  
                     l2107 0D33                       l2131 0DC3                       l2061 0A19  
                     l2053 0004                       l2029 0B39                       l2037 096F  
                     l2045 09CE                       l2301 0197                       l2221 0072  
                     l2213 0057                       l2205 0048                       l2141 0BB7  
                     l2125 0DA4                       l2117 0D66                       l2063 0A22  
                     l2055 0009                       l2039 0975                       l2047 09D4  
                     l2311 01CD                       l2303 01A4                       l2231 0090  
                     l2223 007E                       l2215 005F                       l2207 004C  
                     l2151 0BDE                       l2127 0DA8                       l2119 0D6A  
                     l2065 0A27                       l2057 0A0C                       l2049 091A  
                     l2073 0923                       l2313 01D4                       l2305 01B2  
                     l2241 00BB                       l2225 0082                       l2217 0060  
                     l2209 004D                       l2401 06AD                       l2161 0BEC  
                     l2153 0BE0                       l2145 0BC0                       l2081 0CEE  
                     l2129 0DB1                       l2067 0A2D                       l2059 0A11  
                     l2075 0928                       l2315 01D8                       l2307 01C1  
                     l2251 00E0                       l2243 00C3                       l2235 0099  
                     l2219 0062                       l2411 071B                       l2403 06D3  
                     l2331 0495                       l2323 0483                       l2171 0C15  
                     l2155 0BE4                       l2163 0BFE                       l2147 0BD5  
                     l2139 0BAC                       l2091 0D18                       l2083 0CF5  
                     l2069 0A35                       l2317 01DA                       l2309 01C5  
                     l2261 010B                       l2253 00E1                       l2245 00C5  
                     l2237 00AB                       l2229 008B                       l2181 000E  
                     l2421 0733                       l2413 071F                       l2405 06FB  
                     l2341 04B1                       l2333 049A                       l2325 048A  
                     l2173 0C1A                       l2149 0BD6                       l2501 0CD6  
                     l1701 0B73                       l2093 0D20                       l2085 0CFA  
                     l2077 0CE3                       l2271 0128                       l2247 00CA  
                     l2255 00EA                       l2263 010F                       l2239 00B3  
                     l2191 0025                       l2183 0015                       l2431 0754  
                     l2423 0734                       l2415 0720                       l2407 0704  
                     l2351 04C6                       l2343 04B6                       l2335 049F  
                     l2327 0490                       l2175 099B                       l2503 0CD7  
                     l1703 0B85                       l1711 0BA3                       l2095 0D24  
                     l2079 0CE8                       l2511 0DE3                       l2281 0140  
                     l2273 012C                       l2265 0115                       l2257 00FC  
                     l2249 00DC                       l2193 002A                       l2185 001B  
                     l2433 0759                       l2441 078A                       l2425 0738  
                     l2417 0729                       l2409 0712                       l2361 04E2  
                     l2353 04CB                       l2345 04BC                       l2337 04A7  
                     l2329 0494                       l1801 01FC                       l2177 099F  
                     l2169 0C05                       l1705 0B93                       l1721 0A6E  
                     l2097 0D28                       l2089 0CFB                       l2521 0E19  
                     l2513 0DF8                       l1731 093F                       l2291 0161  
                     l2283 0141                       l2275 012D                       l2267 011D  
                     l2259 00FD                       l2195 0032                       l2187 001F  
                     l2451 07BD                       l2443 0797                       l2435 0767  
                     l2427 074C                       l2419 072F                       l2371 050D  
                     l2363 04E7                       l2355 04D3                       l2347 04C0  
                     l2339 04A9                       l1811 0210                       l1803 01FD  
                     l1707 0B94                       l1723 0A6F                       l1715 0A3A  
                     l2099 0D2C                       l2531 0E52                       l2523 0E23  
                     l2515 0DFD                       l2507 0DC8                       l1733 0949  
                     l1741 095D                       l2293 0166                       l2285 0145  
                     l2277 0136                       l2269 011F                       l2197 0033  
                     l2189 0020                       l2453 07CB                       l2445 07A2  
                     l2437 076B                       l2381 05AA                       l2373 052A  
                     l2357 04D5                       l2349 04C1                       l1901 0320  
                     l1821 0226                       l1805 0202                       l1813 0212  
                     l1709 0B9D                       l1725 0A70                       l1717 0A3E  
                     l2541 0F4E                       l2533 0E61                       l2525 0E36  
                     l2517 0E06                       l2509 0DDA                       l1743 092C  
                     l1727 093A                       l1735 094E                       l2295 0174  
                     l2287 0159                       l2279 013C                       l2199 0035  
                     l2455 07CF                       l2447 07B1                       l2439 0784  
                     l2391 060D                       l2383 05B3                       l2375 0546  
                     l2367 04F0                       l2359 04DD                       l1911 0339  
                     l1903 0324                       l1831 023B                       l1823 022C  
                     l1815 021A                       l1807 0207                       l2471 0C50  
                     l2463 0C27                       l1719 0A41                       l1751 0AB4  
                     l2551 0F8F                       l2543 0F61                       l2535 0E80  
                     l2527 0E3B                       l2519 0E14                       l1745 0932  
                     l1729 093E                       l1737 0952                       l2297 0178  
                     l2457 07D0                       l2449 07BB                       l2393 0626  
                     l2385 05C3                       l2377 0572                       l2369 0500  
                     l1921 03A0                       l1913 033A                       l1905 0328  
                     l1841 0258                       l1833 0243                       l1825 0230  
                     l1817 021F                       l1809 020F                       l2481 0C72  
                     l2465 0C2C                       l1761 0AD7                       l1753 0AB7  
                     l2561 0FD8                       l2553 0F98                       l2545 0F6F  
                     l2537 0ED6                       l2529 0E44                       l1739 0953  
                     l2299 0191                       l2459 07DB                       l2395 0643  
                     l2387 05E0                       l2379 058E                       l1931 03D5  
                     l1923 03A6                       l1915 0345                       l1907 0333  
                     l1851 026C                       l1843 025C                       l1835 0244  
                     l1827 0231                       l1819 0225                       l2491 0CA3  
                     l2483 0C76                       l2475 0C59                       l2467 0C30  
                     l1691 0B46                       l1763 0ADD                       l1755 0ABE  
                     l1747 0AAC                       l2563 0FE0                       l2555 0FA7  
                     l2547 0F7F                       l2539 0EE9                       l2397 0670  
                     l2389 05F0                       l1941 03F2                       l1925 03AB  
                     l1909 0335                       l1917 034A                       l1861 0280  
                     l1853 0270                       l1845 0260                       l1829 0236  
                     l1837 0246                       l2493 0CAD                       l2485 0C84  
                     l2477 0C5E                       l2469 0C40                       l1693 0B56  
                     l1765 0ADE                       l1757 0AC2                       l1749 0AAE  
                     l1781 0A86                       l1773 0A72                       l2565 0FF3  
                     l2557 0FBA                       l2549 0F86                       l2399 0680  
                     l1943 03F5                       l1935 03DE                       l1919 0360  
                     l1927 03BA                       l1951 0402                       l1871 0294  
                     l1863 0284                       l1855 0274                       l1847 0264  
                     l1839 0254                       l2495 0CB7                       l2487 0C94  
                     l2479 0C6B                       l1695 0B59                       l1767 0AE5  
                     l1759 0AC6                       l1783 0A8A                       l1775 0A78  
                     l1791 0AA7                       l2591 0D0D                       l2559 0FCC  
                     l1961 0415                       l1953 0403                       l1945 03F7  
                     l1937 03E9                       l1929 03D0                       l1881 02DB  
                     l1865 0288                       l1857 0278                       l1849 0268  
                     l1873 0298                       l2497 0CCD                       l2489 0C9F  
                     l1697 0B66                       l1769 0AEB                       l1785 0A94  
                     l1777 0A7B                       l1971 0455                       l1963 041A  
                     l1955 0407                       l1947 03FC                       l1939 03ED  
                     l1883 02DD                       l1891 02F1                       l1875 0299  
                     l1867 028C                       l1859 027C                       l1795 01EB  
                     l2499 0CD2                       l1699 0B6A                       l1787 0A9A  
                     l1779 0A82                       l1981 046C                       l1973 045A  
                     l1965 0428                       l1957 040D                       l1949 03FE  
                     l1893 02FB                       l1885 02E1                       l1877 02B0  
                     l1869 0290                       l1797 01F2                       l1789 0AA1  
                     l1991 09E8                       l1983 046E                       l1975 0462  
                     l1967 042C                       l1895 0300                       l1887 02E2  
                     l1879 02D0                       l1799 01F8                       l1993 09EF  
                     l1985 047D                       l1977 0467                       l1969 044C  
                     l1889 02ED                       l1995 09F3                       l1987 0481  
                     l1979 0468                       l1899 0309                       l1997 0A02  
                     l1989 09E6                       l1999 0A07                       STR_1 0820  
                     STR_2 081A                       STR_3 0824                       STR_4 0824  
                     STR_5 0824                       STR_6 0827                       STR_7 0829  
                     STR_8 082B                       STR_9 0829                       u2000 0202  
                     u2001 0201                       u2010 0207                       u2011 0206  
                     u2100 02BA                       u2020 0225                       u2021 0224  
                     u2110 02D0                       u2030 0230                       u2111 02CF  
                     u2031 022F                       u3000 049F                       u2200 0339  
                     u2120 02E1                       u2040 0236                       u3001 049E  
                     u2201 0338                       u2121 02E0                       u2041 0235  
                     u3010 04C0                       u2050 023B                       u3011 04BF  
                     u2051 023A                       u3020 04C6                       u2300 03F2  
                     u2220 0360                       u2140 02F7                       u2060 0254  
                     u3021 04C5                       u2301 03F1                       u2221 035F  
                     u2141 02F6                       u2061 0253                       u3030 04CB  
                     u2310 03FC                       u2150 02FB                       u2070 0258  
                     u3111 05D2                       u3031 04CA                       u2311 03FB  
                     u2231 0379                       u2223 035C                       u2215 033E  
                     u2151 02FA                       u2135 02E6                       u2071 0257  
                     u3112 05D9                       u3040 04E2                       u2400 0455  
                     u2320 0402                       u2240 038D                       u2232 037A  
                     u2160 0300                       u2080 02B0                       u3201 06ED  
                     u3121 05FF                       u3113 05E0                       u3105 05AC  
                     u3041 04E1                       u2401 0454                       u2321 0401  
                     u2241 038E                       u2233 037F                       u2161 02FF  
                     u2081 02AF                       u3202 06F4                       u3122 0606  
                     u3050 04E7                       u2410 045A                       u2330 0407  
                     u2250 03AB                       u2242 0393                       u2234 0380  
                     u2090 02B9                       u3203 06FB                       u3123 060D  
                     u3051 04E6                       u2411 0459                       u2331 0406  
                     u2251 03AA                       u2243 0394                       u2235 0385  
                     u2171 0312                       u2091 02B7                       u2500 09E4  
                     u3300 076B                       u2420 0467                       u2340 040D  
                     u2260 03D0                       u2236 0386                       u2180 0324  
                     u2172 0319                       u2501 09E3                       u3301 076A  
                     u3141 0635                       u3061 0538                       u2421 0466  
                     u2341 040C                       u2261 03CF                       u2181 0323  
                     u2173 0320                       u2085 02AC                       u2510 0A2D  
                     u3310 077A                       u3230 071F                       u3142 063C  
                     u3062 053F                       u2430 046C                       u2350 0414  
                     u2270 03D5                       u2190 0328                       u2511 0A2C  
                     u3231 071E                       u3215 06FD                       u3151 0662  
                     u3143 0643                       u3135 060F                       u3071 0554  
                     u3063 0546                       u2431 046B                       u2351 0413  
                     u2271 03D4                       u2191 0327                       u3320 0797  
                     u3152 0669                       u3072 055B                       u2440 0481  
                     u2360 041A                       u2600 0BCE                       u1800 0B85  
                     u2520 0CEE                       u3321 0796                       u3225 0714  
                     u3161 068F                       u3153 0670                       u3081 0580  
                     u3073 0562                       u2441 0480                       u2361 0419  
                     u1801 0B84                       u2521 0CED                       u2450 09F3  
                     u3330 07B1                       u3250 0733                       u3170 06B9  
                     u3162 0696                       u3082 0587                       u2370 042C  
                     u2290 03ED                       u2610 0BE4                       u3410 0C93  
                     u2530 0D28                       u2451 09F2                       u3331 07B0  
                     u3315 0775                       u3251 0732                       u3163 069D  
                     u3091 059C                       u3083 058E                       u2371 042B  
                     u2291 03EC                       u2611 0BE3                       u3411 0C92  
                     u2531 0D27                       u2700 0025                       u3340 07CF  
                     u3260 0738                       u3092 05A3                       u2380 043D  
                     u2620 0BEB                       u1820 0BA3                       u1900 0AD7  
                     u2540 0D4E                       u3500 0FE0                       u2701 0024  
                     u3341 07CE                       u3325 0793                       u3261 0737  
                     u3245 0722                       u3181 06C5                       u3093 05AA  
                     u2285 03E2                       u2621 0BEA                       u2605 0BC9  
                     u3405 0C85                       u1821 0BA2                       u1805 0B81  
                     u1901 0AD6                       u2541 0D4D                       u3501 0FDF  
                     u2710 002A                       u2470 0A07                       u3270 074C  
                     u3190 06E1                       u3182 06CC                       u2390 044C  
                     u3430 0CA3                       u3350 0C2C                       u1830 0A51  
                     u2550 0D59                       u2711 0029                       u2471 0A06  
                     u3335 07AD                       u3271 074B                       u3183 06D3  
                     u3175 06B4                       u2391 044B                       u3431 0CA2  
                     u3351 0C2B                       u1815 0B95                       u2551 0D58  
                     u1840 0932                       u2480 0967                       u2800 00E0  
                     u2720 004C                       u3280 0753                       u2640 0BFD  
                     u3440 0CA9                       u3360 0C30                       u1760 0B56  
                     u1920 0AEB                       u2560 0D5F                       u1841 0931  
                     u2481 0966                       u2801 00DF                       u2721 004B  
                     u2465 09FA                       u3281 0752                       u2385 0438  
                     u2641 0BFC                       u3441 0CA8                       u3425 0C98  
                     u3361 0C2F                       u1761 0B55                       u1921 0AEA  
                     u1905 0AD3                       u2561 0D5E                       u2545 0D4A  
                     u1850 0938                       u2490 0975                       u2730 0052  
                     u3290 0759                       u2650 0C04                       u3450 0CAD  
                     u3370 0C50                       u1930 0A78                       u2570 0DB1  
                     u1851 0937                       u2491 0974                       u2731 0051  
                     u3291 0758                       u3195 06DC                       u2651 0C03  
                     u2635 0BED                       u3451 0CAC                       u3371 0C4F  
                     u1835 0A4C                       u1915 0ADF                       u1931 0A77  
                     u2571 0DB0                       u2900 0159                       u2820 00FC  
                     u2740 0057                       u3460 0CC2                       u1780 0B6A  
                     u1860 0AB4                       u2580 0DC3                       u2901 0158  
                     u2821 00FB                       u2741 0056                       u1781 0B69  
                     u1861 0AB3                       u2581 0DC2                       u3517 0E1F  
                     u2910 0160                       u2830 0115                       u2750 0072  
                     u2670 0C15                       u2590 0BB7                       u3470 0CD2  
                     u3390 0C71                       u1950 0A8A                       u2911 015F  
                     u2831 0114                       u2815 00E3                       u2751 0071  
                     u2671 0C14                       u2591 0BB6                       u3471 0CD1  
                     u3391 0C70                       u1775 0B5B                       u1951 0A89  
                     u3527 0E5D                       u2920 0166                       u2840 011D  
                     u2760 0090                       u2680 0C1A                       u3480 0CD6  
                     u1880 0AC6                       u1960 0A94                       u3537 0958  
                     u2921 0165                       u2841 011C                       u2825 00F8  
                     u2761 008F                       u2681 0C19                       u2665 0C07  
                     u3481 0CD5                       u3465 0CBD                       u3385 0C63  
                     u1881 0AC5                       u1961 0A93                       u1945 0A7C  
                     u2930 0178                       u2770 00CA                       u2690 001F  
                     u3490 0FA7                       u3547 0AF4                       u2931 0177  
                     u2771 00C9                       u2691 001E                       u1795 0B6C  
                     u1875 0AB8                       u3491 0FA6                       _PEIE 005E  
                     u2940 0187                       u2860 012C                       u1980 0AA7  
                     u3557 0B03                       u2861 012B                       u1981 0AA6  
                     u1965 0A90                       u2950 01A4                       u1990 01FC  
                     u3567 0B0F                       u2951 01A3                       u2855 0121  
                     u1991 01FB                       u1895 0AC7                       u1975 0A9B  
                     u3495 0FA3                       u2960 01C1                       u2880 0140  
                     u3577 0B1C                       u2961 01C0                       u2945 0182  
                     u2881 013F                       u2785 00CC                       u2970 01D8  
                     u2890 0145                       u3587 0944                       u2971 01D7  
                     u2955 01A0                       u2891 0144                       u2875 012F  
                     u2795 00D5                       u2980 0494                       u2965 01BD  
                     u2981 0493                       u2990 049A                       u2991 0499  
             __CFG_WRT$OFF 0000                       _dec1 0068                       _int1 006A  
                     _cont 006D                       _main 0DC8                       _pot1 00A4  
                     btemp 007E                       start 0000              __CFG_IESO$OFF 0000  
          ___fldiv@new_exp 005C         __size_of_LCDisplay 0026           ?_I2C_Master_Init 0020  
         ?_I2C_Master_Read 0070           ?_I2C_Master_Wait 0070           ?_I2C_Master_Stop 0070  
            ___fltol@sign1 0079            __end_of___fladd 0483                      ?_main 0070  
          __end_of___fldiv 01EB              __CFG_WDTE$OFF 0000            __end_of___flmul 07E4  
          __end_of___flsub 09BF            __end_of___fltol 0C26                      _ANSEL 0188  
          __end_of___lldiv 0BAC            __end_of___lwdiv 0AF0            __end_of___lwmod 0AAC  
         __end_of_LCDwrite 0961                      _PORTA 0005                      _PORTB 0006  
                    _PORTC 0007                      _PORTD 0008                      _TRISB 0086  
                    _TRISD 0088                      _SSPIE 0463                      _SSPIF 0063  
           __CFG_FCMEN$OFF 0000            __end_of_dpowers 081A             __CFG_BOREN$OFF 0000  
                    pclath 000A                      status 0003                      wtemp0 007E  
          __end_of_sprintf 0DC8             __CFG_MCLRE$OFF 0000            __initialization 07E4  
             __end_of_main 1000              ?_LCDcursorSet 0073                     ??_main 0064  
        ?_I2C_Master_Start 0070          ?_I2C_Master_Write 0070         ??_I2C_Master_Start 0070  
       ??_I2C_Master_Write 0072          __end_of_LCDisplay 09E5                     _ANSELH 0189  
                   _LCDcmd 0939                     _SSPADD 0093                     _TRISC3 043B  
                   _TRISC4 043C                     _SSPCON 0014                     _SSPBUF 0013  
         __end_of___xxtofl 0CE0             __CFG_PWRTE$OFF 0000                  ??___fladd 0020  
                ??___fldiv 0052                  ??___flmul 0038                  ??___flsub 007E  
                ??___fltol 0074                  ??___lldiv 0078                  ??___lwdiv 0074  
                ??___lwmod 007C                     _config 097D             ??_LCDcursorSet 0074  
       __size_of__Umul8_16 0027                  ??_sprintf 0023               ___xxtofl@arg 007A  
             ___xxtofl@exp 0079               ___xxtofl@val 0070    __end_of__initialization 07FC  
               ___fltol@f1 0070                  ?_LCDwrite 0070             __pcstackCOMMON 0070  
                LCDcmd@cmd 0072      __end_of_LCD8bits_init 0B46                 __pbssBANK0 0068  
               __pbssBANK1 00A0                    ?_LCDcmd 0070                 ??_LCDwrite 0070  
        __end_of__Umul8_16 0A0C                 __pmaintext 0DC8                    ?_config 0070  
                ?___xxtofl 0070                    _SSPCON2 0091                    _SSPSTAT 0094  
               __stringtab 0800            __size_of_LCDcmd 0014       __end_of_LCDcursorSet 097D  
             LCDisplay@val 0073                    ___fladd 01EB                    ___fldiv 000E  
                  ___flmul 0483                    ___flsub 099B                    ___fltol 0BAC  
                  ___lldiv 0B46                    ___lwdiv 0AAC                    ___lwmod 0A72  
          __size_of_config 001E                    _decpot1 00AB                  _ANSELbits 0188  
                  __ptext1 0CE0                    __ptext2 0A72                    __ptext3 0AAC  
                  __ptext4 097D                    __ptext5 0A3A                    __ptext6 0B46  
                  __ptext7 0C26                    __ptext8 0BAC                    __ptext9 099B  
                  _contStr 006E                    _dpowers 0810                 ??___xxtofl 0074  
 __size_of_I2C_Master_Init 0038   __size_of_I2C_Master_Read 002E                    _potStr1 00A8  
 __size_of_I2C_Master_Wait 000D   __size_of_I2C_Master_Stop 0009                    _sprintf 0CE0  
     end_of_initialization 07FC                  _LCDisplay 09BF  __size_of_I2C_Master_Start 0009  
__size_of_I2C_Master_Write 000A            ___lldiv@divisor 0070            ___lldiv@counter 007D  
         I2C_Master_Init@c 0020           I2C_Master_Read@a 0070                  _PORTBbits 0006  
              ___fladd@grs 007B               LCDwrite@dato 0072              ___xxtofl@sign 0078  
                _TRISCbits 0087                ___fldiv@grs 005E                ___fldiv@rem 0057  
              ___flmul@grs 003E                 ?_LCDisplay 0073             __end_of_LCDcmd 094D  
        __size_of_LCDwrite 0014             __end_of_config 099B        start_initialization 07E4  
    __size_of_LCDcursorSet 001C                   ??_LCDcmd 0070          ??_I2C_Master_Init 0024  
        ??_I2C_Master_Read 0072          ??_I2C_Master_Wait 0070          ??_I2C_Master_Stop 0070  
 __CFG_FOSC$INTRC_NOCLKOUT 0000                  __Umul8_16 09E5                   ??_config 007E  
             _LCDcursorSet 0961                  ___fladd@a 0074                  ___fladd@b 0070  
                ___fldiv@a 004A                  ___fldiv@b 004E                  ___flmul@a 0034  
                ___flmul@b 0030                  ___flsub@a 0028                  ___flsub@b 002C  
                ___latbits 0002              __pcstackBANK0 0020          __size_of___xxtofl 00BA  
              sprintf@flag 0027                ??_LCDisplay 0075                sprintf@prec 0028  
         _I2C_Master_Start 091A           _I2C_Master_Write 0004           ___lwdiv@dividend 0072  
                 ?___fladd 0070                   ?___fldiv 004A                   ?___flmul 0030  
                 ?___flsub 0028                   ?___fltol 0070                   ?___lldiv 0070  
               ?__Umul8_16 0070                   ?___lwdiv 0070                   ?___lwmod 0078  
   __size_of_LCD8bits_init 0056                  __pstrings 0800           ___lwdiv@quotient 0075  
                 ?_sprintf 0020                   _LCDwrite 094D                __stringbase 080F  
      I2C_Master_Read@temp 0074              _LCD8bits_init 0AF0                ??__Umul8_16 0072  
         __size_of___fladd 0298           __size_of___fldiv 01DD           __size_of___flmul 0361  
         __size_of___flsub 0024           __size_of___fltol 007A           __size_of___lldiv 0066  
         __size_of___lwdiv 0044           __size_of___lwmod 003A         __end_of__stringtab 0810  
               sprintf@val 0029            _I2C_Master_Init 0A3A            _I2C_Master_Read 0A0C  
                 ___xxtofl 0C26            _I2C_Master_Wait 092C            _I2C_Master_Stop 0923  
                 _dectemp1 00A0            ___lwdiv@divisor 0070            ___lwdiv@counter 0077  
                 __ptext10 01EB                   __ptext11 0483                   __ptext20 0923  
                 __ptext12 09E5                   __ptext21 091A                   __ptext13 000E  
                 __ptext22 0A0C                   __ptext14 09BF                   __ptext23 092C  
                 __ptext15 094D                   __ptext16 0961                   __ptext17 0AF0  
                 __ptext18 0939                   __ptext19 0004          __CFG_BOR4V$BOR40V 0000  
           ?_LCD8bits_init 0070           __size_of_sprintf 00E8              __size_of_main 0238  
 __end_of_I2C_Master_Start 0923   __end_of_I2C_Master_Write 000E                  sprintf@ap 0026  
                sprintf@sp 002B           ___lwmod@dividend 007A           ___lldiv@dividend 0074  
                stringcode 080A    __end_of_I2C_Master_Init 0A72    __end_of_I2C_Master_Read 0A3A  
  __end_of_I2C_Master_Wait 0939    __end_of_I2C_Master_Stop 092C     __Umul8_16@multiplicand 0070  
                 sprintf@c 002C                   sprintf@f 0020           ___lldiv@quotient 0079  
        I2C_Master_Write@d 0070            ___lwmod@divisor 0078            ___lwmod@counter 007D  
       LCDcursorSet@column 0073                   stringdir 080A                   stringtab 0800  
          ??_LCD8bits_init 0073                _SSPCON2bits 0091              ___fladd@signs 0078  
             ___fladd@aexp 0079               ___fladd@bexp 007A       __Umul8_16@multiplier 0078  
          LCDcursorSet@row 0074          __Umul8_16@product 0074  
