

Microchip MPLAB XC8 Assembler V2.10 build 88905656 
                                                                                               Thu Feb 27 10:44:00 2020

Microchip MPLAB XC8 C Compiler v2.10 (Free license) build 20190730164152 Og1 
     1                           	processor	16F887
     2                           	opt	pw 120
     3                           	opt	flic
     4                           	psect	strings,global,class=STRING,delta=2
     5                           	psect	cinit,global,class=CODE,merge=1,delta=2
     6                           	psect	bssBANK0,global,class=BANK0,space=1,delta=1
     7                           	psect	bssBANK1,global,class=BANK1,space=1,delta=1
     8                           	psect	clrtext,global,class=CODE,delta=2
     9                           	psect	cstackCOMMON,global,class=COMMON,space=1,delta=1
    10                           	psect	cstackBANK0,global,class=BANK0,space=1,delta=1
    11                           	psect	maintext,global,class=CODE,split=1,delta=2
    12                           	psect	text1,local,class=CODE,merge=1,delta=2
    13                           	psect	text2,local,class=CODE,merge=1,delta=2,group=1
    14                           	psect	text3,local,class=CODE,merge=1,delta=2,group=1
    15                           	psect	text4,local,class=CODE,merge=1,delta=2
    16                           	psect	text5,local,class=CODE,merge=1,delta=2
    17                           	psect	text6,local,class=CODE,merge=1,delta=2,group=1
    18                           	psect	text7,local,class=CODE,merge=1,delta=2,group=1
    19                           	psect	text8,local,class=CODE,merge=1,delta=2,group=1
    20                           	psect	text9,local,class=CODE,merge=1,delta=2,group=1
    21                           	psect	text10,local,class=CODE,merge=1,delta=2,group=1
    22                           	psect	text11,local,class=CODE,merge=1,delta=2,group=1
    23                           	psect	text12,local,class=CODE,merge=1,delta=2,group=1
    24                           	psect	text13,local,class=CODE,merge=1,delta=2,group=1
    25                           	psect	text14,local,class=CODE,merge=1,delta=2
    26                           	psect	text15,local,class=CODE,merge=1,delta=2
    27                           	psect	text16,local,class=CODE,merge=1,delta=2
    28                           	psect	text17,local,class=CODE,merge=1,delta=2
    29                           	psect	text18,local,class=CODE,merge=1,delta=2
    30                           	psect	text19,local,class=CODE,merge=1,delta=2
    31                           	psect	text20,local,class=CODE,merge=1,delta=2
    32                           	psect	text21,local,class=CODE,merge=1,delta=2
    33                           	psect	text22,local,class=CODE,merge=1,delta=2
    34                           	psect	text23,local,class=CODE,merge=1,delta=2
    35                           	psect	text24,local,class=CODE,merge=1,delta=2
    36                           	psect	text25,local,class=CODE,merge=1,delta=2,group=1
    37                           	dabs	1,0x7E,2
    38  0000                     
    39                           ; Version 2.10
    40                           ; Generated 31/07/2019 GMT
    41                           ; 
    42                           ; Copyright © 2019, Microchip Technology Inc. and its subsidiaries ("Microchip")
    43                           ; All rights reserved.
    44                           ; 
    45                           ; This software is developed by Microchip Technology Inc. and its subsidiaries ("Microch
      +                          ip").
    46                           ; 
    47                           ; Redistribution and use in source and binary forms, with or without modification, are
    48                           ; permitted provided that the following conditions are met:
    49                           ; 
    50                           ;     1. Redistributions of source code must retain the above copyright notice, this lis
      +                          t of
    51                           ;        conditions and the following disclaimer.
    52                           ; 
    53                           ;     2. Redistributions in binary form must reproduce the above copyright notice, this 
      +                          list
    54                           ;        of conditions and the following disclaimer in the documentation and/or other
    55                           ;        materials provided with the distribution.
    56                           ; 
    57                           ;     3. Microchip's name may not be used to endorse or promote products derived from th
      +                          is
    58                           ;        software without specific prior written permission.
    59                           ; 
    60                           ; THIS SOFTWARE IS PROVIDED BY MICROCHIP "AS IS" AND ANY EXPRESS OR IMPLIED WARRANTIES,
    61                           ; INCLUDING, BUT NOT LIMITED TO, THE IMPLIED WARRANTIES OF MERCHANTABILITY AND FITNESS F
      +                          OR
    62                           ; PURPOSE ARE DISCLAIMED.  IN NO EVENT SHALL MICROCHIP BE LIABLE FOR ANY DIRECT, INDIREC
      +                          T,
    63                           ; INCIDENTAL, SPECIAL, EXEMPLARY, OR CONSEQUENTIAL DAMAGES (INCLUDING BUT NOT LIMITED TO
    64                           ; PROCUREMENT OF SUBSTITUTE GOODS OR SERVICES; LOSS OF USE, DATA OR PROFITS; OR BUSINESS
    65                           ; INTERRUPTION) HOWSOEVER CAUSED AND ON ANY THEORY OF LIABILITY, WHETHER IN CONTRACT, ST
      +                          RICT
    66                           ; LIABILITY, OR TORT (INCLUDING NEGLIGENCE OR OTHERWISE) ARISING IN ANY WAY OUT OF THE U
      +                          SE OF
    67                           ; THIS SOFTWARE, EVEN IF ADVISED OF THE POSSIBILITY OF SUCH DAMAGE.
    68                           ; 
    69                           ; 
    70                           ; Code-generator required, PIC16F887 Definitions
    71                           ; 
    72                           ; SFR Addresses
    73  0000                     	;# 
    74  0001                     	;# 
    75  0002                     	;# 
    76  0003                     	;# 
    77  0004                     	;# 
    78  0005                     	;# 
    79  0006                     	;# 
    80  0007                     	;# 
    81  0008                     	;# 
    82  0009                     	;# 
    83  000A                     	;# 
    84  000B                     	;# 
    85  000C                     	;# 
    86  000D                     	;# 
    87  000E                     	;# 
    88  000E                     	;# 
    89  000F                     	;# 
    90  0010                     	;# 
    91  0011                     	;# 
    92  0012                     	;# 
    93  0013                     	;# 
    94  0014                     	;# 
    95  0015                     	;# 
    96  0015                     	;# 
    97  0016                     	;# 
    98  0017                     	;# 
    99  0018                     	;# 
   100  0019                     	;# 
   101  001A                     	;# 
   102  001B                     	;# 
   103  001B                     	;# 
   104  001C                     	;# 
   105  001D                     	;# 
   106  001E                     	;# 
   107  001F                     	;# 
   108  0081                     	;# 
   109  0085                     	;# 
   110  0086                     	;# 
   111  0087                     	;# 
   112  0088                     	;# 
   113  0089                     	;# 
   114  008C                     	;# 
   115  008D                     	;# 
   116  008E                     	;# 
   117  008F                     	;# 
   118  0090                     	;# 
   119  0091                     	;# 
   120  0092                     	;# 
   121  0093                     	;# 
   122  0093                     	;# 
   123  0093                     	;# 
   124  0094                     	;# 
   125  0095                     	;# 
   126  0096                     	;# 
   127  0097                     	;# 
   128  0098                     	;# 
   129  0099                     	;# 
   130  009A                     	;# 
   131  009B                     	;# 
   132  009C                     	;# 
   133  009D                     	;# 
   134  009E                     	;# 
   135  009F                     	;# 
   136  0105                     	;# 
   137  0107                     	;# 
   138  0108                     	;# 
   139  0109                     	;# 
   140  010C                     	;# 
   141  010C                     	;# 
   142  010D                     	;# 
   143  010E                     	;# 
   144  010F                     	;# 
   145  0185                     	;# 
   146  0187                     	;# 
   147  0188                     	;# 
   148  0189                     	;# 
   149  018C                     	;# 
   150  018D                     	;# 
   151  0000                     	;# 
   152  0001                     	;# 
   153  0002                     	;# 
   154  0003                     	;# 
   155  0004                     	;# 
   156  0005                     	;# 
   157  0006                     	;# 
   158  0007                     	;# 
   159  0008                     	;# 
   160  0009                     	;# 
   161  000A                     	;# 
   162  000B                     	;# 
   163  000C                     	;# 
   164  000D                     	;# 
   165  000E                     	;# 
   166  000E                     	;# 
   167  000F                     	;# 
   168  0010                     	;# 
   169  0011                     	;# 
   170  0012                     	;# 
   171  0013                     	;# 
   172  0014                     	;# 
   173  0015                     	;# 
   174  0015                     	;# 
   175  0016                     	;# 
   176  0017                     	;# 
   177  0018                     	;# 
   178  0019                     	;# 
   179  001A                     	;# 
   180  001B                     	;# 
   181  001B                     	;# 
   182  001C                     	;# 
   183  001D                     	;# 
   184  001E                     	;# 
   185  001F                     	;# 
   186  0081                     	;# 
   187  0085                     	;# 
   188  0086                     	;# 
   189  0087                     	;# 
   190  0088                     	;# 
   191  0089                     	;# 
   192  008C                     	;# 
   193  008D                     	;# 
   194  008E                     	;# 
   195  008F                     	;# 
   196  0090                     	;# 
   197  0091                     	;# 
   198  0092                     	;# 
   199  0093                     	;# 
   200  0093                     	;# 
   201  0093                     	;# 
   202  0094                     	;# 
   203  0095                     	;# 
   204  0096                     	;# 
   205  0097                     	;# 
   206  0098                     	;# 
   207  0099                     	;# 
   208  009A                     	;# 
   209  009B                     	;# 
   210  009C                     	;# 
   211  009D                     	;# 
   212  009E                     	;# 
   213  009F                     	;# 
   214  0105                     	;# 
   215  0107                     	;# 
   216  0108                     	;# 
   217  0109                     	;# 
   218  010C                     	;# 
   219  010C                     	;# 
   220  010D                     	;# 
   221  010E                     	;# 
   222  010F                     	;# 
   223  0185                     	;# 
   224  0187                     	;# 
   225  0188                     	;# 
   226  0189                     	;# 
   227  018C                     	;# 
   228  018D                     	;# 
   229  0000                     	;# 
   230  0001                     	;# 
   231  0002                     	;# 
   232  0003                     	;# 
   233  0004                     	;# 
   234  0005                     	;# 
   235  0006                     	;# 
   236  0007                     	;# 
   237  0008                     	;# 
   238  0009                     	;# 
   239  000A                     	;# 
   240  000B                     	;# 
   241  000C                     	;# 
   242  000D                     	;# 
   243  000E                     	;# 
   244  000E                     	;# 
   245  000F                     	;# 
   246  0010                     	;# 
   247  0011                     	;# 
   248  0012                     	;# 
   249  0013                     	;# 
   250  0014                     	;# 
   251  0015                     	;# 
   252  0015                     	;# 
   253  0016                     	;# 
   254  0017                     	;# 
   255  0018                     	;# 
   256  0019                     	;# 
   257  001A                     	;# 
   258  001B                     	;# 
   259  001B                     	;# 
   260  001C                     	;# 
   261  001D                     	;# 
   262  001E                     	;# 
   263  001F                     	;# 
   264  0081                     	;# 
   265  0085                     	;# 
   266  0086                     	;# 
   267  0087                     	;# 
   268  0088                     	;# 
   269  0089                     	;# 
   270  008C                     	;# 
   271  008D                     	;# 
   272  008E                     	;# 
   273  008F                     	;# 
   274  0090                     	;# 
   275  0091                     	;# 
   276  0092                     	;# 
   277  0093                     	;# 
   278  0093                     	;# 
   279  0093                     	;# 
   280  0094                     	;# 
   281  0095                     	;# 
   282  0096                     	;# 
   283  0097                     	;# 
   284  0098                     	;# 
   285  0099                     	;# 
   286  009A                     	;# 
   287  009B                     	;# 
   288  009C                     	;# 
   289  009D                     	;# 
   290  009E                     	;# 
   291  009F                     	;# 
   292  0105                     	;# 
   293  0107                     	;# 
   294  0108                     	;# 
   295  0109                     	;# 
   296  010C                     	;# 
   297  010C                     	;# 
   298  010D                     	;# 
   299  010E                     	;# 
   300  010F                     	;# 
   301  0185                     	;# 
   302  0187                     	;# 
   303  0188                     	;# 
   304  0189                     	;# 
   305  018C                     	;# 
   306  018D                     	;# 
   307  0000                     	;# 
   308  0001                     	;# 
   309  0002                     	;# 
   310  0003                     	;# 
   311  0004                     	;# 
   312  0005                     	;# 
   313  0006                     	;# 
   314  0007                     	;# 
   315  0008                     	;# 
   316  0009                     	;# 
   317  000A                     	;# 
   318  000B                     	;# 
   319  000C                     	;# 
   320  000D                     	;# 
   321  000E                     	;# 
   322  000E                     	;# 
   323  000F                     	;# 
   324  0010                     	;# 
   325  0011                     	;# 
   326  0012                     	;# 
   327  0013                     	;# 
   328  0014                     	;# 
   329  0015                     	;# 
   330  0015                     	;# 
   331  0016                     	;# 
   332  0017                     	;# 
   333  0018                     	;# 
   334  0019                     	;# 
   335  001A                     	;# 
   336  001B                     	;# 
   337  001B                     	;# 
   338  001C                     	;# 
   339  001D                     	;# 
   340  001E                     	;# 
   341  001F                     	;# 
   342  0081                     	;# 
   343  0085                     	;# 
   344  0086                     	;# 
   345  0087                     	;# 
   346  0088                     	;# 
   347  0089                     	;# 
   348  008C                     	;# 
   349  008D                     	;# 
   350  008E                     	;# 
   351  008F                     	;# 
   352  0090                     	;# 
   353  0091                     	;# 
   354  0092                     	;# 
   355  0093                     	;# 
   356  0093                     	;# 
   357  0093                     	;# 
   358  0094                     	;# 
   359  0095                     	;# 
   360  0096                     	;# 
   361  0097                     	;# 
   362  0098                     	;# 
   363  0099                     	;# 
   364  009A                     	;# 
   365  009B                     	;# 
   366  009C                     	;# 
   367  009D                     	;# 
   368  009E                     	;# 
   369  009F                     	;# 
   370  0105                     	;# 
   371  0107                     	;# 
   372  0108                     	;# 
   373  0109                     	;# 
   374  010C                     	;# 
   375  010C                     	;# 
   376  010D                     	;# 
   377  010E                     	;# 
   378  010F                     	;# 
   379  0185                     	;# 
   380  0187                     	;# 
   381  0188                     	;# 
   382  0189                     	;# 
   383  018C                     	;# 
   384  018D                     	;# 
   385                           
   386                           	psect	strings
   387  0800                     __pstrings:	
   388  0800                     stringtab:	
   389  0800                     __stringtab:	
   390                           
   391                           ;	String table - string pointers are 1 byte each
   392  0800  1BFF               	btfsc	btemp+1,7
   393  0801  280A               	ljmp	stringcode
   394  0802  1383               	bcf	3,7
   395  0803  187F               	btfsc	btemp+1,0
   396  0804  1783               	bsf	3,7
   397  0805  0800               	movf	0,w
   398  0806  0A84               	incf	4,f
   399  0807  1903               	skipnz
   400  0808  0AFF               	incf	btemp+1,f
   401  0809  0008               	return
   402  080A                     stringcode:	
   403  080A                     stringdir:	
   404  080A  3008               	movlw	high stringdir
   405  080B  008A               	movwf	10
   406  080C  0804               	movf	4,w
   407  080D  0A84               	incf	4,f
   408  080E  0782               	addwf	2,f
   409  080F                     __stringbase:	
   410  080F  3400               	retlw	0
   411  0810                     __end_of__stringtab:	
   412  0810                     _dpowers:	
   413  0810  3401               	retlw	1
   414  0811  3400               	retlw	0
   415  0812  340A               	retlw	10
   416  0813  3400               	retlw	0
   417  0814  3464               	retlw	100
   418  0815  3400               	retlw	0
   419  0816  34E8               	retlw	232
   420  0817  3403               	retlw	3
   421  0818  3410               	retlw	16
   422  0819  3427               	retlw	39
   423  081A                     __end_of_dpowers:	
   424  0013                     _SSPBUF	set	19
   425  0014                     _SSPCON	set	20
   426  0006                     _PORTBbits	set	6
   427  0008                     _PORTD	set	8
   428  0007                     _PORTC	set	7
   429  0006                     _PORTB	set	6
   430  0005                     _PORTA	set	5
   431  0063                     _SSPIF	set	99
   432  005E                     _PEIE	set	94
   433  005F                     _GIE	set	95
   434  0091                     _SSPCON2bits	set	145
   435  0087                     _TRISCbits	set	135
   436  0094                     _SSPSTAT	set	148
   437  0093                     _SSPADD	set	147
   438  0091                     _SSPCON2	set	145
   439  0088                     _TRISD	set	136
   440  0086                     _TRISB	set	134
   441  0463                     _SSPIE	set	1123
   442  043C                     _TRISC4	set	1084
   443  043B                     _TRISC3	set	1083
   444  0188                     _ANSEL	set	392
   445  0189                     _ANSELH	set	393
   446  081A                     STR_3:	
   447  081A  3454               	retlw	84	;'T'
   448  081B  3449               	retlw	73	;'I'
   449  081C  344D               	retlw	77	;'M'
   450  081D  3445               	retlw	69	;'E'
   451  081E  343A               	retlw	58	;':'
   452  081F  3400               	retlw	0
   453  0820                     STR_2:	
   454  0820  3443               	retlw	67	;'C'
   455  0821  344F               	retlw	79	;'O'
   456  0822  344E               	retlw	78	;'N'
   457  0823  3454               	retlw	84	;'T'
   458  0824  343A               	retlw	58	;':'
   459  0825  3400               	retlw	0
   460  0826                     STR_1:	
   461  0826  3453               	retlw	83	;'S'
   462  0827  3431               	retlw	49	;'1'
   463  0828  343A               	retlw	58	;':'
   464  0829  3400               	retlw	0
   465  082A                     STR_4:	
   466  082A  3425               	retlw	37	;'%'
   467  082B  3464               	retlw	100	;'d'
   468  082C  3400               	retlw	0
   469  082D                     STR_9:	
   470  082D  342E               	retlw	46	;'.'
   471  082E  3400               	retlw	0
   472  082F                     STR_10:	
   473  082F  3430               	retlw	48	;'0'
   474  0830  3400               	retlw	0
   475  0831                     STR_11:	
   476  0831  3456               	retlw	86	;'V'
   477  0832  3400               	retlw	0
   478  082F                     
   479                           ; #config settings
   480  0000                     
   481                           	psect	cinit
   482  07EA                     start_initialization:	
   483  07EA                     __initialization:	
   484                           
   485                           ; Clear objects allocated to BANK0
   486  07EA  1283               	bcf	3,5	;RP0=0, select bank0
   487  07EB  1303               	bcf	3,6	;RP1=0, select bank0
   488  07EC  01E8               	clrf	__pbssBANK0& (0+127)
   489  07ED  01E9               	clrf	(__pbssBANK0+1)& (0+127)
   490  07EE  01EA               	clrf	(__pbssBANK0+2)& (0+127)
   491  07EF  01EB               	clrf	(__pbssBANK0+3)& (0+127)
   492  07F0  01EC               	clrf	(__pbssBANK0+4)& (0+127)
   493  07F1  01ED               	clrf	(__pbssBANK0+5)& (0+127)
   494  07F2  01EE               	clrf	(__pbssBANK0+6)& (0+127)
   495                           
   496                           ; Clear objects allocated to BANK1
   497  07F3  1383               	bcf	3,7	;select IRP bank0
   498  07F4  30A0               	movlw	low __pbssBANK1
   499  07F5  0084               	movwf	4
   500  07F6  30B3               	movlw	low (__pbssBANK1+19)
   501  07F7  160A  118A  274E  120A  118A  	fcall	clear_ram0
   502  07FC                     end_of_initialization:	
   503                           ;End of C runtime variable initialization code
   504                           
   505  07FC                     __end_of__initialization:	
   506  07FC  0183               	clrf	3
   507  07FD  120A  118A  2C66   	ljmp	_main	;jump to C main() function
   508                           
   509                           	psect	bssBANK0
   510  0068                     __pbssBANK0:	
   511  0068                     _int1:	
   512  0068                     	ds	2
   513  006A                     _min:	
   514  006A                     	ds	1
   515  006B                     _sec:	
   516  006B                     	ds	1
   517  006C                     _va1:	
   518  006C                     	ds	1
   519  006D                     _cont:	
   520  006D                     	ds	1
   521  006E                     _contStr:	
   522  006E                     	ds	1
   523                           
   524                           	psect	bssBANK1
   525  00A0                     __pbssBANK1:	
   526  00A0                     _dectemp1:	
   527  00A0                     	ds	4
   528  00A4                     _pot1:	
   529  00A4                     	ds	4
   530  00A8                     _dec1:	
   531  00A8                     	ds	2
   532  00AA                     _potStr1:	
   533  00AA                     	ds	3
   534  00AD                     _min1:	
   535  00AD                     	ds	2
   536  00AF                     _sec1:	
   537  00AF                     	ds	2
   538  00B1                     _decpot1:	
   539  00B1                     	ds	2
   540                           
   541                           	psect	clrtext
   542  174E                     clear_ram0:	
   543                           ;	Called with FSR containing the base address, and
   544                           ;	W with the last address+1
   545                           
   546  174E  0064               	clrwdt	;clear the watchdog before getting into this loop
   547  174F                     clrloop0:	
   548  174F  0180               	clrf	0	;clear RAM location pointed to by FSR
   549  1750  0A84               	incf	4,f	;increment pointer
   550  1751  0604               	xorwf	4,w	;XOR with final address
   551  1752  1903               	btfsc	3,2	;have we reached the end yet?
   552  1753  3400               	retlw	0	;all done for this memory range, return
   553  1754  0604               	xorwf	4,w	;XOR again to restore value
   554  1755  2F4F               	goto	clrloop0	;do the next byte
   555                           
   556                           	psect	cstackCOMMON
   557  0070                     __pcstackCOMMON:	
   558  0070                     ?_config:	
   559  0070                     ?_LCD8bits_init:	
   560                           ; 1 bytes @ 0x0
   561                           
   562  0070                     ?_I2C_Master_Start:	
   563                           ; 1 bytes @ 0x0
   564                           
   565  0070                     ??_I2C_Master_Start:	
   566                           ; 1 bytes @ 0x0
   567                           
   568  0070                     ?_I2C_Master_Write:	
   569                           ; 1 bytes @ 0x0
   570                           
   571  0070                     ?_I2C_Master_Stop:	
   572                           ; 1 bytes @ 0x0
   573                           
   574  0070                     ??_I2C_Master_Stop:	
   575                           ; 1 bytes @ 0x0
   576                           
   577  0070                     ?_LCDcmd:	
   578                           ; 1 bytes @ 0x0
   579                           
   580  0070                     ??_LCDcmd:	
   581                           ; 1 bytes @ 0x0
   582                           
   583  0070                     ?_main:	
   584                           ; 1 bytes @ 0x0
   585                           
   586  0070                     ?_LCDwrite:	
   587                           ; 1 bytes @ 0x0
   588                           
   589  0070                     ??_LCDwrite:	
   590                           ; 1 bytes @ 0x0
   591                           
   592  0070                     ?_I2C_Master_Wait:	
   593                           ; 1 bytes @ 0x0
   594                           
   595  0070                     ??_I2C_Master_Wait:	
   596                           ; 1 bytes @ 0x0
   597                           
   598  0070                     ?_I2C_Master_Read:	
   599                           ; 1 bytes @ 0x0
   600                           
   601  0070                     ?__Umul8_16:	
   602                           ; 2 bytes @ 0x0
   603                           
   604  0070                     ?___wmul:	
   605                           ; 2 bytes @ 0x0
   606                           
   607  0070                     ?___lwdiv:	
   608                           ; 2 bytes @ 0x0
   609                           
   610  0070                     ?___lldiv:	
   611                           ; 2 bytes @ 0x0
   612                           
   613  0070                     ?___fltol:	
   614                           ; 4 bytes @ 0x0
   615                           
   616  0070                     ?___fladd:	
   617                           ; 4 bytes @ 0x0
   618                           
   619  0070                     ?___xxtofl:	
   620                           ; 4 bytes @ 0x0
   621                           
   622  0070                     __Umul8_16@multiplicand:	
   623                           ; 4 bytes @ 0x0
   624                           
   625  0070                     I2C_Master_Write@d:	
   626                           ; 1 bytes @ 0x0
   627                           
   628  0070                     I2C_Master_Read@a:	
   629                           ; 2 bytes @ 0x0
   630                           
   631  0070                     ___wmul@multiplier:	
   632                           ; 2 bytes @ 0x0
   633                           
   634  0070                     ___lwdiv@divisor:	
   635                           ; 2 bytes @ 0x0
   636                           
   637  0070                     ___lldiv@divisor:	
   638                           ; 2 bytes @ 0x0
   639                           
   640  0070                     ___fltol@f1:	
   641                           ; 4 bytes @ 0x0
   642                           
   643  0070                     ___fladd@b:	
   644                           ; 4 bytes @ 0x0
   645                           
   646  0070                     ___xxtofl@val:	
   647                           ; 4 bytes @ 0x0
   648                           
   649                           
   650                           ; 4 bytes @ 0x0
   651  0070                     	ds	2
   652  0072                     ??_I2C_Master_Write:	
   653  0072                     ??_I2C_Master_Read:	
   654                           ; 1 bytes @ 0x2
   655                           
   656  0072                     ??__Umul8_16:	
   657                           ; 1 bytes @ 0x2
   658                           
   659  0072                     LCDcmd@cmd:	
   660                           ; 1 bytes @ 0x2
   661                           
   662  0072                     LCDwrite@dato:	
   663                           ; 1 bytes @ 0x2
   664                           
   665  0072                     ___wmul@multiplicand:	
   666                           ; 1 bytes @ 0x2
   667                           
   668  0072                     ___lwdiv@dividend:	
   669                           ; 2 bytes @ 0x2
   670                           
   671                           
   672                           ; 2 bytes @ 0x2
   673  0072                     	ds	1
   674  0073                     ??_LCD8bits_init:	
   675  0073                     ?_LCDcursorSet:	
   676                           ; 1 bytes @ 0x3
   677                           
   678  0073                     ?_LCDisplay:	
   679                           ; 1 bytes @ 0x3
   680                           
   681  0073                     LCDcursorSet@column:	
   682                           ; 1 bytes @ 0x3
   683                           
   684  0073                     LCDisplay@val:	
   685                           ; 1 bytes @ 0x3
   686                           
   687                           
   688                           ; 2 bytes @ 0x3
   689  0073                     	ds	1
   690  0074                     ??_LCDcursorSet:	
   691  0074                     ??___wmul:	
   692                           ; 1 bytes @ 0x4
   693                           
   694  0074                     ??___fltol:	
   695                           ; 1 bytes @ 0x4
   696                           
   697  0074                     ??___lwdiv:	
   698                           ; 1 bytes @ 0x4
   699                           
   700  0074                     ??___xxtofl:	
   701                           ; 1 bytes @ 0x4
   702                           
   703  0074                     LCDcursorSet@row:	
   704                           ; 1 bytes @ 0x4
   705                           
   706  0074                     I2C_Master_Read@temp:	
   707                           ; 1 bytes @ 0x4
   708                           
   709  0074                     ___wmul@product:	
   710                           ; 2 bytes @ 0x4
   711                           
   712  0074                     __Umul8_16@product:	
   713                           ; 2 bytes @ 0x4
   714                           
   715  0074                     ___lldiv@dividend:	
   716                           ; 2 bytes @ 0x4
   717                           
   718  0074                     ___fladd@a:	
   719                           ; 4 bytes @ 0x4
   720                           
   721                           
   722                           ; 4 bytes @ 0x4
   723  0074                     	ds	1
   724  0075                     ??_LCDisplay:	
   725  0075                     ___lwdiv@quotient:	
   726                           ; 1 bytes @ 0x5
   727                           
   728                           
   729                           ; 2 bytes @ 0x5
   730  0075                     	ds	1
   731  0076                     ?_BCD_2_DEC:	
   732  0076                     BCD_2_DEC@to_convert:	
   733                           ; 2 bytes @ 0x6
   734                           
   735  0076                     __Umul8_16@word_mpld:	
   736                           ; 2 bytes @ 0x6
   737                           
   738                           
   739                           ; 2 bytes @ 0x6
   740  0076                     	ds	1
   741  0077                     ___lwdiv@counter:	
   742                           
   743                           ; 1 bytes @ 0x7
   744  0077                     	ds	1
   745  0078                     ??_BCD_2_DEC:	
   746  0078                     ??___lldiv:	
   747                           ; 1 bytes @ 0x8
   748                           
   749  0078                     ?___lwmod:	
   750                           ; 1 bytes @ 0x8
   751                           
   752  0078                     ___fladd@signs:	
   753                           ; 2 bytes @ 0x8
   754                           
   755  0078                     ___xxtofl@sign:	
   756                           ; 1 bytes @ 0x8
   757                           
   758  0078                     __Umul8_16@multiplier:	
   759                           ; 1 bytes @ 0x8
   760                           
   761  0078                     ___lwmod@divisor:	
   762                           ; 1 bytes @ 0x8
   763                           
   764                           
   765                           ; 2 bytes @ 0x8
   766  0078                     	ds	1
   767  0079                     ___fltol@sign1:	
   768  0079                     ___fladd@aexp:	
   769                           ; 1 bytes @ 0x9
   770                           
   771  0079                     ___xxtofl@exp:	
   772                           ; 1 bytes @ 0x9
   773                           
   774  0079                     ___lldiv@quotient:	
   775                           ; 1 bytes @ 0x9
   776                           
   777                           
   778                           ; 4 bytes @ 0x9
   779  0079                     	ds	1
   780  007A                     ___fltol@exp1:	
   781  007A                     ___fladd@bexp:	
   782                           ; 1 bytes @ 0xA
   783                           
   784  007A                     ___lwmod@dividend:	
   785                           ; 1 bytes @ 0xA
   786                           
   787  007A                     ___xxtofl@arg:	
   788                           ; 2 bytes @ 0xA
   789                           
   790                           
   791                           ; 4 bytes @ 0xA
   792  007A                     	ds	1
   793  007B                     ___fladd@grs:	
   794                           
   795                           ; 1 bytes @ 0xB
   796  007B                     	ds	1
   797  007C                     ??___lwmod:	
   798                           
   799                           ; 1 bytes @ 0xC
   800  007C                     	ds	1
   801  007D                     ___lldiv@counter:	
   802  007D                     ___lwmod@counter:	
   803                           ; 1 bytes @ 0xD
   804                           
   805                           
   806                           ; 1 bytes @ 0xD
   807  007D                     	ds	1
   808  007E                     ??_config:	
   809  007E                     ??___flsub:	
   810                           ; 1 bytes @ 0xE
   811                           
   812                           
   813                           	psect	cstackBANK0
   814  0020                     __pcstackBANK0:	
   815                           ; 1 bytes @ 0xE
   816                           
   817  0020                     ?_I2C_Master_Init:	
   818  0020                     ??___fladd:	
   819                           ; 1 bytes @ 0x0
   820                           
   821  0020                     ?_sprintf:	
   822                           ; 1 bytes @ 0x0
   823                           
   824  0020                     sprintf@f:	
   825                           ; 2 bytes @ 0x0
   826                           
   827  0020                     I2C_Master_Init@c:	
   828                           ; 1 bytes @ 0x0
   829                           
   830                           
   831                           ; 4 bytes @ 0x0
   832  0020                     	ds	3
   833  0023                     ??_sprintf:	
   834                           
   835                           ; 1 bytes @ 0x3
   836  0023                     	ds	1
   837  0024                     ??_I2C_Master_Init:	
   838                           
   839                           ; 1 bytes @ 0x4
   840  0024                     	ds	2
   841  0026                     sprintf@ap:	
   842                           
   843                           ; 1 bytes @ 0x6
   844  0026                     	ds	1
   845  0027                     sprintf@flag:	
   846                           
   847                           ; 1 bytes @ 0x7
   848  0027                     	ds	1
   849  0028                     ?___flsub:	
   850  0028                     sprintf@prec:	
   851                           ; 4 bytes @ 0x8
   852                           
   853  0028                     ___flsub@a:	
   854                           ; 1 bytes @ 0x8
   855                           
   856                           
   857                           ; 4 bytes @ 0x8
   858  0028                     	ds	1
   859  0029                     sprintf@val:	
   860                           
   861                           ; 2 bytes @ 0x9
   862  0029                     	ds	2
   863  002B                     sprintf@sp:	
   864                           
   865                           ; 1 bytes @ 0xB
   866  002B                     	ds	1
   867  002C                     sprintf@c:	
   868  002C                     ___flsub@b:	
   869                           ; 1 bytes @ 0xC
   870                           
   871                           
   872                           ; 4 bytes @ 0xC
   873  002C                     	ds	4
   874  0030                     ?___flmul:	
   875  0030                     ___flmul@b:	
   876                           ; 4 bytes @ 0x10
   877                           
   878                           
   879                           ; 4 bytes @ 0x10
   880  0030                     	ds	4
   881  0034                     ___flmul@a:	
   882                           
   883                           ; 4 bytes @ 0x14
   884  0034                     	ds	4
   885  0038                     ??___flmul:	
   886                           
   887                           ; 1 bytes @ 0x18
   888  0038                     	ds	5
   889  003D                     ___flmul@sign:	
   890                           
   891                           ; 1 bytes @ 0x1D
   892  003D                     	ds	1
   893  003E                     ___flmul@grs:	
   894                           
   895                           ; 4 bytes @ 0x1E
   896  003E                     	ds	4
   897  0042                     ___flmul@aexp:	
   898                           
   899                           ; 1 bytes @ 0x22
   900  0042                     	ds	1
   901  0043                     ___flmul@bexp:	
   902                           
   903                           ; 1 bytes @ 0x23
   904  0043                     	ds	1
   905  0044                     ___flmul@prod:	
   906                           
   907                           ; 4 bytes @ 0x24
   908  0044                     	ds	4
   909  0048                     ___flmul@temp:	
   910                           
   911                           ; 2 bytes @ 0x28
   912  0048                     	ds	2
   913  004A                     ?___fldiv:	
   914  004A                     ___fldiv@a:	
   915                           ; 4 bytes @ 0x2A
   916                           
   917                           
   918                           ; 4 bytes @ 0x2A
   919  004A                     	ds	4
   920  004E                     ___fldiv@b:	
   921                           
   922                           ; 4 bytes @ 0x2E
   923  004E                     	ds	4
   924  0052                     ??___fldiv:	
   925                           
   926                           ; 1 bytes @ 0x32
   927  0052                     	ds	5
   928  0057                     ___fldiv@rem:	
   929                           
   930                           ; 4 bytes @ 0x37
   931  0057                     	ds	4
   932  005B                     ___fldiv@sign:	
   933                           
   934                           ; 1 bytes @ 0x3B
   935  005B                     	ds	1
   936  005C                     ___fldiv@new_exp:	
   937                           
   938                           ; 2 bytes @ 0x3C
   939  005C                     	ds	2
   940  005E                     ___fldiv@grs:	
   941                           
   942                           ; 4 bytes @ 0x3E
   943  005E                     	ds	4
   944  0062                     ___fldiv@bexp:	
   945                           
   946                           ; 1 bytes @ 0x42
   947  0062                     	ds	1
   948  0063                     ___fldiv@aexp:	
   949                           
   950                           ; 1 bytes @ 0x43
   951  0063                     	ds	1
   952  0064                     ??_main:	
   953                           
   954                           ; 1 bytes @ 0x44
   955  0064                     	ds	4
   956                           
   957                           	psect	maintext
   958  0466                     __pmaintext:	
   959 ;;
   960 ;;Main: autosize = 0, tempsize = 4, incstack = 0, save=0
   961 ;;
   962 ;; *************** function _main *****************
   963 ;; Defined at:
   964 ;;		line 60 in file "main.c"
   965 ;; Parameters:    Size  Location     Type
   966 ;;		None
   967 ;; Auto vars:     Size  Location     Type
   968 ;;		None
   969 ;; Return value:  Size  Location     Type
   970 ;;                  1    wreg      void 
   971 ;; Registers used:
   972 ;;		wreg, fsr0l, fsr0h, status,2, status,0, btemp+1, pclath, cstack
   973 ;; Tracked objects:
   974 ;;		On entry : B00/0
   975 ;;		On exit  : 0/0
   976 ;;		Unchanged: 0/0
   977 ;; Data sizes:     COMMON   BANK0   BANK1   BANK3   BANK2
   978 ;;      Params:         0       0       0       0       0
   979 ;;      Locals:         0       0       0       0       0
   980 ;;      Temps:          0       4       0       0       0
   981 ;;      Totals:         0       4       0       0       0
   982 ;;Total ram usage:        4 bytes
   983 ;; Hardware stack levels required when called:    3
   984 ;; This function calls:
   985 ;;		_BCD_2_DEC
   986 ;;		_I2C_Master_Read
   987 ;;		_I2C_Master_Start
   988 ;;		_I2C_Master_Stop
   989 ;;		_I2C_Master_Write
   990 ;;		_LCD8bits_init
   991 ;;		_LCDcursorSet
   992 ;;		_LCDisplay
   993 ;;		___fldiv
   994 ;;		___flmul
   995 ;;		___flsub
   996 ;;		___fltol
   997 ;;		___xxtofl
   998 ;;		_config
   999 ;;		_sprintf
  1000 ;; This function is called by:
  1001 ;;		Startup code after reset
  1002 ;; This function uses a non-reentrant model
  1003 ;;
  1004                           
  1005                           
  1006                           ;psect for function _main
  1007  0466                     _main:	
  1008  0466                     l2615:	
  1009                           ;incstack = 0
  1010                           ; Regs used in _main: [wreg-fsr0h+status,2+status,0+btemp+1+pclath+cstack]
  1011                           
  1012                           
  1013                           ;main.c: 61:     config();
  1014  0466  160A  118A  279B  120A  118A  	fcall	_config
  1015                           
  1016                           ;main.c: 62:     LCD8bits_init();
  1017  046B  120A  158A  219D  120A  118A  	fcall	_LCD8bits_init
  1018                           
  1019                           ;main.c: 63:     LCDcursorSet(1,1);
  1020  0470  01F3               	clrf	LCDcursorSet@column
  1021  0471  0AF3               	incf	LCDcursorSet@column,f
  1022  0472  3001               	movlw	1
  1023  0473  160A  118A  277F  120A  118A  	fcall	_LCDcursorSet
  1024  0478                     l2617:	
  1025                           
  1026                           ;main.c: 64:     _delay((unsigned long)((2)*(4000000/4000.0)));
  1027  0478  3003               	movlw	3
  1028  0479  1283               	bcf	3,5	;RP0=0, select bank0
  1029  047A  1303               	bcf	3,6	;RP1=0, select bank0
  1030  047B  00E5               	movwf	??_main+1
  1031  047C  3097               	movlw	151
  1032  047D  00E4               	movwf	??_main
  1033  047E                     u3637:	
  1034  047E  0BE4               	decfsz	??_main,f
  1035  047F  2C7E               	goto	u3637
  1036  0480  0BE5               	decfsz	??_main+1,f
  1037  0481  2C7E               	goto	u3637
  1038  0482                     l2619:	
  1039                           
  1040                           ;main.c: 65:     LCDisplay("S1:");
  1041  0482  3017               	movlw	(low ((STR_1-__stringbase)| (0+32768)))& (0+255)
  1042  0483  00F3               	movwf	LCDisplay@val
  1043  0484  3080               	movlw	128
  1044  0485  00F4               	movwf	LCDisplay@val+1
  1045  0486  120A  158A  206C  120A  118A  	fcall	_LCDisplay
  1046  048B                     l2621:	
  1047                           
  1048                           ;main.c: 66:     LCDcursorSet(1,5);
  1049  048B  3005               	movlw	5
  1050  048C  1283               	bcf	3,5	;RP0=0, select bank0
  1051  048D  1303               	bcf	3,6	;RP1=0, select bank0
  1052  048E  00E4               	movwf	??_main
  1053  048F  0864               	movf	??_main,w
  1054  0490  00F3               	movwf	LCDcursorSet@column
  1055  0491  3001               	movlw	1
  1056  0492  160A  118A  277F  120A  118A  	fcall	_LCDcursorSet
  1057  0497                     l2623:	
  1058                           
  1059                           ;main.c: 67:     LCDisplay("CONT:");
  1060  0497  3011               	movlw	(low ((STR_2-__stringbase)| (0+32768)))& (0+255)
  1061  0498  00F3               	movwf	LCDisplay@val
  1062  0499  3080               	movlw	128
  1063  049A  00F4               	movwf	LCDisplay@val+1
  1064  049B  120A  158A  206C  120A  118A  	fcall	_LCDisplay
  1065  04A0                     l2625:	
  1066                           
  1067                           ;main.c: 68:     LCDcursorSet(1,11);
  1068  04A0  300B               	movlw	11
  1069  04A1  1283               	bcf	3,5	;RP0=0, select bank0
  1070  04A2  1303               	bcf	3,6	;RP1=0, select bank0
  1071  04A3  00E4               	movwf	??_main
  1072  04A4  0864               	movf	??_main,w
  1073  04A5  00F3               	movwf	LCDcursorSet@column
  1074  04A6  3001               	movlw	1
  1075  04A7  160A  118A  277F  120A  118A  	fcall	_LCDcursorSet
  1076  04AC                     l2627:	
  1077                           
  1078                           ;main.c: 69:     LCDisplay("TIME:");
  1079  04AC  300B               	movlw	(low ((STR_3-__stringbase)| (0+32768)))& (0+255)
  1080  04AD  00F3               	movwf	LCDisplay@val
  1081  04AE  3080               	movlw	128
  1082  04AF  00F4               	movwf	LCDisplay@val+1
  1083  04B0  120A  158A  206C  120A  118A  	fcall	_LCDisplay
  1084  04B5                     l2629:	
  1085                           
  1086                           ;main.c: 73:         I2C_Master_Start();
  1087  04B5  160A  118A  2756  120A  118A  	fcall	_I2C_Master_Start
  1088  04BA                     l2631:	
  1089                           
  1090                           ;main.c: 74:         I2C_Master_Write(0xD0);
  1091  04BA  30D0               	movlw	208
  1092  04BB  00F0               	movwf	I2C_Master_Write@d
  1093  04BC  3000               	movlw	0
  1094  04BD  00F1               	movwf	I2C_Master_Write@d+1
  1095  04BE  160A  118A  2768  120A  118A  	fcall	_I2C_Master_Write
  1096  04C3                     l2633:	
  1097                           
  1098                           ;main.c: 75:         I2C_Master_Write(0);
  1099  04C3  3000               	movlw	0
  1100  04C4  00F0               	movwf	I2C_Master_Write@d
  1101  04C5  00F1               	movwf	I2C_Master_Write@d+1
  1102  04C6  160A  118A  2768  120A  118A  	fcall	_I2C_Master_Write
  1103  04CB                     l2635:	
  1104                           
  1105                           ;main.c: 76:         I2C_Master_Stop();
  1106  04CB  160A  118A  275F  120A  118A  	fcall	_I2C_Master_Stop
  1107  04D0                     l2637:	
  1108                           
  1109                           ;main.c: 78:         I2C_Master_Start();
  1110  04D0  160A  118A  2756  120A  118A  	fcall	_I2C_Master_Start
  1111  04D5                     l2639:	
  1112                           
  1113                           ;main.c: 79:         I2C_Master_Write(0xD1);
  1114  04D5  30D1               	movlw	209
  1115  04D6  00F0               	movwf	I2C_Master_Write@d
  1116  04D7  3000               	movlw	0
  1117  04D8  00F1               	movwf	I2C_Master_Write@d+1
  1118  04D9  160A  118A  2768  120A  118A  	fcall	_I2C_Master_Write
  1119  04DE                     l2641:	
  1120                           
  1121                           ;main.c: 80:         sec = BCD_2_DEC(I2C_Master_Read(0));
  1122  04DE  3000               	movlw	0
  1123  04DF  00F0               	movwf	I2C_Master_Read@a
  1124  04E0  00F1               	movwf	I2C_Master_Read@a+1
  1125  04E1  120A  158A  20B9  120A  118A  	fcall	_I2C_Master_Read
  1126  04E6  0871               	movf	?_I2C_Master_Read+1,w
  1127  04E7  00F7               	movwf	BCD_2_DEC@to_convert+1
  1128  04E8  0870               	movf	?_I2C_Master_Read,w
  1129  04E9  00F6               	movwf	BCD_2_DEC@to_convert
  1130  04EA  120A  158A  2047  120A  118A  	fcall	_BCD_2_DEC
  1131  04EF  0876               	movf	?_BCD_2_DEC,w
  1132  04F0  1283               	bcf	3,5	;RP0=0, select bank0
  1133  04F1  1303               	bcf	3,6	;RP1=0, select bank0
  1134  04F2  00E4               	movwf	??_main
  1135  04F3  0864               	movf	??_main,w
  1136  04F4  00EB               	movwf	_sec
  1137  04F5                     l2643:	
  1138                           
  1139                           ;main.c: 81:         I2C_Master_Stop();
  1140  04F5  160A  118A  275F  120A  118A  	fcall	_I2C_Master_Stop
  1141  04FA                     l2645:	
  1142                           
  1143                           ;main.c: 83:         I2C_Master_Start();
  1144  04FA  160A  118A  2756  120A  118A  	fcall	_I2C_Master_Start
  1145  04FF                     l2647:	
  1146                           
  1147                           ;main.c: 84:         I2C_Master_Write(0xD1);
  1148  04FF  30D1               	movlw	209
  1149  0500  00F0               	movwf	I2C_Master_Write@d
  1150  0501  3000               	movlw	0
  1151  0502  00F1               	movwf	I2C_Master_Write@d+1
  1152  0503  160A  118A  2768  120A  118A  	fcall	_I2C_Master_Write
  1153  0508                     l2649:	
  1154                           
  1155                           ;main.c: 85:         min = BCD_2_DEC(I2C_Master_Read(0));
  1156  0508  3000               	movlw	0
  1157  0509  00F0               	movwf	I2C_Master_Read@a
  1158  050A  00F1               	movwf	I2C_Master_Read@a+1
  1159  050B  120A  158A  20B9  120A  118A  	fcall	_I2C_Master_Read
  1160  0510  0871               	movf	?_I2C_Master_Read+1,w
  1161  0511  00F7               	movwf	BCD_2_DEC@to_convert+1
  1162  0512  0870               	movf	?_I2C_Master_Read,w
  1163  0513  00F6               	movwf	BCD_2_DEC@to_convert
  1164  0514  120A  158A  2047  120A  118A  	fcall	_BCD_2_DEC
  1165  0519  0876               	movf	?_BCD_2_DEC,w
  1166  051A  1283               	bcf	3,5	;RP0=0, select bank0
  1167  051B  1303               	bcf	3,6	;RP1=0, select bank0
  1168  051C  00E4               	movwf	??_main
  1169  051D  0864               	movf	??_main,w
  1170  051E  00EA               	movwf	_min
  1171  051F                     l2651:	
  1172                           
  1173                           ;main.c: 86:         I2C_Master_Stop();
  1174  051F  160A  118A  275F  120A  118A  	fcall	_I2C_Master_Stop
  1175  0524                     l2653:	
  1176                           
  1177                           ;main.c: 89:         I2C_Master_Start();
  1178  0524  160A  118A  2756  120A  118A  	fcall	_I2C_Master_Start
  1179  0529                     l2655:	
  1180                           
  1181                           ;main.c: 90:         I2C_Master_Write(0xD1);
  1182  0529  30D1               	movlw	209
  1183  052A  00F0               	movwf	I2C_Master_Write@d
  1184  052B  3000               	movlw	0
  1185  052C  00F1               	movwf	I2C_Master_Write@d+1
  1186  052D  160A  118A  2768  120A  118A  	fcall	_I2C_Master_Write
  1187  0532                     l2657:	
  1188                           
  1189                           ;main.c: 91:         I2C_Master_Read(0);
  1190  0532  3000               	movlw	0
  1191  0533  00F0               	movwf	I2C_Master_Read@a
  1192  0534  00F1               	movwf	I2C_Master_Read@a+1
  1193  0535  120A  158A  20B9  120A  118A  	fcall	_I2C_Master_Read
  1194  053A                     l2659:	
  1195                           
  1196                           ;main.c: 92:         I2C_Master_Stop();
  1197  053A  160A  118A  275F  120A  118A  	fcall	_I2C_Master_Stop
  1198  053F                     l2661:	
  1199                           
  1200                           ;main.c: 93:         _delay((unsigned long)((10)*(4000000/4000.0)));
  1201  053F  300D               	movlw	13
  1202  0540  1283               	bcf	3,5	;RP0=0, select bank0
  1203  0541  1303               	bcf	3,6	;RP1=0, select bank0
  1204  0542  00E5               	movwf	??_main+1
  1205  0543  30FB               	movlw	251
  1206  0544  00E4               	movwf	??_main
  1207  0545                     u3647:	
  1208  0545  0BE4               	decfsz	??_main,f
  1209  0546  2D45               	goto	u3647
  1210  0547  0BE5               	decfsz	??_main+1,f
  1211  0548  2D45               	goto	u3647
  1212  0549                     l2663:	
  1213                           
  1214                           ;main.c: 95:         sprintf(sec1, "%d",sec);
  1215  0549  301B               	movlw	(low ((STR_4-__stringbase)| (0+32768)))& (0+255)
  1216  054A  1283               	bcf	3,5	;RP0=0, select bank0
  1217  054B  1303               	bcf	3,6	;RP1=0, select bank0
  1218  054C  00E4               	movwf	??_main
  1219  054D  0864               	movf	??_main,w
  1220  054E  00A0               	movwf	sprintf@f
  1221  054F  086B               	movf	_sec,w
  1222  0550  00E5               	movwf	??_main+1
  1223  0551  01E6               	clrf	??_main+2
  1224  0552  0865               	movf	??_main+1,w
  1225  0553  00A1               	movwf	?_sprintf+1
  1226  0554  0866               	movf	??_main+2,w
  1227  0555  00A2               	movwf	?_sprintf+2
  1228  0556  30AF               	movlw	(low (_sec1| 0))& (0+255)
  1229  0557  120A  118A  201D  120A  118A  	fcall	_sprintf
  1230  055C                     l2665:	
  1231                           
  1232                           ;main.c: 96:         sprintf(min1, "%d",min);
  1233  055C  301B               	movlw	(low ((STR_4-__stringbase)| (0+32768)))& (0+255)
  1234  055D  1283               	bcf	3,5	;RP0=0, select bank0
  1235  055E  1303               	bcf	3,6	;RP1=0, select bank0
  1236  055F  00E4               	movwf	??_main
  1237  0560  0864               	movf	??_main,w
  1238  0561  00A0               	movwf	sprintf@f
  1239  0562  086A               	movf	_min,w
  1240  0563  00E5               	movwf	??_main+1
  1241  0564  01E6               	clrf	??_main+2
  1242  0565  0865               	movf	??_main+1,w
  1243  0566  00A1               	movwf	?_sprintf+1
  1244  0567  0866               	movf	??_main+2,w
  1245  0568  00A2               	movwf	?_sprintf+2
  1246  0569  30AD               	movlw	(low (_min1| 0))& (0+255)
  1247  056A  120A  118A  201D  120A  118A  	fcall	_sprintf
  1248  056F                     l2667:	
  1249                           
  1250                           ;main.c: 99:         I2C_Master_Start();
  1251  056F  160A  118A  2756  120A  118A  	fcall	_I2C_Master_Start
  1252  0574                     l2669:	
  1253                           
  1254                           ;main.c: 100:         I2C_Master_Write(0x51);
  1255  0574  3051               	movlw	81
  1256  0575  00F0               	movwf	I2C_Master_Write@d
  1257  0576  3000               	movlw	0
  1258  0577  00F1               	movwf	I2C_Master_Write@d+1
  1259  0578  160A  118A  2768  120A  118A  	fcall	_I2C_Master_Write
  1260  057D                     l2671:	
  1261                           
  1262                           ;main.c: 101:         va1 = I2C_Master_Read(0);
  1263  057D  3000               	movlw	0
  1264  057E  00F0               	movwf	I2C_Master_Read@a
  1265  057F  00F1               	movwf	I2C_Master_Read@a+1
  1266  0580  120A  158A  20B9  120A  118A  	fcall	_I2C_Master_Read
  1267  0585  0870               	movf	?_I2C_Master_Read,w
  1268  0586  1283               	bcf	3,5	;RP0=0, select bank0
  1269  0587  1303               	bcf	3,6	;RP1=0, select bank0
  1270  0588  00E4               	movwf	??_main
  1271  0589  0864               	movf	??_main,w
  1272  058A  00EC               	movwf	_va1
  1273  058B                     l2673:	
  1274                           
  1275                           ;main.c: 102:         I2C_Master_Stop();
  1276  058B  160A  118A  275F  120A  118A  	fcall	_I2C_Master_Stop
  1277  0590                     l2675:	
  1278                           
  1279                           ;main.c: 103:         _delay((unsigned long)((10)*(4000000/4000.0)));
  1280  0590  300D               	movlw	13
  1281  0591  1283               	bcf	3,5	;RP0=0, select bank0
  1282  0592  1303               	bcf	3,6	;RP1=0, select bank0
  1283  0593  00E5               	movwf	??_main+1
  1284  0594  30FB               	movlw	251
  1285  0595  00E4               	movwf	??_main
  1286  0596                     u3657:	
  1287  0596  0BE4               	decfsz	??_main,f
  1288  0597  2D96               	goto	u3657
  1289  0598  0BE5               	decfsz	??_main+1,f
  1290  0599  2D96               	goto	u3657
  1291  059A                     l2677:	
  1292                           
  1293                           ;main.c: 106:         I2C_Master_Start();
  1294  059A  160A  118A  2756  120A  118A  	fcall	_I2C_Master_Start
  1295  059F                     l2679:	
  1296                           
  1297                           ;main.c: 107:         I2C_Master_Write(0x41);
  1298  059F  3041               	movlw	65
  1299  05A0  00F0               	movwf	I2C_Master_Write@d
  1300  05A1  3000               	movlw	0
  1301  05A2  00F1               	movwf	I2C_Master_Write@d+1
  1302  05A3  160A  118A  2768  120A  118A  	fcall	_I2C_Master_Write
  1303  05A8                     l2681:	
  1304                           
  1305                           ;main.c: 108:         cont = I2C_Master_Read(0);
  1306  05A8  3000               	movlw	0
  1307  05A9  00F0               	movwf	I2C_Master_Read@a
  1308  05AA  00F1               	movwf	I2C_Master_Read@a+1
  1309  05AB  120A  158A  20B9  120A  118A  	fcall	_I2C_Master_Read
  1310  05B0  0870               	movf	?_I2C_Master_Read,w
  1311  05B1  1283               	bcf	3,5	;RP0=0, select bank0
  1312  05B2  1303               	bcf	3,6	;RP1=0, select bank0
  1313  05B3  00E4               	movwf	??_main
  1314  05B4  0864               	movf	??_main,w
  1315  05B5  00ED               	movwf	_cont
  1316  05B6                     l2683:	
  1317                           
  1318                           ;main.c: 109:         I2C_Master_Stop();
  1319  05B6  160A  118A  275F  120A  118A  	fcall	_I2C_Master_Stop
  1320  05BB                     l2685:	
  1321                           
  1322                           ;main.c: 110:         _delay((unsigned long)((10)*(4000000/4000.0)));
  1323  05BB  300D               	movlw	13
  1324  05BC  1283               	bcf	3,5	;RP0=0, select bank0
  1325  05BD  1303               	bcf	3,6	;RP1=0, select bank0
  1326  05BE  00E5               	movwf	??_main+1
  1327  05BF  30FB               	movlw	251
  1328  05C0  00E4               	movwf	??_main
  1329  05C1                     u3667:	
  1330  05C1  0BE4               	decfsz	??_main,f
  1331  05C2  2DC1               	goto	u3667
  1332  05C3  0BE5               	decfsz	??_main+1,f
  1333  05C4  2DC1               	goto	u3667
  1334  05C5                     l2687:	
  1335                           
  1336                           ;main.c: 113:         sprintf(contStr, "%d",cont);
  1337  05C5  301B               	movlw	(low ((STR_4-__stringbase)| (0+32768)))& (0+255)
  1338  05C6  1283               	bcf	3,5	;RP0=0, select bank0
  1339  05C7  1303               	bcf	3,6	;RP1=0, select bank0
  1340  05C8  00E4               	movwf	??_main
  1341  05C9  0864               	movf	??_main,w
  1342  05CA  00A0               	movwf	sprintf@f
  1343  05CB  086D               	movf	_cont,w
  1344  05CC  00E5               	movwf	??_main+1
  1345  05CD  01E6               	clrf	??_main+2
  1346  05CE  0865               	movf	??_main+1,w
  1347  05CF  00A1               	movwf	?_sprintf+1
  1348  05D0  0866               	movf	??_main+2,w
  1349  05D1  00A2               	movwf	?_sprintf+2
  1350  05D2  306E               	movlw	(low (_contStr| 0))& (0+255)
  1351  05D3  120A  118A  201D  120A  118A  	fcall	_sprintf
  1352                           
  1353                           ;main.c: 115:         pot1 = va1;
  1354  05D8  1283               	bcf	3,5	;RP0=0, select bank0
  1355  05D9  1303               	bcf	3,6	;RP1=0, select bank0
  1356  05DA  086C               	movf	_va1,w
  1357  05DB  00E4               	movwf	??_main
  1358  05DC  01E5               	clrf	??_main+1
  1359  05DD  01E6               	clrf	??_main+2
  1360  05DE  01E7               	clrf	??_main+3
  1361  05DF  0867               	movf	??_main+3,w
  1362  05E0  00F3               	movwf	___xxtofl@val+3
  1363  05E1  0866               	movf	??_main+2,w
  1364  05E2  00F2               	movwf	___xxtofl@val+2
  1365  05E3  0865               	movf	??_main+1,w
  1366  05E4  00F1               	movwf	___xxtofl@val+1
  1367  05E5  0864               	movf	??_main,w
  1368  05E6  00F0               	movwf	___xxtofl@val
  1369  05E7  3000               	movlw	0
  1370  05E8  120A  158A  22D1  120A  118A  	fcall	___xxtofl
  1371  05ED  0873               	movf	?___xxtofl+3,w
  1372  05EE  1683               	bsf	3,5	;RP0=1, select bank1
  1373  05EF  1303               	bcf	3,6	;RP1=0, select bank1
  1374  05F0  00A7               	movwf	(_pot1+3)^(0+128)
  1375  05F1  0872               	movf	?___xxtofl+2,w
  1376  05F2  00A6               	movwf	(_pot1+2)^(0+128)
  1377  05F3  0871               	movf	?___xxtofl+1,w
  1378  05F4  00A5               	movwf	(_pot1+1)^(0+128)
  1379  05F5  0870               	movf	?___xxtofl,w
  1380  05F6  00A4               	movwf	_pot1^(0+128)
  1381  05F7                     l2689:	
  1382                           
  1383                           ;main.c: 116:         pot1 = pot1 * 5/255;
  1384  05F7  3043               	movlw	67
  1385  05F8  1283               	bcf	3,5	;RP0=0, select bank0
  1386  05F9  1303               	bcf	3,6	;RP1=0, select bank0
  1387  05FA  00CD               	movwf	___fldiv@a+3
  1388  05FB  307F               	movlw	127
  1389  05FC  00CC               	movwf	___fldiv@a+2
  1390  05FD  3000               	movlw	0
  1391  05FE  00CB               	movwf	___fldiv@a+1
  1392  05FF  3000               	movlw	0
  1393  0600  00CA               	movwf	___fldiv@a
  1394  0601  3040               	movlw	64
  1395  0602  00B3               	movwf	___flmul@b+3
  1396  0603  30A0               	movlw	160
  1397  0604  00B2               	movwf	___flmul@b+2
  1398  0605  3000               	movlw	0
  1399  0606  00B1               	movwf	___flmul@b+1
  1400  0607  3000               	movlw	0
  1401  0608  00B0               	movwf	___flmul@b
  1402  0609  1683               	bsf	3,5	;RP0=1, select bank1
  1403  060A  1303               	bcf	3,6	;RP1=0, select bank1
  1404  060B  0827               	movf	(_pot1+3)^(0+128),w
  1405  060C  1283               	bcf	3,5	;RP0=0, select bank0
  1406  060D  1303               	bcf	3,6	;RP1=0, select bank0
  1407  060E  00B7               	movwf	___flmul@a+3
  1408  060F  1683               	bsf	3,5	;RP0=1, select bank1
  1409  0610  1303               	bcf	3,6	;RP1=0, select bank1
  1410  0611  0826               	movf	(_pot1+2)^(0+128),w
  1411  0612  1283               	bcf	3,5	;RP0=0, select bank0
  1412  0613  1303               	bcf	3,6	;RP1=0, select bank0
  1413  0614  00B6               	movwf	___flmul@a+2
  1414  0615  1683               	bsf	3,5	;RP0=1, select bank1
  1415  0616  1303               	bcf	3,6	;RP1=0, select bank1
  1416  0617  0825               	movf	(_pot1+1)^(0+128),w
  1417  0618  1283               	bcf	3,5	;RP0=0, select bank0
  1418  0619  1303               	bcf	3,6	;RP1=0, select bank0
  1419  061A  00B5               	movwf	___flmul@a+1
  1420  061B  1683               	bsf	3,5	;RP0=1, select bank1
  1421  061C  1303               	bcf	3,6	;RP1=0, select bank1
  1422  061D  0824               	movf	_pot1^(0+128),w
  1423  061E  1283               	bcf	3,5	;RP0=0, select bank0
  1424  061F  1303               	bcf	3,6	;RP1=0, select bank0
  1425  0620  00B4               	movwf	___flmul@a
  1426  0621  120A  118A  2105  120A  118A  	fcall	___flmul
  1427  0626  1283               	bcf	3,5	;RP0=0, select bank0
  1428  0627  1303               	bcf	3,6	;RP1=0, select bank0
  1429  0628  0833               	movf	?___flmul+3,w
  1430  0629  00D1               	movwf	___fldiv@b+3
  1431  062A  0832               	movf	?___flmul+2,w
  1432  062B  00D0               	movwf	___fldiv@b+2
  1433  062C  0831               	movf	?___flmul+1,w
  1434  062D  00CF               	movwf	___fldiv@b+1
  1435  062E  0830               	movf	?___flmul,w
  1436  062F  00CE               	movwf	___fldiv@b
  1437  0630  120A  158A  238B  120A  118A  	fcall	___fldiv
  1438  0635  1283               	bcf	3,5	;RP0=0, select bank0
  1439  0636  1303               	bcf	3,6	;RP1=0, select bank0
  1440  0637  084D               	movf	?___fldiv+3,w
  1441  0638  1683               	bsf	3,5	;RP0=1, select bank1
  1442  0639  1303               	bcf	3,6	;RP1=0, select bank1
  1443  063A  00A7               	movwf	(_pot1+3)^(0+128)
  1444  063B  1283               	bcf	3,5	;RP0=0, select bank0
  1445  063C  1303               	bcf	3,6	;RP1=0, select bank0
  1446  063D  084C               	movf	?___fldiv+2,w
  1447  063E  1683               	bsf	3,5	;RP0=1, select bank1
  1448  063F  1303               	bcf	3,6	;RP1=0, select bank1
  1449  0640  00A6               	movwf	(_pot1+2)^(0+128)
  1450  0641  1283               	bcf	3,5	;RP0=0, select bank0
  1451  0642  1303               	bcf	3,6	;RP1=0, select bank0
  1452  0643  084B               	movf	?___fldiv+1,w
  1453  0644  1683               	bsf	3,5	;RP0=1, select bank1
  1454  0645  1303               	bcf	3,6	;RP1=0, select bank1
  1455  0646  00A5               	movwf	(_pot1+1)^(0+128)
  1456  0647  1283               	bcf	3,5	;RP0=0, select bank0
  1457  0648  1303               	bcf	3,6	;RP1=0, select bank0
  1458  0649  084A               	movf	?___fldiv,w
  1459  064A  1683               	bsf	3,5	;RP0=1, select bank1
  1460  064B  1303               	bcf	3,6	;RP1=0, select bank1
  1461  064C  00A4               	movwf	_pot1^(0+128)
  1462  064D                     l2691:	
  1463                           
  1464                           ;main.c: 117:         int1 = pot1;
  1465  064D  0827               	movf	(_pot1+3)^(0+128),w
  1466  064E  00F3               	movwf	___fltol@f1+3
  1467  064F  0826               	movf	(_pot1+2)^(0+128),w
  1468  0650  00F2               	movwf	___fltol@f1+2
  1469  0651  0825               	movf	(_pot1+1)^(0+128),w
  1470  0652  00F1               	movwf	___fltol@f1+1
  1471  0653  0824               	movf	_pot1^(0+128),w
  1472  0654  00F0               	movwf	___fltol@f1
  1473  0655  120A  158A  2257  120A  118A  	fcall	___fltol
  1474  065A  0871               	movf	?___fltol+1,w
  1475  065B  1283               	bcf	3,5	;RP0=0, select bank0
  1476  065C  1303               	bcf	3,6	;RP1=0, select bank0
  1477  065D  00E9               	movwf	_int1+1
  1478  065E  0870               	movf	?___fltol,w
  1479  065F  00E8               	movwf	_int1
  1480                           
  1481                           ;main.c: 118:         dectemp1 = (pot1 - int1)*100;
  1482  0660  3042               	movlw	66
  1483  0661  00B3               	movwf	___flmul@b+3
  1484  0662  30C8               	movlw	200
  1485  0663  00B2               	movwf	___flmul@b+2
  1486  0664  3000               	movlw	0
  1487  0665  00B1               	movwf	___flmul@b+1
  1488  0666  3000               	movlw	0
  1489  0667  00B0               	movwf	___flmul@b
  1490  0668  0868               	movf	_int1,w
  1491  0669  00F0               	movwf	___xxtofl@val
  1492  066A  0869               	movf	_int1+1,w
  1493  066B  00F1               	movwf	___xxtofl@val+1
  1494  066C  3000               	movlw	0
  1495  066D  1BF1               	btfsc	___xxtofl@val+1,7
  1496  066E  30FF               	movlw	255
  1497  066F  00F2               	movwf	___xxtofl@val+2
  1498  0670  00F3               	movwf	___xxtofl@val+3
  1499  0671  3001               	movlw	1
  1500  0672  120A  158A  22D1  120A  118A  	fcall	___xxtofl
  1501  0677  0873               	movf	?___xxtofl+3,w
  1502  0678  1283               	bcf	3,5	;RP0=0, select bank0
  1503  0679  1303               	bcf	3,6	;RP1=0, select bank0
  1504  067A  00AB               	movwf	___flsub@a+3
  1505  067B  0872               	movf	?___xxtofl+2,w
  1506  067C  00AA               	movwf	___flsub@a+2
  1507  067D  0871               	movf	?___xxtofl+1,w
  1508  067E  00A9               	movwf	___flsub@a+1
  1509  067F  0870               	movf	?___xxtofl,w
  1510  0680  00A8               	movwf	___flsub@a
  1511  0681  1683               	bsf	3,5	;RP0=1, select bank1
  1512  0682  1303               	bcf	3,6	;RP1=0, select bank1
  1513  0683  0827               	movf	(_pot1+3)^(0+128),w
  1514  0684  1283               	bcf	3,5	;RP0=0, select bank0
  1515  0685  1303               	bcf	3,6	;RP1=0, select bank0
  1516  0686  00AF               	movwf	___flsub@b+3
  1517  0687  1683               	bsf	3,5	;RP0=1, select bank1
  1518  0688  1303               	bcf	3,6	;RP1=0, select bank1
  1519  0689  0826               	movf	(_pot1+2)^(0+128),w
  1520  068A  1283               	bcf	3,5	;RP0=0, select bank0
  1521  068B  1303               	bcf	3,6	;RP1=0, select bank0
  1522  068C  00AE               	movwf	___flsub@b+2
  1523  068D  1683               	bsf	3,5	;RP0=1, select bank1
  1524  068E  1303               	bcf	3,6	;RP1=0, select bank1
  1525  068F  0825               	movf	(_pot1+1)^(0+128),w
  1526  0690  1283               	bcf	3,5	;RP0=0, select bank0
  1527  0691  1303               	bcf	3,6	;RP1=0, select bank0
  1528  0692  00AD               	movwf	___flsub@b+1
  1529  0693  1683               	bsf	3,5	;RP0=1, select bank1
  1530  0694  1303               	bcf	3,6	;RP1=0, select bank1
  1531  0695  0824               	movf	_pot1^(0+128),w
  1532  0696  1283               	bcf	3,5	;RP0=0, select bank0
  1533  0697  1303               	bcf	3,6	;RP1=0, select bank0
  1534  0698  00AC               	movwf	___flsub@b
  1535  0699  160A  118A  27B7  120A  118A  	fcall	___flsub
  1536  069E  1283               	bcf	3,5	;RP0=0, select bank0
  1537  069F  1303               	bcf	3,6	;RP1=0, select bank0
  1538  06A0  082B               	movf	?___flsub+3,w
  1539  06A1  00B7               	movwf	___flmul@a+3
  1540  06A2  082A               	movf	?___flsub+2,w
  1541  06A3  00B6               	movwf	___flmul@a+2
  1542  06A4  0829               	movf	?___flsub+1,w
  1543  06A5  00B5               	movwf	___flmul@a+1
  1544  06A6  0828               	movf	?___flsub,w
  1545  06A7  00B4               	movwf	___flmul@a
  1546  06A8  120A  118A  2105  120A  118A  	fcall	___flmul
  1547  06AD  1283               	bcf	3,5	;RP0=0, select bank0
  1548  06AE  1303               	bcf	3,6	;RP1=0, select bank0
  1549  06AF  0833               	movf	?___flmul+3,w
  1550  06B0  1683               	bsf	3,5	;RP0=1, select bank1
  1551  06B1  1303               	bcf	3,6	;RP1=0, select bank1
  1552  06B2  00A3               	movwf	(_dectemp1+3)^(0+128)
  1553  06B3  1283               	bcf	3,5	;RP0=0, select bank0
  1554  06B4  1303               	bcf	3,6	;RP1=0, select bank0
  1555  06B5  0832               	movf	?___flmul+2,w
  1556  06B6  1683               	bsf	3,5	;RP0=1, select bank1
  1557  06B7  1303               	bcf	3,6	;RP1=0, select bank1
  1558  06B8  00A2               	movwf	(_dectemp1+2)^(0+128)
  1559  06B9  1283               	bcf	3,5	;RP0=0, select bank0
  1560  06BA  1303               	bcf	3,6	;RP1=0, select bank0
  1561  06BB  0831               	movf	?___flmul+1,w
  1562  06BC  1683               	bsf	3,5	;RP0=1, select bank1
  1563  06BD  1303               	bcf	3,6	;RP1=0, select bank1
  1564  06BE  00A1               	movwf	(_dectemp1+1)^(0+128)
  1565  06BF  1283               	bcf	3,5	;RP0=0, select bank0
  1566  06C0  1303               	bcf	3,6	;RP1=0, select bank0
  1567  06C1  0830               	movf	?___flmul,w
  1568  06C2  1683               	bsf	3,5	;RP0=1, select bank1
  1569  06C3  1303               	bcf	3,6	;RP1=0, select bank1
  1570  06C4  00A0               	movwf	_dectemp1^(0+128)
  1571  06C5                     l2693:	
  1572                           
  1573                           ;main.c: 119:         dec1 = dectemp1;
  1574  06C5  0823               	movf	(_dectemp1+3)^(0+128),w
  1575  06C6  00F3               	movwf	___fltol@f1+3
  1576  06C7  0822               	movf	(_dectemp1+2)^(0+128),w
  1577  06C8  00F2               	movwf	___fltol@f1+2
  1578  06C9  0821               	movf	(_dectemp1+1)^(0+128),w
  1579  06CA  00F1               	movwf	___fltol@f1+1
  1580  06CB  0820               	movf	_dectemp1^(0+128),w
  1581  06CC  00F0               	movwf	___fltol@f1
  1582  06CD  120A  158A  2257  120A  118A  	fcall	___fltol
  1583  06D2  0871               	movf	?___fltol+1,w
  1584  06D3  1683               	bsf	3,5	;RP0=1, select bank1
  1585  06D4  1303               	bcf	3,6	;RP1=0, select bank1
  1586  06D5  00A9               	movwf	(_dec1+1)^(0+128)
  1587  06D6  0870               	movf	?___fltol,w
  1588  06D7  00A8               	movwf	_dec1^(0+128)
  1589  06D8                     l2695:	
  1590                           
  1591                           ;main.c: 120:         sprintf(potStr1, "%d",int1);
  1592  06D8  301B               	movlw	(low ((STR_4-__stringbase)| (0+32768)))& (0+255)
  1593  06D9  1283               	bcf	3,5	;RP0=0, select bank0
  1594  06DA  1303               	bcf	3,6	;RP1=0, select bank0
  1595  06DB  00E4               	movwf	??_main
  1596  06DC  0864               	movf	??_main,w
  1597  06DD  00A0               	movwf	sprintf@f
  1598  06DE  0869               	movf	_int1+1,w
  1599  06DF  00A2               	movwf	?_sprintf+2
  1600  06E0  0868               	movf	_int1,w
  1601  06E1  00A1               	movwf	?_sprintf+1
  1602  06E2  30AA               	movlw	(low (_potStr1| 0))& (0+255)
  1603  06E3  120A  118A  201D  120A  118A  	fcall	_sprintf
  1604  06E8                     l2697:	
  1605                           
  1606                           ;main.c: 121:         sprintf(decpot1, "%d",dec1);
  1607  06E8  301B               	movlw	(low ((STR_4-__stringbase)| (0+32768)))& (0+255)
  1608  06E9  1283               	bcf	3,5	;RP0=0, select bank0
  1609  06EA  1303               	bcf	3,6	;RP1=0, select bank0
  1610  06EB  00E4               	movwf	??_main
  1611  06EC  0864               	movf	??_main,w
  1612  06ED  00A0               	movwf	sprintf@f
  1613  06EE  1683               	bsf	3,5	;RP0=1, select bank1
  1614  06EF  1303               	bcf	3,6	;RP1=0, select bank1
  1615  06F0  0829               	movf	(_dec1+1)^(0+128),w
  1616  06F1  1283               	bcf	3,5	;RP0=0, select bank0
  1617  06F2  1303               	bcf	3,6	;RP1=0, select bank0
  1618  06F3  00A2               	movwf	?_sprintf+2
  1619  06F4  1683               	bsf	3,5	;RP0=1, select bank1
  1620  06F5  1303               	bcf	3,6	;RP1=0, select bank1
  1621  06F6  0828               	movf	_dec1^(0+128),w
  1622  06F7  1283               	bcf	3,5	;RP0=0, select bank0
  1623  06F8  1303               	bcf	3,6	;RP1=0, select bank0
  1624  06F9  00A1               	movwf	?_sprintf+1
  1625  06FA  30B1               	movlw	(low (_decpot1| 0))& (0+255)
  1626  06FB  120A  118A  201D  120A  118A  	fcall	_sprintf
  1627  0700                     l2699:	
  1628                           
  1629                           ;main.c: 123:         LCDcursorSet(2,0);
  1630  0700  01F3               	clrf	LCDcursorSet@column
  1631  0701  3002               	movlw	2
  1632  0702  160A  118A  277F  120A  118A  	fcall	_LCDcursorSet
  1633  0707                     l2701:	
  1634                           
  1635                           ;main.c: 124:         LCDisplay(potStr1);
  1636  0707  30AA               	movlw	(low (_potStr1| 0))& (0+255)
  1637  0708  00F3               	movwf	LCDisplay@val
  1638  0709  3000               	movlw	0
  1639  070A  00F4               	movwf	LCDisplay@val+1
  1640  070B  120A  158A  206C  120A  118A  	fcall	_LCDisplay
  1641  0710                     l2703:	
  1642                           
  1643                           ;main.c: 125:         LCDisplay(".");
  1644  0710  301E               	movlw	(low ((STR_9-__stringbase)| (0+32768)))& (0+255)
  1645  0711  00F3               	movwf	LCDisplay@val
  1646  0712  3080               	movlw	128
  1647  0713  00F4               	movwf	LCDisplay@val+1
  1648  0714  120A  158A  206C  120A  118A  	fcall	_LCDisplay
  1649  0719                     l2705:	
  1650                           
  1651                           ;main.c: 126:         if (dec1<10){
  1652  0719  1683               	bsf	3,5	;RP0=1, select bank1
  1653  071A  1303               	bcf	3,6	;RP1=0, select bank1
  1654  071B  0829               	movf	(_dec1+1)^(0+128),w
  1655  071C  3A80               	xorlw	128
  1656  071D  00FF               	movwf	btemp+1
  1657  071E  3080               	movlw	128
  1658  071F  027F               	subwf	btemp+1,w
  1659  0720  1D03               	skipz
  1660  0721  2F24               	goto	u3595
  1661  0722  300A               	movlw	10
  1662  0723  0228               	subwf	_dec1^(0+128),w
  1663  0724                     u3595:	
  1664  0724  1803               	skipnc
  1665  0725  2F27               	goto	u3591
  1666  0726  2F28               	goto	u3590
  1667  0727                     u3591:	
  1668  0727  2F3B               	goto	l2709
  1669  0728                     u3590:	
  1670  0728                     l2707:	
  1671                           
  1672                           ;main.c: 127:             LCDisplay("0");
  1673  0728  3020               	movlw	(low ((STR_10-__stringbase)| (0+32768)))& (0+255)
  1674  0729  00F3               	movwf	LCDisplay@val
  1675  072A  3080               	movlw	128
  1676  072B  00F4               	movwf	LCDisplay@val+1
  1677  072C  120A  158A  206C  120A  118A  	fcall	_LCDisplay
  1678                           
  1679                           ;main.c: 128:             LCDisplay(decpot1);
  1680  0731  30B1               	movlw	(low (_decpot1| 0))& (0+255)
  1681  0732  00F3               	movwf	LCDisplay@val
  1682  0733  3000               	movlw	0
  1683  0734  00F4               	movwf	LCDisplay@val+1
  1684  0735  120A  158A  206C  120A  118A  	fcall	_LCDisplay
  1685                           
  1686                           ;main.c: 129:         }else{
  1687  073A  2F44               	goto	l73
  1688  073B                     l2709:	
  1689                           
  1690                           ;main.c: 130:             LCDisplay(decpot1);
  1691  073B  30B1               	movlw	(low (_decpot1| 0))& (0+255)
  1692  073C  00F3               	movwf	LCDisplay@val
  1693  073D  3000               	movlw	0
  1694  073E  00F4               	movwf	LCDisplay@val+1
  1695  073F  120A  158A  206C  120A  118A  	fcall	_LCDisplay
  1696  0744                     l73:	
  1697                           ;main.c: 131:         }
  1698                           
  1699                           
  1700                           ;main.c: 132:         LCDisplay("V");
  1701  0744  3022               	movlw	(low ((STR_11-__stringbase)| (0+32768)))& (0+255)
  1702  0745  00F3               	movwf	LCDisplay@val
  1703  0746  3080               	movlw	128
  1704  0747  00F4               	movwf	LCDisplay@val+1
  1705  0748  120A  158A  206C  120A  118A  	fcall	_LCDisplay
  1706  074D                     l2711:	
  1707                           
  1708                           ;main.c: 134:         LCDcursorSet(2,7);
  1709  074D  3007               	movlw	7
  1710  074E  1283               	bcf	3,5	;RP0=0, select bank0
  1711  074F  1303               	bcf	3,6	;RP1=0, select bank0
  1712  0750  00E4               	movwf	??_main
  1713  0751  0864               	movf	??_main,w
  1714  0752  00F3               	movwf	LCDcursorSet@column
  1715  0753  3002               	movlw	2
  1716  0754  160A  118A  277F  120A  118A  	fcall	_LCDcursorSet
  1717  0759                     l2713:	
  1718                           
  1719                           ;main.c: 135:         if (cont <= 9){
  1720  0759  300A               	movlw	10
  1721  075A  1283               	bcf	3,5	;RP0=0, select bank0
  1722  075B  1303               	bcf	3,6	;RP1=0, select bank0
  1723  075C  026D               	subwf	_cont,w
  1724  075D  1803               	skipnc
  1725  075E  2F60               	goto	u3601
  1726  075F  2F61               	goto	u3600
  1727  0760                     u3601:	
  1728  0760  2F74               	goto	l2717
  1729  0761                     u3600:	
  1730  0761                     l2715:	
  1731                           
  1732                           ;main.c: 136:             LCDisplay("0");
  1733  0761  3020               	movlw	(low ((STR_10-__stringbase)| (0+32768)))& (0+255)
  1734  0762  00F3               	movwf	LCDisplay@val
  1735  0763  3080               	movlw	128
  1736  0764  00F4               	movwf	LCDisplay@val+1
  1737  0765  120A  158A  206C  120A  118A  	fcall	_LCDisplay
  1738                           
  1739                           ;main.c: 137:             LCDisplay(contStr);
  1740  076A  306E               	movlw	(low (_contStr| 0))& (0+255)
  1741  076B  00F3               	movwf	LCDisplay@val
  1742  076C  3000               	movlw	0
  1743  076D  00F4               	movwf	LCDisplay@val+1
  1744  076E  120A  158A  206C  120A  118A  	fcall	_LCDisplay
  1745                           
  1746                           ;main.c: 138:         }else{
  1747  0773  2F7D               	goto	l2719
  1748  0774                     l2717:	
  1749                           
  1750                           ;main.c: 139:             LCDisplay(contStr);
  1751  0774  306E               	movlw	(low (_contStr| 0))& (0+255)
  1752  0775  00F3               	movwf	LCDisplay@val
  1753  0776  3000               	movlw	0
  1754  0777  00F4               	movwf	LCDisplay@val+1
  1755  0778  120A  158A  206C  120A  118A  	fcall	_LCDisplay
  1756  077D                     l2719:	
  1757                           
  1758                           ;main.c: 143:         LCDcursorSet(2,11);
  1759  077D  300B               	movlw	11
  1760  077E  1283               	bcf	3,5	;RP0=0, select bank0
  1761  077F  1303               	bcf	3,6	;RP1=0, select bank0
  1762  0780  00E4               	movwf	??_main
  1763  0781  0864               	movf	??_main,w
  1764  0782  00F3               	movwf	LCDcursorSet@column
  1765  0783  3002               	movlw	2
  1766  0784  160A  118A  277F  120A  118A  	fcall	_LCDcursorSet
  1767  0789                     l2721:	
  1768                           
  1769                           ;main.c: 144:         if(min < 10){
  1770  0789  300A               	movlw	10
  1771  078A  1283               	bcf	3,5	;RP0=0, select bank0
  1772  078B  1303               	bcf	3,6	;RP1=0, select bank0
  1773  078C  026A               	subwf	_min,w
  1774  078D  1803               	skipnc
  1775  078E  2F90               	goto	u3611
  1776  078F  2F91               	goto	u3610
  1777  0790                     u3611:	
  1778  0790  2FA4               	goto	l2725
  1779  0791                     u3610:	
  1780  0791                     l2723:	
  1781                           
  1782                           ;main.c: 145:             LCDisplay("0");
  1783  0791  3020               	movlw	(low ((STR_10-__stringbase)| (0+32768)))& (0+255)
  1784  0792  00F3               	movwf	LCDisplay@val
  1785  0793  3080               	movlw	128
  1786  0794  00F4               	movwf	LCDisplay@val+1
  1787  0795  120A  158A  206C  120A  118A  	fcall	_LCDisplay
  1788                           
  1789                           ;main.c: 146:             LCDisplay(min1);
  1790  079A  30AD               	movlw	(low (_min1| 0))& (0+255)
  1791  079B  00F3               	movwf	LCDisplay@val
  1792  079C  3000               	movlw	0
  1793  079D  00F4               	movwf	LCDisplay@val+1
  1794  079E  120A  158A  206C  120A  118A  	fcall	_LCDisplay
  1795                           
  1796                           ;main.c: 147:         }else{
  1797  07A3  2FAD               	goto	l2727
  1798  07A4                     l2725:	
  1799                           
  1800                           ;main.c: 148:             LCDisplay(min1);
  1801  07A4  30AD               	movlw	(low (_min1| 0))& (0+255)
  1802  07A5  00F3               	movwf	LCDisplay@val
  1803  07A6  3000               	movlw	0
  1804  07A7  00F4               	movwf	LCDisplay@val+1
  1805  07A8  120A  158A  206C  120A  118A  	fcall	_LCDisplay
  1806  07AD                     l2727:	
  1807                           
  1808                           ;main.c: 150:         LCDcursorSet(2,13);
  1809  07AD  300D               	movlw	13
  1810  07AE  1283               	bcf	3,5	;RP0=0, select bank0
  1811  07AF  1303               	bcf	3,6	;RP1=0, select bank0
  1812  07B0  00E4               	movwf	??_main
  1813  07B1  0864               	movf	??_main,w
  1814  07B2  00F3               	movwf	LCDcursorSet@column
  1815  07B3  3002               	movlw	2
  1816  07B4  160A  118A  277F  120A  118A  	fcall	_LCDcursorSet
  1817  07B9                     l2729:	
  1818                           
  1819                           ;main.c: 151:         LCDisplay(":");
  1820  07B9  3019               	movlw	(low (((STR_1+2)-__stringbase)| (0+32768)))& (0+255)
  1821  07BA  00F3               	movwf	LCDisplay@val
  1822  07BB  3080               	movlw	128
  1823  07BC  00F4               	movwf	LCDisplay@val+1
  1824  07BD  120A  158A  206C  120A  118A  	fcall	_LCDisplay
  1825  07C2                     l2731:	
  1826                           
  1827                           ;main.c: 152:         if(sec < 10){
  1828  07C2  300A               	movlw	10
  1829  07C3  1283               	bcf	3,5	;RP0=0, select bank0
  1830  07C4  1303               	bcf	3,6	;RP1=0, select bank0
  1831  07C5  026B               	subwf	_sec,w
  1832  07C6  1803               	skipnc
  1833  07C7  2FC9               	goto	u3621
  1834  07C8  2FCA               	goto	u3620
  1835  07C9                     u3621:	
  1836  07C9  2FDD               	goto	l2735
  1837  07CA                     u3620:	
  1838  07CA                     l2733:	
  1839                           
  1840                           ;main.c: 153:             LCDisplay("0");
  1841  07CA  3020               	movlw	(low ((STR_10-__stringbase)| (0+32768)))& (0+255)
  1842  07CB  00F3               	movwf	LCDisplay@val
  1843  07CC  3080               	movlw	128
  1844  07CD  00F4               	movwf	LCDisplay@val+1
  1845  07CE  120A  158A  206C  120A  118A  	fcall	_LCDisplay
  1846                           
  1847                           ;main.c: 154:             LCDisplay(sec1);
  1848  07D3  30AF               	movlw	(low (_sec1| 0))& (0+255)
  1849  07D4  00F3               	movwf	LCDisplay@val
  1850  07D5  3000               	movlw	0
  1851  07D6  00F4               	movwf	LCDisplay@val+1
  1852  07D7  120A  158A  206C  120A  118A  	fcall	_LCDisplay
  1853                           
  1854                           ;main.c: 155:         }else{
  1855  07DC  2CB5               	goto	l2629
  1856  07DD                     l2735:	
  1857                           
  1858                           ;main.c: 156:             LCDisplay(sec1);
  1859  07DD  30AF               	movlw	(low (_sec1| 0))& (0+255)
  1860  07DE  00F3               	movwf	LCDisplay@val
  1861  07DF  3000               	movlw	0
  1862  07E0  00F4               	movwf	LCDisplay@val+1
  1863  07E1  120A  158A  206C  120A  118A  	fcall	_LCDisplay
  1864  07E6  2CB5               	goto	l2629
  1865  07E7  120A  118A  2800   	ljmp	start
  1866  07EA                     __end_of_main:	
  1867                           
  1868                           	psect	text1
  1869  001D                     __ptext1:	
  1870 ;; *************** function _sprintf *****************
  1871 ;; Defined at:
  1872 ;;		line 505 in file "C:\Program Files (x86)\Microchip\xc8\v2.10\pic\sources\c90\common\doprnt.c"
  1873 ;; Parameters:    Size  Location     Type
  1874 ;;  sp              1    wreg     PTR unsigned char 
  1875 ;;		 -> decpot1(2), potStr1(3), contStr(1), min1(2), 
  1876 ;;		 -> sec1(2), 
  1877 ;;  f               1    0[BANK0 ] PTR const unsigned char 
  1878 ;;		 -> STR_8(3), STR_7(3), STR_6(3), STR_5(3), 
  1879 ;;		 -> STR_4(3), 
  1880 ;; Auto vars:     Size  Location     Type
  1881 ;;  sp              1   11[BANK0 ] PTR unsigned char 
  1882 ;;		 -> decpot1(2), potStr1(3), contStr(1), min1(2), 
  1883 ;;		 -> sec1(2), 
  1884 ;;  tmpval          4    0        struct .
  1885 ;;  val             2    9[BANK0 ] unsigned int 
  1886 ;;  cp              2    0        PTR const unsigned char 
  1887 ;;  len             2    0        unsigned int 
  1888 ;;  c               1   12[BANK0 ] unsigned char 
  1889 ;;  prec            1    8[BANK0 ] char 
  1890 ;;  flag            1    7[BANK0 ] unsigned char 
  1891 ;;  ap              1    6[BANK0 ] PTR void [1]
  1892 ;;		 -> ?_sprintf(2), 
  1893 ;; Return value:  Size  Location     Type
  1894 ;;                  2    0[BANK0 ] int 
  1895 ;; Registers used:
  1896 ;;		wreg, fsr0l, fsr0h, status,2, status,0, btemp+1, pclath, cstack
  1897 ;; Tracked objects:
  1898 ;;		On entry : 0/0
  1899 ;;		On exit  : 0/0
  1900 ;;		Unchanged: 0/0
  1901 ;; Data sizes:     COMMON   BANK0   BANK1   BANK3   BANK2
  1902 ;;      Params:         0       3       0       0       0
  1903 ;;      Locals:         0       7       0       0       0
  1904 ;;      Temps:          0       3       0       0       0
  1905 ;;      Totals:         0      13       0       0       0
  1906 ;;Total ram usage:       13 bytes
  1907 ;; Hardware stack levels used:    1
  1908 ;; Hardware stack levels required when called:    1
  1909 ;; This function calls:
  1910 ;;		___lwdiv
  1911 ;;		___lwmod
  1912 ;; This function is called by:
  1913 ;;		_main
  1914 ;; This function uses a non-reentrant model
  1915 ;;
  1916                           
  1917                           
  1918                           ;psect for function _sprintf
  1919  001D                     _sprintf:	
  1920                           
  1921                           ;incstack = 0
  1922                           ; Regs used in _sprintf: [wreg-fsr0h+status,2+status,0+btemp+1+pclath+cstack]
  1923                           ;sprintf@sp stored from wreg
  1924  001D  1283               	bcf	3,5	;RP0=0, select bank0
  1925  001E  1303               	bcf	3,6	;RP1=0, select bank0
  1926  001F  00AB               	movwf	sprintf@sp
  1927  0020                     l2185:	
  1928                           
  1929                           ;C:\Program Files (x86)\Microchip\xc8\v2.10\pic\sources\c90\common\doprnt.c: 505: sprint
      +                          f(char * sp, const char * f, ...);C:\Program Files (x86)\Microchip\xc8\v2.10\pic\sources
      +                          \c90\common\doprnt.c: 506: {;C:\Program Files (x86)\Microchip\xc8\v2.10\pic\sources\c90\
      +                          common\doprnt.c: 507:  va_list ap;;C:\Program Files (x86)\Microchip\xc8\v2.10\pic\source
      +                          s\c90\common\doprnt.c: 512:  char c;;C:\Program Files (x86)\Microchip\xc8\v2.10\pic\sour
      +                          ces\c90\common\doprnt.c: 521:  signed char prec;;C:\Program Files (x86)\Microchip\xc8\v2
      +                          .10\pic\sources\c90\common\doprnt.c: 525:  unsigned char flag;
  1930  0020  3021               	movlw	(low ((?_sprintf| 0+1)))& (0+255)
  1931  0021  00A3               	movwf	??_sprintf
  1932  0022  0823               	movf	??_sprintf,w
  1933  0023  00A6               	movwf	sprintf@ap
  1934                           
  1935                           ;C:\Program Files (x86)\Microchip\xc8\v2.10\pic\sources\c90\common\doprnt.c: 553:  while
      +                          ((c = *f++)) {
  1936  0024  28EE               	goto	l2237
  1937  0025                     l2187:	
  1938                           
  1939                           ;C:\Program Files (x86)\Microchip\xc8\v2.10\pic\sources\c90\common\doprnt.c: 555:   if(c
      +                           != '%')
  1940  0025  3025               	movlw	37
  1941  0026  062C               	xorwf	sprintf@c,w
  1942  0027  1903               	btfsc	3,2
  1943  0028  282A               	goto	u2621
  1944  0029  282B               	goto	u2620
  1945  002A                     u2621:	
  1946  002A  2837               	goto	l2193
  1947  002B                     u2620:	
  1948  002B                     l2189:	
  1949                           
  1950                           ;C:\Program Files (x86)\Microchip\xc8\v2.10\pic\sources\c90\common\doprnt.c: 557:   {;C:
      +                          \Program Files (x86)\Microchip\xc8\v2.10\pic\sources\c90\common\doprnt.c: 558:    ((*sp+
      +                          + = (c)));
  1951  002B  082C               	movf	sprintf@c,w
  1952  002C  00A3               	movwf	??_sprintf
  1953  002D  082B               	movf	sprintf@sp,w
  1954  002E  0084               	movwf	4
  1955  002F  0823               	movf	??_sprintf,w
  1956  0030  1383               	bcf	3,7	;select IRP bank0
  1957  0031  0080               	movwf	0
  1958  0032                     l2191:	
  1959  0032  3001               	movlw	1
  1960  0033  00A3               	movwf	??_sprintf
  1961  0034  0823               	movf	??_sprintf,w
  1962  0035  07AB               	addwf	sprintf@sp,f
  1963                           
  1964                           ;C:\Program Files (x86)\Microchip\xc8\v2.10\pic\sources\c90\common\doprnt.c: 559:    con
      +                          tinue;
  1965  0036  28EE               	goto	l2237
  1966  0037                     l2193:	
  1967                           
  1968                           ;C:\Program Files (x86)\Microchip\xc8\v2.10\pic\sources\c90\common\doprnt.c: 565:   flag
      +                           = 0;
  1969  0037  01A7               	clrf	sprintf@flag
  1970  0038                     l2197:	
  1971                           ;C:\Program Files (x86)\Microchip\xc8\v2.10\pic\sources\c90\common\doprnt.c: 661:   swit
      +                          ch(c = *f++) {
  1972                           
  1973  0038  3001               	movlw	1
  1974  0039  07A0               	addwf	sprintf@f,f
  1975  003A  30FF               	movlw	-1
  1976  003B  0720               	addwf	sprintf@f,w
  1977  003C  0084               	movwf	4
  1978  003D  120A  158A  200A  120A  118A  	fcall	stringdir
  1979  0042  00AC               	movwf	sprintf@c
  1980  0043  00A3               	movwf	??_sprintf
  1981  0044  01A4               	clrf	??_sprintf+1
  1982                           
  1983                           ; Switch on 2 bytes has been partitioned into a top level switch of size 1, and 1 sub-sw
      +                          itches
  1984                           ; Switch size 1, requested type "simple"
  1985                           ; Number of cases is 1, Range of values is 0 to 0
  1986                           ; switch strategies available:
  1987                           ; Name         Instructions Cycles
  1988                           ; simple_byte            4     3 (average)
  1989                           ; direct_byte           11     8 (fixed)
  1990                           ; jumptable            260     6 (fixed)
  1991                           ;	Chosen strategy is simple_byte
  1992  0045  0824               	movf	??_sprintf+1,w
  1993  0046  3A00               	xorlw	0	; case 0
  1994  0047  1903               	skipnz
  1995  0048  284A               	goto	l2761
  1996  0049  28EE               	goto	l2237
  1997  004A                     l2761:	
  1998                           
  1999                           ; Switch size 1, requested type "simple"
  2000                           ; Number of cases is 3, Range of values is 0 to 105
  2001                           ; switch strategies available:
  2002                           ; Name         Instructions Cycles
  2003                           ; simple_byte           10     6 (average)
  2004                           ; jumptable            260     6 (fixed)
  2005                           ;	Chosen strategy is simple_byte
  2006  004A  0823               	movf	??_sprintf,w
  2007  004B  3A00               	xorlw	0	; case 0
  2008  004C  1903               	skipnz
  2009  004D  2900               	goto	l2239
  2010  004E  3A64               	xorlw	100	; case 100
  2011  004F  1903               	skipnz
  2012  0050  2855               	goto	l2199
  2013  0051  3A0D               	xorlw	13	; case 105
  2014  0052  1903               	skipnz
  2015  0053  2855               	goto	l2199
  2016  0054  28EE               	goto	l2237
  2017  0055                     l2199:	
  2018                           
  2019                           ;C:\Program Files (x86)\Microchip\xc8\v2.10\pic\sources\c90\common\doprnt.c: 1279:   {;C
      +                          :\Program Files (x86)\Microchip\xc8\v2.10\pic\sources\c90\common\doprnt.c: 1285:     val
      +                           = (unsigned int)(*(int *)__va_arg((*(int **)ap), (int)0));
  2020  0055  0826               	movf	sprintf@ap,w
  2021  0056  0084               	movwf	4
  2022  0057  1383               	bcf	3,7	;select IRP bank0
  2023  0058  0800               	movf	0,w
  2024  0059  00A9               	movwf	sprintf@val
  2025  005A  0A84               	incf	4,f
  2026  005B  0800               	movf	0,w
  2027  005C  00AA               	movwf	sprintf@val+1
  2028  005D                     l2201:	
  2029  005D  3002               	movlw	2
  2030  005E  00A3               	movwf	??_sprintf
  2031  005F  0823               	movf	??_sprintf,w
  2032  0060  07A6               	addwf	sprintf@ap,f
  2033  0061                     l2203:	
  2034                           
  2035                           ;C:\Program Files (x86)\Microchip\xc8\v2.10\pic\sources\c90\common\doprnt.c: 1287:    if
      +                          ((int)val < 0) {
  2036  0061  1FAA               	btfss	sprintf@val+1,7
  2037  0062  2864               	goto	u2631
  2038  0063  2865               	goto	u2630
  2039  0064                     u2631:	
  2040  0064  286E               	goto	l2209
  2041  0065                     u2630:	
  2042  0065                     l2205:	
  2043                           
  2044                           ;C:\Program Files (x86)\Microchip\xc8\v2.10\pic\sources\c90\common\doprnt.c: 1288:     f
      +                          lag |= 0x03;
  2045  0065  3003               	movlw	3
  2046  0066  00A3               	movwf	??_sprintf
  2047  0067  0823               	movf	??_sprintf,w
  2048  0068  04A7               	iorwf	sprintf@flag,f
  2049  0069                     l2207:	
  2050                           
  2051                           ;C:\Program Files (x86)\Microchip\xc8\v2.10\pic\sources\c90\common\doprnt.c: 1289:     v
      +                          al = -val;
  2052  0069  09A9               	comf	sprintf@val,f
  2053  006A  09AA               	comf	sprintf@val+1,f
  2054  006B  0AA9               	incf	sprintf@val,f
  2055  006C  1903               	skipnz
  2056  006D  0AAA               	incf	sprintf@val+1,f
  2057  006E                     l2209:	
  2058                           
  2059                           ;C:\Program Files (x86)\Microchip\xc8\v2.10\pic\sources\c90\common\doprnt.c: 1292:   };C
      +                          :\Program Files (x86)\Microchip\xc8\v2.10\pic\sources\c90\common\doprnt.c: 1331:    for(
      +                          c = 1 ; c != sizeof dpowers/sizeof dpowers[0] ; c++)
  2060  006E  01AC               	clrf	sprintf@c
  2061  006F  0AAC               	incf	sprintf@c,f
  2062  0070                     l2215:	
  2063                           
  2064                           ;C:\Program Files (x86)\Microchip\xc8\v2.10\pic\sources\c90\common\doprnt.c: 1332:     i
      +                          f(val < dpowers[c])
  2065  0070  082C               	movf	sprintf@c,w
  2066  0071  00A3               	movwf	??_sprintf
  2067  0072  0723               	addwf	??_sprintf,w
  2068  0073  3E01               	addlw	low ((_dpowers-__stringbase)| (0+32768))
  2069  0074  0084               	movwf	4
  2070  0075  120A  158A  200A  120A  118A  	fcall	stringdir
  2071  007A  00A4               	movwf	??_sprintf+1
  2072  007B  120A  158A  200A  120A  118A  	fcall	stringdir
  2073  0080  00A5               	movwf	??_sprintf+2
  2074  0081  0825               	movf	??_sprintf+2,w
  2075  0082  022A               	subwf	sprintf@val+1,w
  2076  0083  1D03               	skipz
  2077  0084  2887               	goto	u2645
  2078  0085  0824               	movf	??_sprintf+1,w
  2079  0086  0229               	subwf	sprintf@val,w
  2080  0087                     u2645:	
  2081  0087  1803               	skipnc
  2082  0088  288A               	goto	u2641
  2083  0089  288B               	goto	u2640
  2084  008A                     u2641:	
  2085  008A  288C               	goto	l2219
  2086  008B                     u2640:	
  2087  008B  2896               	goto	l2221
  2088  008C                     l2219:	
  2089  008C  3001               	movlw	1
  2090  008D  00A3               	movwf	??_sprintf
  2091  008E  0823               	movf	??_sprintf,w
  2092  008F  07AC               	addwf	sprintf@c,f
  2093  0090  3005               	movlw	5
  2094  0091  062C               	xorwf	sprintf@c,w
  2095  0092  1D03               	btfss	3,2
  2096  0093  2895               	goto	u2651
  2097  0094  2896               	goto	u2650
  2098  0095                     u2651:	
  2099  0095  2870               	goto	l2215
  2100  0096                     u2650:	
  2101  0096                     l2221:	
  2102                           
  2103                           ;C:\Program Files (x86)\Microchip\xc8\v2.10\pic\sources\c90\common\doprnt.c: 1448:   {;C
      +                          :\Program Files (x86)\Microchip\xc8\v2.10\pic\sources\c90\common\doprnt.c: 1464:    if(f
      +                          lag & 0x03)
  2104  0096  0827               	movf	sprintf@flag,w
  2105  0097  3903               	andlw	3
  2106  0098  1903               	btfsc	3,2
  2107  0099  289B               	goto	u2661
  2108  009A  289C               	goto	u2660
  2109  009B                     u2661:	
  2110  009B  28A7               	goto	l2227
  2111  009C                     u2660:	
  2112  009C                     l2223:	
  2113                           
  2114                           ;C:\Program Files (x86)\Microchip\xc8\v2.10\pic\sources\c90\common\doprnt.c: 1465:     (
      +                          (*sp++ = ('-')));
  2115  009C  302D               	movlw	45
  2116  009D  00A3               	movwf	??_sprintf
  2117  009E  082B               	movf	sprintf@sp,w
  2118  009F  0084               	movwf	4
  2119  00A0  0823               	movf	??_sprintf,w
  2120  00A1  1383               	bcf	3,7	;select IRP bank0
  2121  00A2  0080               	movwf	0
  2122  00A3                     l2225:	
  2123  00A3  3001               	movlw	1
  2124  00A4  00A3               	movwf	??_sprintf
  2125  00A5  0823               	movf	??_sprintf,w
  2126  00A6  07AB               	addwf	sprintf@sp,f
  2127  00A7                     l2227:	
  2128                           
  2129                           ;C:\Program Files (x86)\Microchip\xc8\v2.10\pic\sources\c90\common\doprnt.c: 1495:   };C
      +                          :\Program Files (x86)\Microchip\xc8\v2.10\pic\sources\c90\common\doprnt.c: 1498:   prec 
      +                          = c;
  2130  00A7  082C               	movf	sprintf@c,w
  2131  00A8  00A3               	movwf	??_sprintf
  2132  00A9  0823               	movf	??_sprintf,w
  2133  00AA  00A8               	movwf	sprintf@prec
  2134                           
  2135                           ;C:\Program Files (x86)\Microchip\xc8\v2.10\pic\sources\c90\common\doprnt.c: 1500:   whi
      +                          le(prec--) {
  2136  00AB  28E5               	goto	l2235
  2137  00AC                     l2229:	
  2138                           
  2139                           ;C:\Program Files (x86)\Microchip\xc8\v2.10\pic\sources\c90\common\doprnt.c: 1504:    {;
      +                          C:\Program Files (x86)\Microchip\xc8\v2.10\pic\sources\c90\common\doprnt.c: 1515:     c 
      +                          = (val / dpowers[(unsigned char)prec]) % 10 + '0';
  2140  00AC  300A               	movlw	10
  2141  00AD  00F8               	movwf	___lwmod@divisor
  2142  00AE  3000               	movlw	0
  2143  00AF  00F9               	movwf	___lwmod@divisor+1
  2144  00B0  0828               	movf	sprintf@prec,w
  2145  00B1  00A3               	movwf	??_sprintf
  2146  00B2  0723               	addwf	??_sprintf,w
  2147  00B3  3E01               	addlw	low ((_dpowers-__stringbase)| (0+32768))
  2148  00B4  0084               	movwf	4
  2149  00B5  120A  158A  200A  120A  118A  	fcall	stringdir
  2150  00BA  00F0               	movwf	___lwdiv@divisor
  2151  00BB  120A  158A  200A  120A  118A  	fcall	stringdir
  2152  00C0  00F1               	movwf	___lwdiv@divisor+1
  2153  00C1  082A               	movf	sprintf@val+1,w
  2154  00C2  00F3               	movwf	___lwdiv@dividend+1
  2155  00C3  0829               	movf	sprintf@val,w
  2156  00C4  00F2               	movwf	___lwdiv@dividend
  2157  00C5  120A  158A  2159  120A  118A  	fcall	___lwdiv
  2158  00CA  0871               	movf	?___lwdiv+1,w
  2159  00CB  00FB               	movwf	___lwmod@dividend+1
  2160  00CC  0870               	movf	?___lwdiv,w
  2161  00CD  00FA               	movwf	___lwmod@dividend
  2162  00CE  120A  158A  211F  120A  118A  	fcall	___lwmod
  2163  00D3  0878               	movf	?___lwmod,w
  2164  00D4  3E30               	addlw	48
  2165  00D5  1283               	bcf	3,5	;RP0=0, select bank0
  2166  00D6  1303               	bcf	3,6	;RP1=0, select bank0
  2167  00D7  00A4               	movwf	??_sprintf+1
  2168  00D8  0824               	movf	??_sprintf+1,w
  2169  00D9  00AC               	movwf	sprintf@c
  2170  00DA                     l2231:	
  2171                           
  2172                           ;C:\Program Files (x86)\Microchip\xc8\v2.10\pic\sources\c90\common\doprnt.c: 1549:    };
      +                          C:\Program Files (x86)\Microchip\xc8\v2.10\pic\sources\c90\common\doprnt.c: 1550:    ((*
      +                          sp++ = (c)));
  2173  00DA  082C               	movf	sprintf@c,w
  2174  00DB  00A3               	movwf	??_sprintf
  2175  00DC  082B               	movf	sprintf@sp,w
  2176  00DD  0084               	movwf	4
  2177  00DE  0823               	movf	??_sprintf,w
  2178  00DF  1383               	bcf	3,7	;select IRP bank0
  2179  00E0  0080               	movwf	0
  2180  00E1                     l2233:	
  2181  00E1  3001               	movlw	1
  2182  00E2  00A3               	movwf	??_sprintf
  2183  00E3  0823               	movf	??_sprintf,w
  2184  00E4  07AB               	addwf	sprintf@sp,f
  2185  00E5                     l2235:	
  2186                           
  2187                           ;C:\Program Files (x86)\Microchip\xc8\v2.10\pic\sources\c90\common\doprnt.c: 1500:   whi
      +                          le(prec--) {
  2188  00E5  30FF               	movlw	255
  2189  00E6  00A3               	movwf	??_sprintf
  2190  00E7  0823               	movf	??_sprintf,w
  2191  00E8  07A8               	addwf	sprintf@prec,f
  2192  00E9  0A28               	incf	sprintf@prec,w
  2193  00EA  1D03               	btfss	3,2
  2194  00EB  28ED               	goto	u2671
  2195  00EC  28EE               	goto	u2670
  2196  00ED                     u2671:	
  2197  00ED  28AC               	goto	l2229
  2198  00EE                     u2670:	
  2199  00EE                     l2237:	
  2200                           
  2201                           ;C:\Program Files (x86)\Microchip\xc8\v2.10\pic\sources\c90\common\doprnt.c: 553:  while
      +                          ((c = *f++)) {
  2202  00EE  3001               	movlw	1
  2203  00EF  07A0               	addwf	sprintf@f,f
  2204  00F0  30FF               	movlw	-1
  2205  00F1  0720               	addwf	sprintf@f,w
  2206  00F2  0084               	movwf	4
  2207  00F3  120A  158A  200A  120A  118A  	fcall	stringdir
  2208  00F8  00A3               	movwf	??_sprintf
  2209  00F9  0823               	movf	??_sprintf,w
  2210  00FA  00AC               	movwf	sprintf@c
  2211  00FB  082C               	movf	sprintf@c,w
  2212  00FC  1D03               	btfss	3,2
  2213  00FD  28FF               	goto	u2681
  2214  00FE  2900               	goto	u2680
  2215  00FF                     u2681:	
  2216  00FF  2825               	goto	l2187
  2217  0100                     u2680:	
  2218  0100                     l2239:	
  2219                           
  2220                           ;C:\Program Files (x86)\Microchip\xc8\v2.10\pic\sources\c90\common\doprnt.c: 1564:  *sp 
      +                          = 0;
  2221  0100  082B               	movf	sprintf@sp,w
  2222  0101  0084               	movwf	4
  2223  0102  1383               	bcf	3,7	;select IRP bank0
  2224  0103  0180               	clrf	0
  2225  0104                     l285:	
  2226  0104  0008               	return
  2227  0105                     __end_of_sprintf:	
  2228                           
  2229                           	psect	text2
  2230  091F                     __ptext2:	
  2231 ;; *************** function ___lwmod *****************
  2232 ;; Defined at:
  2233 ;;		line 5 in file "C:\Program Files (x86)\Microchip\xc8\v2.10\pic\sources\c90\common\lwmod.c"
  2234 ;; Parameters:    Size  Location     Type
  2235 ;;  divisor         2    8[COMMON] unsigned int 
  2236 ;;  dividend        2   10[COMMON] unsigned int 
  2237 ;; Auto vars:     Size  Location     Type
  2238 ;;  counter         1   13[COMMON] unsigned char 
  2239 ;; Return value:  Size  Location     Type
  2240 ;;                  2    8[COMMON] unsigned int 
  2241 ;; Registers used:
  2242 ;;		wreg, status,2, status,0
  2243 ;; Tracked objects:
  2244 ;;		On entry : 0/0
  2245 ;;		On exit  : 0/0
  2246 ;;		Unchanged: 0/0
  2247 ;; Data sizes:     COMMON   BANK0   BANK1   BANK3   BANK2
  2248 ;;      Params:         4       0       0       0       0
  2249 ;;      Locals:         1       0       0       0       0
  2250 ;;      Temps:          1       0       0       0       0
  2251 ;;      Totals:         6       0       0       0       0
  2252 ;;Total ram usage:        6 bytes
  2253 ;; Hardware stack levels used:    1
  2254 ;; This function calls:
  2255 ;;		Nothing
  2256 ;; This function is called by:
  2257 ;;		_sprintf
  2258 ;; This function uses a non-reentrant model
  2259 ;;
  2260                           
  2261                           
  2262                           ;psect for function ___lwmod
  2263  091F                     ___lwmod:	
  2264  091F                     l1883:	
  2265                           ;incstack = 0
  2266                           ; Regs used in ___lwmod: [wreg+status,2+status,0]
  2267                           
  2268  091F  0878               	movf	___lwmod@divisor,w
  2269  0920  0479               	iorwf	___lwmod@divisor+1,w
  2270  0921  1903               	btfsc	3,2
  2271  0922  2924               	goto	u2031
  2272  0923  2925               	goto	u2030
  2273  0924                     u2031:	
  2274  0924  2954               	goto	l1901
  2275  0925                     u2030:	
  2276  0925                     l1885:	
  2277  0925  01FD               	clrf	___lwmod@counter
  2278  0926  0AFD               	incf	___lwmod@counter,f
  2279  0927  2933               	goto	l1891
  2280  0928                     l1887:	
  2281  0928  3001               	movlw	1
  2282  0929                     u2045:	
  2283  0929  1003               	clrc
  2284  092A  0DF8               	rlf	___lwmod@divisor,f
  2285  092B  0DF9               	rlf	___lwmod@divisor+1,f
  2286  092C  3EFF               	addlw	-1
  2287  092D  1D03               	skipz
  2288  092E  2929               	goto	u2045
  2289  092F                     l1889:	
  2290  092F  3001               	movlw	1
  2291  0930  00FC               	movwf	??___lwmod
  2292  0931  087C               	movf	??___lwmod,w
  2293  0932  07FD               	addwf	___lwmod@counter,f
  2294  0933                     l1891:	
  2295  0933  1FF9               	btfss	___lwmod@divisor+1,7
  2296  0934  2936               	goto	u2051
  2297  0935  2937               	goto	u2050
  2298  0936                     u2051:	
  2299  0936  2928               	goto	l1887
  2300  0937                     u2050:	
  2301  0937                     l1893:	
  2302  0937  0879               	movf	___lwmod@divisor+1,w
  2303  0938  027B               	subwf	___lwmod@dividend+1,w
  2304  0939  1D03               	skipz
  2305  093A  293D               	goto	u2065
  2306  093B  0878               	movf	___lwmod@divisor,w
  2307  093C  027A               	subwf	___lwmod@dividend,w
  2308  093D                     u2065:	
  2309  093D  1C03               	skipc
  2310  093E  2940               	goto	u2061
  2311  093F  2941               	goto	u2060
  2312  0940                     u2061:	
  2313  0940  2947               	goto	l1897
  2314  0941                     u2060:	
  2315  0941                     l1895:	
  2316  0941  0878               	movf	___lwmod@divisor,w
  2317  0942  02FA               	subwf	___lwmod@dividend,f
  2318  0943  0879               	movf	___lwmod@divisor+1,w
  2319  0944  1C03               	skipc
  2320  0945  03FB               	decf	___lwmod@dividend+1,f
  2321  0946  02FB               	subwf	___lwmod@dividend+1,f
  2322  0947                     l1897:	
  2323  0947  3001               	movlw	1
  2324  0948                     u2075:	
  2325  0948  1003               	clrc
  2326  0949  0CF9               	rrf	___lwmod@divisor+1,f
  2327  094A  0CF8               	rrf	___lwmod@divisor,f
  2328  094B  3EFF               	addlw	-1
  2329  094C  1D03               	skipz
  2330  094D  2948               	goto	u2075
  2331  094E                     l1899:	
  2332  094E  3001               	movlw	1
  2333  094F  02FD               	subwf	___lwmod@counter,f
  2334  0950  1D03               	btfss	3,2
  2335  0951  2953               	goto	u2081
  2336  0952  2954               	goto	u2080
  2337  0953                     u2081:	
  2338  0953  2937               	goto	l1893
  2339  0954                     u2080:	
  2340  0954                     l1901:	
  2341  0954  087B               	movf	___lwmod@dividend+1,w
  2342  0955  00F9               	movwf	?___lwmod+1
  2343  0956  087A               	movf	___lwmod@dividend,w
  2344  0957  00F8               	movwf	?___lwmod
  2345  0958                     l571:	
  2346  0958  0008               	return
  2347  0959                     __end_of___lwmod:	
  2348                           
  2349                           	psect	text3
  2350  0959                     __ptext3:	
  2351 ;; *************** function ___lwdiv *****************
  2352 ;; Defined at:
  2353 ;;		line 5 in file "C:\Program Files (x86)\Microchip\xc8\v2.10\pic\sources\c90\common\lwdiv.c"
  2354 ;; Parameters:    Size  Location     Type
  2355 ;;  divisor         2    0[COMMON] unsigned int 
  2356 ;;  dividend        2    2[COMMON] unsigned int 
  2357 ;; Auto vars:     Size  Location     Type
  2358 ;;  quotient        2    5[COMMON] unsigned int 
  2359 ;;  counter         1    7[COMMON] unsigned char 
  2360 ;; Return value:  Size  Location     Type
  2361 ;;                  2    0[COMMON] unsigned int 
  2362 ;; Registers used:
  2363 ;;		wreg, status,2, status,0
  2364 ;; Tracked objects:
  2365 ;;		On entry : 0/0
  2366 ;;		On exit  : 0/0
  2367 ;;		Unchanged: 0/0
  2368 ;; Data sizes:     COMMON   BANK0   BANK1   BANK3   BANK2
  2369 ;;      Params:         4       0       0       0       0
  2370 ;;      Locals:         3       0       0       0       0
  2371 ;;      Temps:          1       0       0       0       0
  2372 ;;      Totals:         8       0       0       0       0
  2373 ;;Total ram usage:        8 bytes
  2374 ;; Hardware stack levels used:    1
  2375 ;; This function calls:
  2376 ;;		Nothing
  2377 ;; This function is called by:
  2378 ;;		_sprintf
  2379 ;; This function uses a non-reentrant model
  2380 ;;
  2381                           
  2382                           
  2383                           ;psect for function ___lwdiv
  2384  0959                     ___lwdiv:	
  2385  0959                     l1857:	
  2386                           ;incstack = 0
  2387                           ; Regs used in ___lwdiv: [wreg+status,2+status,0]
  2388                           
  2389  0959  01F5               	clrf	___lwdiv@quotient
  2390  095A  01F6               	clrf	___lwdiv@quotient+1
  2391  095B                     l1859:	
  2392  095B  0870               	movf	___lwdiv@divisor,w
  2393  095C  0471               	iorwf	___lwdiv@divisor+1,w
  2394  095D  1903               	btfsc	3,2
  2395  095E  2960               	goto	u1961
  2396  095F  2961               	goto	u1960
  2397  0960                     u1961:	
  2398  0960  2998               	goto	l1879
  2399  0961                     u1960:	
  2400  0961                     l1861:	
  2401  0961  01F7               	clrf	___lwdiv@counter
  2402  0962  0AF7               	incf	___lwdiv@counter,f
  2403  0963  296F               	goto	l1867
  2404  0964                     l1863:	
  2405  0964  3001               	movlw	1
  2406  0965                     u1975:	
  2407  0965  1003               	clrc
  2408  0966  0DF0               	rlf	___lwdiv@divisor,f
  2409  0967  0DF1               	rlf	___lwdiv@divisor+1,f
  2410  0968  3EFF               	addlw	-1
  2411  0969  1D03               	skipz
  2412  096A  2965               	goto	u1975
  2413  096B                     l1865:	
  2414  096B  3001               	movlw	1
  2415  096C  00F4               	movwf	??___lwdiv
  2416  096D  0874               	movf	??___lwdiv,w
  2417  096E  07F7               	addwf	___lwdiv@counter,f
  2418  096F                     l1867:	
  2419  096F  1FF1               	btfss	___lwdiv@divisor+1,7
  2420  0970  2972               	goto	u1981
  2421  0971  2973               	goto	u1980
  2422  0972                     u1981:	
  2423  0972  2964               	goto	l1863
  2424  0973                     u1980:	
  2425  0973                     l1869:	
  2426  0973  3001               	movlw	1
  2427  0974                     u1995:	
  2428  0974  1003               	clrc
  2429  0975  0DF5               	rlf	___lwdiv@quotient,f
  2430  0976  0DF6               	rlf	___lwdiv@quotient+1,f
  2431  0977  3EFF               	addlw	-1
  2432  0978  1D03               	skipz
  2433  0979  2974               	goto	u1995
  2434  097A  0871               	movf	___lwdiv@divisor+1,w
  2435  097B  0273               	subwf	___lwdiv@dividend+1,w
  2436  097C  1D03               	skipz
  2437  097D  2980               	goto	u2005
  2438  097E  0870               	movf	___lwdiv@divisor,w
  2439  097F  0272               	subwf	___lwdiv@dividend,w
  2440  0980                     u2005:	
  2441  0980  1C03               	skipc
  2442  0981  2983               	goto	u2001
  2443  0982  2984               	goto	u2000
  2444  0983                     u2001:	
  2445  0983  298B               	goto	l1875
  2446  0984                     u2000:	
  2447  0984                     l1871:	
  2448  0984  0870               	movf	___lwdiv@divisor,w
  2449  0985  02F2               	subwf	___lwdiv@dividend,f
  2450  0986  0871               	movf	___lwdiv@divisor+1,w
  2451  0987  1C03               	skipc
  2452  0988  03F3               	decf	___lwdiv@dividend+1,f
  2453  0989  02F3               	subwf	___lwdiv@dividend+1,f
  2454  098A                     l1873:	
  2455  098A  1475               	bsf	___lwdiv@quotient,0
  2456  098B                     l1875:	
  2457  098B  3001               	movlw	1
  2458  098C                     u2015:	
  2459  098C  1003               	clrc
  2460  098D  0CF1               	rrf	___lwdiv@divisor+1,f
  2461  098E  0CF0               	rrf	___lwdiv@divisor,f
  2462  098F  3EFF               	addlw	-1
  2463  0990  1D03               	skipz
  2464  0991  298C               	goto	u2015
  2465  0992                     l1877:	
  2466  0992  3001               	movlw	1
  2467  0993  02F7               	subwf	___lwdiv@counter,f
  2468  0994  1D03               	btfss	3,2
  2469  0995  2997               	goto	u2021
  2470  0996  2998               	goto	u2020
  2471  0997                     u2021:	
  2472  0997  2973               	goto	l1869
  2473  0998                     u2020:	
  2474  0998                     l1879:	
  2475  0998  0876               	movf	___lwdiv@quotient+1,w
  2476  0999  00F1               	movwf	?___lwdiv+1
  2477  099A  0875               	movf	___lwdiv@quotient,w
  2478  099B  00F0               	movwf	?___lwdiv
  2479  099C                     l561:	
  2480  099C  0008               	return
  2481  099D                     __end_of___lwdiv:	
  2482                           
  2483                           	psect	text4
  2484  179B                     __ptext4:	
  2485 ;; *************** function _config *****************
  2486 ;; Defined at:
  2487 ;;		line 165 in file "main.c"
  2488 ;; Parameters:    Size  Location     Type
  2489 ;;		None
  2490 ;; Auto vars:     Size  Location     Type
  2491 ;;		None
  2492 ;; Return value:  Size  Location     Type
  2493 ;;                  1    wreg      void 
  2494 ;; Registers used:
  2495 ;;		wreg, status,2, status,0, pclath, cstack
  2496 ;; Tracked objects:
  2497 ;;		On entry : 0/0
  2498 ;;		On exit  : 0/0
  2499 ;;		Unchanged: 0/0
  2500 ;; Data sizes:     COMMON   BANK0   BANK1   BANK3   BANK2
  2501 ;;      Params:         0       0       0       0       0
  2502 ;;      Locals:         0       0       0       0       0
  2503 ;;      Temps:          0       0       0       0       0
  2504 ;;      Totals:         0       0       0       0       0
  2505 ;;Total ram usage:        0 bytes
  2506 ;; Hardware stack levels used:    1
  2507 ;; Hardware stack levels required when called:    2
  2508 ;; This function calls:
  2509 ;;		_I2C_Master_Init
  2510 ;; This function is called by:
  2511 ;;		_main
  2512 ;; This function uses a non-reentrant model
  2513 ;;
  2514                           
  2515                           
  2516                           ;psect for function _config
  2517  179B                     _config:	
  2518  179B                     l2113:	
  2519                           ;incstack = 0
  2520                           ; Regs used in _config: [wreg+status,2+status,0+pclath+cstack]
  2521                           
  2522                           
  2523                           ;main.c: 166:     TRISB = 0x00;
  2524  179B  1683               	bsf	3,5	;RP0=1, select bank1
  2525  179C  1303               	bcf	3,6	;RP1=0, select bank1
  2526  179D  0186               	clrf	6	;volatile
  2527                           
  2528                           ;main.c: 167:     TRISD = 0x00;
  2529  179E  0188               	clrf	8	;volatile
  2530                           
  2531                           ;main.c: 168:     ANSELH = 0x00;
  2532  179F  1683               	bsf	3,5	;RP0=1, select bank3
  2533  17A0  1703               	bsf	3,6	;RP1=1, select bank3
  2534  17A1  0189               	clrf	9	;volatile
  2535                           
  2536                           ;main.c: 169:     ANSEL = 0x00;
  2537  17A2  0188               	clrf	8	;volatile
  2538                           
  2539                           ;main.c: 170:     PORTA = 0x00;
  2540  17A3  1283               	bcf	3,5	;RP0=0, select bank0
  2541  17A4  1303               	bcf	3,6	;RP1=0, select bank0
  2542  17A5  0185               	clrf	5	;volatile
  2543                           
  2544                           ;main.c: 171:     PORTB = 0x00;
  2545  17A6  0186               	clrf	6	;volatile
  2546                           
  2547                           ;main.c: 172:     PORTC = 0x00;
  2548  17A7  0187               	clrf	7	;volatile
  2549                           
  2550                           ;main.c: 173:     PORTD = 0x00;
  2551  17A8  0188               	clrf	8	;volatile
  2552  17A9                     l2115:	
  2553                           
  2554                           ;main.c: 174:     I2C_Master_Init(100000);
  2555  17A9  3000               	movlw	0
  2556  17AA  00A3               	movwf	I2C_Master_Init@c+3
  2557  17AB  3001               	movlw	1
  2558  17AC  00A2               	movwf	I2C_Master_Init@c+2
  2559  17AD  3086               	movlw	134
  2560  17AE  00A1               	movwf	I2C_Master_Init@c+1
  2561  17AF  30A0               	movlw	160
  2562  17B0  00A0               	movwf	I2C_Master_Init@c
  2563  17B1  120A  158A  20E7  160A  118A  	fcall	_I2C_Master_Init
  2564  17B6                     l85:	
  2565  17B6  0008               	return
  2566  17B7                     __end_of_config:	
  2567                           
  2568                           	psect	text5
  2569  08E7                     __ptext5:	
  2570 ;; *************** function _I2C_Master_Init *****************
  2571 ;; Defined at:
  2572 ;;		line 17 in file "I2C.c"
  2573 ;; Parameters:    Size  Location     Type
  2574 ;;  c               4    0[BANK0 ] const unsigned long 
  2575 ;; Auto vars:     Size  Location     Type
  2576 ;;		None
  2577 ;; Return value:  Size  Location     Type
  2578 ;;                  1    wreg      void 
  2579 ;; Registers used:
  2580 ;;		wreg, status,2, status,0, pclath, cstack
  2581 ;; Tracked objects:
  2582 ;;		On entry : 0/0
  2583 ;;		On exit  : 0/0
  2584 ;;		Unchanged: 0/0
  2585 ;; Data sizes:     COMMON   BANK0   BANK1   BANK3   BANK2
  2586 ;;      Params:         0       4       0       0       0
  2587 ;;      Locals:         0       0       0       0       0
  2588 ;;      Temps:          0       4       0       0       0
  2589 ;;      Totals:         0       8       0       0       0
  2590 ;;Total ram usage:        8 bytes
  2591 ;; Hardware stack levels used:    1
  2592 ;; Hardware stack levels required when called:    1
  2593 ;; This function calls:
  2594 ;;		___lldiv
  2595 ;; This function is called by:
  2596 ;;		_config
  2597 ;; This function uses a non-reentrant model
  2598 ;;
  2599                           
  2600                           
  2601                           ;psect for function _I2C_Master_Init
  2602  08E7                     _I2C_Master_Init:	
  2603  08E7                     l1811:	
  2604                           ;incstack = 0
  2605                           ; Regs used in _I2C_Master_Init: [wreg+status,2+status,0+pclath+cstack]
  2606                           
  2607                           
  2608                           ;I2C.c: 17: void I2C_Master_Init(const unsigned long c);I2C.c: 18: {;I2C.c: 19:     SSPC
      +                          ON = 0b00101000;
  2609  08E7  3028               	movlw	40
  2610  08E8  1283               	bcf	3,5	;RP0=0, select bank0
  2611  08E9  1303               	bcf	3,6	;RP1=0, select bank0
  2612  08EA  0094               	movwf	20	;volatile
  2613  08EB                     l1813:	
  2614                           
  2615                           ;I2C.c: 20:     SSPCON2 = 0;
  2616  08EB  1683               	bsf	3,5	;RP0=1, select bank1
  2617  08EC  1303               	bcf	3,6	;RP1=0, select bank1
  2618  08ED  0191               	clrf	17	;volatile
  2619  08EE                     l1815:	
  2620                           
  2621                           ;I2C.c: 21:     SSPADD = (8000000/(4*c))-1;
  2622  08EE  1283               	bcf	3,5	;RP0=0, select bank0
  2623  08EF  1303               	bcf	3,6	;RP1=0, select bank0
  2624  08F0  0820               	movf	I2C_Master_Init@c,w
  2625  08F1  00A4               	movwf	??_I2C_Master_Init
  2626  08F2  0821               	movf	I2C_Master_Init@c+1,w
  2627  08F3  00A5               	movwf	??_I2C_Master_Init+1
  2628  08F4  0822               	movf	I2C_Master_Init@c+2,w
  2629  08F5  00A6               	movwf	??_I2C_Master_Init+2
  2630  08F6  0823               	movf	I2C_Master_Init@c+3,w
  2631  08F7  00A7               	movwf	??_I2C_Master_Init+3
  2632  08F8  3002               	movlw	2
  2633  08F9                     u1895:	
  2634  08F9  1003               	clrc
  2635  08FA  0DA4               	rlf	??_I2C_Master_Init,f
  2636  08FB  0DA5               	rlf	??_I2C_Master_Init+1,f
  2637  08FC  0DA6               	rlf	??_I2C_Master_Init+2,f
  2638  08FD  0DA7               	rlf	??_I2C_Master_Init+3,f
  2639  08FE                     u1890:	
  2640  08FE  3EFF               	addlw	-1
  2641  08FF  1D03               	skipz
  2642  0900  28F9               	goto	u1895
  2643  0901  0827               	movf	??_I2C_Master_Init+3,w
  2644  0902  00F3               	movwf	___lldiv@divisor+3
  2645  0903  0826               	movf	??_I2C_Master_Init+2,w
  2646  0904  00F2               	movwf	___lldiv@divisor+2
  2647  0905  0825               	movf	??_I2C_Master_Init+1,w
  2648  0906  00F1               	movwf	___lldiv@divisor+1
  2649  0907  0824               	movf	??_I2C_Master_Init,w
  2650  0908  00F0               	movwf	___lldiv@divisor
  2651  0909  3000               	movlw	0
  2652  090A  00F7               	movwf	___lldiv@dividend+3
  2653  090B  307A               	movlw	122
  2654  090C  00F6               	movwf	___lldiv@dividend+2
  2655  090D  3012               	movlw	18
  2656  090E  00F5               	movwf	___lldiv@dividend+1
  2657  090F  3000               	movlw	0
  2658  0910  00F4               	movwf	___lldiv@dividend
  2659  0911  120A  158A  21F1  120A  158A  	fcall	___lldiv
  2660  0916  0870               	movf	?___lldiv,w
  2661  0917  3EFF               	addlw	255
  2662  0918  1683               	bsf	3,5	;RP0=1, select bank1
  2663  0919  1303               	bcf	3,6	;RP1=0, select bank1
  2664  091A  0093               	movwf	19	;volatile
  2665  091B                     l1817:	
  2666                           
  2667                           ;I2C.c: 22:     SSPSTAT = 0;
  2668  091B  0194               	clrf	20	;volatile
  2669  091C                     l1819:	
  2670                           
  2671                           ;I2C.c: 23:     TRISCbits.TRISC3 = 1;
  2672  091C  1587               	bsf	7,3	;volatile
  2673  091D                     l1821:	
  2674                           
  2675                           ;I2C.c: 24:     TRISCbits.TRISC4 = 1;
  2676  091D  1607               	bsf	7,4	;volatile
  2677  091E                     l149:	
  2678  091E  0008               	return
  2679  091F                     __end_of_I2C_Master_Init:	
  2680                           
  2681                           	psect	text6
  2682  09F1                     __ptext6:	
  2683 ;; *************** function ___lldiv *****************
  2684 ;; Defined at:
  2685 ;;		line 5 in file "C:\Program Files (x86)\Microchip\xc8\v2.10\pic\sources\c90\common\__lldiv.c"
  2686 ;; Parameters:    Size  Location     Type
  2687 ;;  divisor         4    0[COMMON] unsigned long 
  2688 ;;  dividend        4    4[COMMON] unsigned long 
  2689 ;; Auto vars:     Size  Location     Type
  2690 ;;  quotient        4    9[COMMON] unsigned long 
  2691 ;;  counter         1   13[COMMON] unsigned char 
  2692 ;; Return value:  Size  Location     Type
  2693 ;;                  4    0[COMMON] unsigned long 
  2694 ;; Registers used:
  2695 ;;		wreg, status,2, status,0
  2696 ;; Tracked objects:
  2697 ;;		On entry : 0/0
  2698 ;;		On exit  : 0/0
  2699 ;;		Unchanged: 0/0
  2700 ;; Data sizes:     COMMON   BANK0   BANK1   BANK3   BANK2
  2701 ;;      Params:         8       0       0       0       0
  2702 ;;      Locals:         5       0       0       0       0
  2703 ;;      Temps:          1       0       0       0       0
  2704 ;;      Totals:        14       0       0       0       0
  2705 ;;Total ram usage:       14 bytes
  2706 ;; Hardware stack levels used:    1
  2707 ;; This function calls:
  2708 ;;		Nothing
  2709 ;; This function is called by:
  2710 ;;		_I2C_Master_Init
  2711 ;; This function uses a non-reentrant model
  2712 ;;
  2713                           
  2714                           
  2715                           ;psect for function ___lldiv
  2716  09F1                     ___lldiv:	
  2717  09F1                     l1787:	
  2718                           ;incstack = 0
  2719                           ; Regs used in ___lldiv: [wreg+status,2+status,0]
  2720                           
  2721  09F1  3000               	movlw	0
  2722  09F2  00FC               	movwf	___lldiv@quotient+3
  2723  09F3  3000               	movlw	0
  2724  09F4  00FB               	movwf	___lldiv@quotient+2
  2725  09F5  3000               	movlw	0
  2726  09F6  00FA               	movwf	___lldiv@quotient+1
  2727  09F7  3000               	movlw	0
  2728  09F8  00F9               	movwf	___lldiv@quotient
  2729  09F9  0873               	movf	___lldiv@divisor+3,w
  2730  09FA  0472               	iorwf	___lldiv@divisor+2,w
  2731  09FB  0471               	iorwf	___lldiv@divisor+1,w
  2732  09FC  0470               	iorwf	___lldiv@divisor,w
  2733  09FD  1903               	skipnz
  2734  09FE  2A00               	goto	u1821
  2735  09FF  2A01               	goto	u1820
  2736  0A00                     u1821:	
  2737  0A00  2A4E               	goto	l1807
  2738  0A01                     u1820:	
  2739  0A01                     l1789:	
  2740  0A01  01FD               	clrf	___lldiv@counter
  2741  0A02  0AFD               	incf	___lldiv@counter,f
  2742  0A03  2A11               	goto	l1793
  2743  0A04                     l1791:	
  2744  0A04  3001               	movlw	1
  2745  0A05  00F8               	movwf	??___lldiv
  2746  0A06                     u1835:	
  2747  0A06  1003               	clrc
  2748  0A07  0DF0               	rlf	___lldiv@divisor,f
  2749  0A08  0DF1               	rlf	___lldiv@divisor+1,f
  2750  0A09  0DF2               	rlf	___lldiv@divisor+2,f
  2751  0A0A  0DF3               	rlf	___lldiv@divisor+3,f
  2752  0A0B  0BF8               	decfsz	??___lldiv,f
  2753  0A0C  2A06               	goto	u1835
  2754  0A0D  3001               	movlw	1
  2755  0A0E  00F8               	movwf	??___lldiv
  2756  0A0F  0878               	movf	??___lldiv,w
  2757  0A10  07FD               	addwf	___lldiv@counter,f
  2758  0A11                     l1793:	
  2759  0A11  1FF3               	btfss	___lldiv@divisor+3,7
  2760  0A12  2A14               	goto	u1841
  2761  0A13  2A15               	goto	u1840
  2762  0A14                     u1841:	
  2763  0A14  2A04               	goto	l1791
  2764  0A15                     u1840:	
  2765  0A15                     l1795:	
  2766  0A15  3001               	movlw	1
  2767  0A16  00F8               	movwf	??___lldiv
  2768  0A17                     u1855:	
  2769  0A17  1003               	clrc
  2770  0A18  0DF9               	rlf	___lldiv@quotient,f
  2771  0A19  0DFA               	rlf	___lldiv@quotient+1,f
  2772  0A1A  0DFB               	rlf	___lldiv@quotient+2,f
  2773  0A1B  0DFC               	rlf	___lldiv@quotient+3,f
  2774  0A1C  0BF8               	decfsz	??___lldiv,f
  2775  0A1D  2A17               	goto	u1855
  2776  0A1E                     l1797:	
  2777  0A1E  0873               	movf	___lldiv@divisor+3,w
  2778  0A1F  0277               	subwf	___lldiv@dividend+3,w
  2779  0A20  1D03               	skipz
  2780  0A21  2A2C               	goto	u1865
  2781  0A22  0872               	movf	___lldiv@divisor+2,w
  2782  0A23  0276               	subwf	___lldiv@dividend+2,w
  2783  0A24  1D03               	skipz
  2784  0A25  2A2C               	goto	u1865
  2785  0A26  0871               	movf	___lldiv@divisor+1,w
  2786  0A27  0275               	subwf	___lldiv@dividend+1,w
  2787  0A28  1D03               	skipz
  2788  0A29  2A2C               	goto	u1865
  2789  0A2A  0870               	movf	___lldiv@divisor,w
  2790  0A2B  0274               	subwf	___lldiv@dividend,w
  2791  0A2C                     u1865:	
  2792  0A2C  1C03               	skipc
  2793  0A2D  2A2F               	goto	u1861
  2794  0A2E  2A30               	goto	u1860
  2795  0A2F                     u1861:	
  2796  0A2F  2A3F               	goto	l1803
  2797  0A30                     u1860:	
  2798  0A30                     l1799:	
  2799  0A30  0870               	movf	___lldiv@divisor,w
  2800  0A31  02F4               	subwf	___lldiv@dividend,f
  2801  0A32  0871               	movf	___lldiv@divisor+1,w
  2802  0A33  1C03               	skipc
  2803  0A34  0F71               	incfsz	___lldiv@divisor+1,w
  2804  0A35  02F5               	subwf	___lldiv@dividend+1,f
  2805  0A36  0872               	movf	___lldiv@divisor+2,w
  2806  0A37  1C03               	skipc
  2807  0A38  0F72               	incfsz	___lldiv@divisor+2,w
  2808  0A39  02F6               	subwf	___lldiv@dividend+2,f
  2809  0A3A  0873               	movf	___lldiv@divisor+3,w
  2810  0A3B  1C03               	skipc
  2811  0A3C  0F73               	incfsz	___lldiv@divisor+3,w
  2812  0A3D  02F7               	subwf	___lldiv@dividend+3,f
  2813  0A3E                     l1801:	
  2814  0A3E  1479               	bsf	___lldiv@quotient,0
  2815  0A3F                     l1803:	
  2816  0A3F  3001               	movlw	1
  2817  0A40                     u1875:	
  2818  0A40  1003               	clrc
  2819  0A41  0CF3               	rrf	___lldiv@divisor+3,f
  2820  0A42  0CF2               	rrf	___lldiv@divisor+2,f
  2821  0A43  0CF1               	rrf	___lldiv@divisor+1,f
  2822  0A44  0CF0               	rrf	___lldiv@divisor,f
  2823  0A45  3EFF               	addlw	-1
  2824  0A46  1D03               	skipz
  2825  0A47  2A40               	goto	u1875
  2826  0A48                     l1805:	
  2827  0A48  3001               	movlw	1
  2828  0A49  02FD               	subwf	___lldiv@counter,f
  2829  0A4A  1D03               	btfss	3,2
  2830  0A4B  2A4D               	goto	u1881
  2831  0A4C  2A4E               	goto	u1880
  2832  0A4D                     u1881:	
  2833  0A4D  2A15               	goto	l1795
  2834  0A4E                     u1880:	
  2835  0A4E                     l1807:	
  2836  0A4E  087C               	movf	___lldiv@quotient+3,w
  2837  0A4F  00F3               	movwf	?___lldiv+3
  2838  0A50  087B               	movf	___lldiv@quotient+2,w
  2839  0A51  00F2               	movwf	?___lldiv+2
  2840  0A52  087A               	movf	___lldiv@quotient+1,w
  2841  0A53  00F1               	movwf	?___lldiv+1
  2842  0A54  0879               	movf	___lldiv@quotient,w
  2843  0A55  00F0               	movwf	?___lldiv
  2844  0A56                     l325:	
  2845  0A56  0008               	return
  2846  0A57                     __end_of___lldiv:	
  2847                           
  2848                           	psect	text7
  2849  0AD1                     __ptext7:	
  2850 ;; *************** function ___xxtofl *****************
  2851 ;; Defined at:
  2852 ;;		line 10 in file "C:\Program Files (x86)\Microchip\xc8\v2.10\pic\sources\c90\common\xxtofl.c"
  2853 ;; Parameters:    Size  Location     Type
  2854 ;;  sign            1    wreg     unsigned char 
  2855 ;;  val             4    0[COMMON] long 
  2856 ;; Auto vars:     Size  Location     Type
  2857 ;;  sign            1    8[COMMON] unsigned char 
  2858 ;;  arg             4   10[COMMON] unsigned long 
  2859 ;;  exp             1    9[COMMON] unsigned char 
  2860 ;; Return value:  Size  Location     Type
  2861 ;;                  4    0[COMMON] unsigned char 
  2862 ;; Registers used:
  2863 ;;		wreg, status,2, status,0
  2864 ;; Tracked objects:
  2865 ;;		On entry : 0/0
  2866 ;;		On exit  : 0/0
  2867 ;;		Unchanged: 0/0
  2868 ;; Data sizes:     COMMON   BANK0   BANK1   BANK3   BANK2
  2869 ;;      Params:         4       0       0       0       0
  2870 ;;      Locals:         6       0       0       0       0
  2871 ;;      Temps:          4       0       0       0       0
  2872 ;;      Totals:        14       0       0       0       0
  2873 ;;Total ram usage:       14 bytes
  2874 ;; Hardware stack levels used:    1
  2875 ;; This function calls:
  2876 ;;		Nothing
  2877 ;; This function is called by:
  2878 ;;		_main
  2879 ;; This function uses a non-reentrant model
  2880 ;;
  2881                           
  2882                           
  2883                           ;psect for function ___xxtofl
  2884  0AD1                     ___xxtofl:	
  2885                           
  2886                           ;incstack = 0
  2887                           ; Regs used in ___xxtofl: [wreg+status,2+status,0]
  2888                           ;___xxtofl@sign stored from wreg
  2889  0AD1  00F8               	movwf	___xxtofl@sign
  2890  0AD2                     l2571:	
  2891  0AD2  0878               	movf	___xxtofl@sign,w
  2892  0AD3  1903               	btfsc	3,2
  2893  0AD4  2AD6               	goto	u3451
  2894  0AD5  2AD7               	goto	u3450
  2895  0AD6                     u3451:	
  2896  0AD6  2AEB               	goto	l2577
  2897  0AD7                     u3450:	
  2898  0AD7                     l2573:	
  2899  0AD7  1FF3               	btfss	___xxtofl@val+3,7
  2900  0AD8  2ADA               	goto	u3461
  2901  0AD9  2ADB               	goto	u3460
  2902  0ADA                     u3461:	
  2903  0ADA  2AEB               	goto	l2577
  2904  0ADB                     u3460:	
  2905  0ADB                     l2575:	
  2906  0ADB  0970               	comf	___xxtofl@val,w
  2907  0ADC  00FA               	movwf	___xxtofl@arg
  2908  0ADD  0971               	comf	___xxtofl@val+1,w
  2909  0ADE  00FB               	movwf	___xxtofl@arg+1
  2910  0ADF  0972               	comf	___xxtofl@val+2,w
  2911  0AE0  00FC               	movwf	___xxtofl@arg+2
  2912  0AE1  0973               	comf	___xxtofl@val+3,w
  2913  0AE2  00FD               	movwf	___xxtofl@arg+3
  2914  0AE3  0AFA               	incf	___xxtofl@arg,f
  2915  0AE4  1903               	skipnz
  2916  0AE5  0AFB               	incf	___xxtofl@arg+1,f
  2917  0AE6  1903               	skipnz
  2918  0AE7  0AFC               	incf	___xxtofl@arg+2,f
  2919  0AE8  1903               	skipnz
  2920  0AE9  0AFD               	incf	___xxtofl@arg+3,f
  2921  0AEA  2AF3               	goto	l716
  2922  0AEB                     l2577:	
  2923  0AEB  0873               	movf	___xxtofl@val+3,w
  2924  0AEC  00FD               	movwf	___xxtofl@arg+3
  2925  0AED  0872               	movf	___xxtofl@val+2,w
  2926  0AEE  00FC               	movwf	___xxtofl@arg+2
  2927  0AEF  0871               	movf	___xxtofl@val+1,w
  2928  0AF0  00FB               	movwf	___xxtofl@arg+1
  2929  0AF1  0870               	movf	___xxtofl@val,w
  2930  0AF2  00FA               	movwf	___xxtofl@arg
  2931  0AF3                     l716:	
  2932  0AF3  0873               	movf	___xxtofl@val+3,w
  2933  0AF4  0472               	iorwf	___xxtofl@val+2,w
  2934  0AF5  0471               	iorwf	___xxtofl@val+1,w
  2935  0AF6  0470               	iorwf	___xxtofl@val,w
  2936  0AF7  1D03               	skipz
  2937  0AF8  2AFA               	goto	u3471
  2938  0AF9  2AFB               	goto	u3470
  2939  0AFA                     u3471:	
  2940  0AFA  2B04               	goto	l2583
  2941  0AFB                     u3470:	
  2942  0AFB                     l2579:	
  2943  0AFB  3000               	movlw	0
  2944  0AFC  00F3               	movwf	?___xxtofl+3
  2945  0AFD  3000               	movlw	0
  2946  0AFE  00F2               	movwf	?___xxtofl+2
  2947  0AFF  3000               	movlw	0
  2948  0B00  00F1               	movwf	?___xxtofl+1
  2949  0B01  3000               	movlw	0
  2950  0B02  00F0               	movwf	?___xxtofl
  2951  0B03  2B8A               	goto	l718
  2952  0B04                     l2583:	
  2953  0B04  3096               	movlw	150
  2954  0B05  00F4               	movwf	??___xxtofl
  2955  0B06  0874               	movf	??___xxtofl,w
  2956  0B07  00F9               	movwf	___xxtofl@exp
  2957  0B08  2B16               	goto	l2587
  2958  0B09                     l2585:	
  2959  0B09  3001               	movlw	1
  2960  0B0A  00F4               	movwf	??___xxtofl
  2961  0B0B  0874               	movf	??___xxtofl,w
  2962  0B0C  07F9               	addwf	___xxtofl@exp,f
  2963  0B0D  3001               	movlw	1
  2964  0B0E                     u3485:	
  2965  0B0E  1003               	clrc
  2966  0B0F  0CFD               	rrf	___xxtofl@arg+3,f
  2967  0B10  0CFC               	rrf	___xxtofl@arg+2,f
  2968  0B11  0CFB               	rrf	___xxtofl@arg+1,f
  2969  0B12  0CFA               	rrf	___xxtofl@arg,f
  2970  0B13  3EFF               	addlw	-1
  2971  0B14  1D03               	skipz
  2972  0B15  2B0E               	goto	u3485
  2973  0B16                     l2587:	
  2974  0B16  30FE               	movlw	254
  2975  0B17  057D               	andwf	___xxtofl@arg+3,w
  2976  0B18  1D03               	btfss	3,2
  2977  0B19  2B1B               	goto	u3491
  2978  0B1A  2B1C               	goto	u3490
  2979  0B1B                     u3491:	
  2980  0B1B  2B09               	goto	l2585
  2981  0B1C                     u3490:	
  2982  0B1C  2B38               	goto	l722
  2983  0B1D                     l2589:	
  2984  0B1D  3001               	movlw	1
  2985  0B1E  00F4               	movwf	??___xxtofl
  2986  0B1F  0874               	movf	??___xxtofl,w
  2987  0B20  07F9               	addwf	___xxtofl@exp,f
  2988  0B21                     l2591:	
  2989  0B21  3001               	movlw	1
  2990  0B22  07FA               	addwf	___xxtofl@arg,f
  2991  0B23  3000               	movlw	0
  2992  0B24  1803               	skipnc
  2993  0B25  3001               	movlw	1
  2994  0B26  07FB               	addwf	___xxtofl@arg+1,f
  2995  0B27  3000               	movlw	0
  2996  0B28  1803               	skipnc
  2997  0B29  3001               	movlw	1
  2998  0B2A  07FC               	addwf	___xxtofl@arg+2,f
  2999  0B2B  3000               	movlw	0
  3000  0B2C  1803               	skipnc
  3001  0B2D  3001               	movlw	1
  3002  0B2E  07FD               	addwf	___xxtofl@arg+3,f
  3003  0B2F                     l2593:	
  3004  0B2F  3001               	movlw	1
  3005  0B30                     u3505:	
  3006  0B30  1003               	clrc
  3007  0B31  0CFD               	rrf	___xxtofl@arg+3,f
  3008  0B32  0CFC               	rrf	___xxtofl@arg+2,f
  3009  0B33  0CFB               	rrf	___xxtofl@arg+1,f
  3010  0B34  0CFA               	rrf	___xxtofl@arg,f
  3011  0B35  3EFF               	addlw	-1
  3012  0B36  1D03               	skipz
  3013  0B37  2B30               	goto	u3505
  3014  0B38                     l722:	
  3015  0B38  30FF               	movlw	255
  3016  0B39  057D               	andwf	___xxtofl@arg+3,w
  3017  0B3A  1D03               	btfss	3,2
  3018  0B3B  2B3D               	goto	u3511
  3019  0B3C  2B3E               	goto	u3510
  3020  0B3D                     u3511:	
  3021  0B3D  2B1D               	goto	l2589
  3022  0B3E                     u3510:	
  3023  0B3E  2B4A               	goto	l2597
  3024  0B3F                     l2595:	
  3025  0B3F  3001               	movlw	1
  3026  0B40  02F9               	subwf	___xxtofl@exp,f
  3027  0B41  3001               	movlw	1
  3028  0B42  00F4               	movwf	??___xxtofl
  3029  0B43                     u3525:	
  3030  0B43  1003               	clrc
  3031  0B44  0DFA               	rlf	___xxtofl@arg,f
  3032  0B45  0DFB               	rlf	___xxtofl@arg+1,f
  3033  0B46  0DFC               	rlf	___xxtofl@arg+2,f
  3034  0B47  0DFD               	rlf	___xxtofl@arg+3,f
  3035  0B48  0BF4               	decfsz	??___xxtofl,f
  3036  0B49  2B43               	goto	u3525
  3037  0B4A                     l2597:	
  3038  0B4A  1BFC               	btfsc	___xxtofl@arg+2,7
  3039  0B4B  2B4D               	goto	u3531
  3040  0B4C  2B4E               	goto	u3530
  3041  0B4D                     u3531:	
  3042  0B4D  2B54               	goto	l729
  3043  0B4E                     u3530:	
  3044  0B4E                     l2599:	
  3045  0B4E  3002               	movlw	2
  3046  0B4F  0279               	subwf	___xxtofl@exp,w
  3047  0B50  1803               	skipnc
  3048  0B51  2B53               	goto	u3541
  3049  0B52  2B54               	goto	u3540
  3050  0B53                     u3541:	
  3051  0B53  2B3F               	goto	l2595
  3052  0B54                     u3540:	
  3053  0B54                     l729:	
  3054  0B54  1879               	btfsc	___xxtofl@exp,0
  3055  0B55  2B57               	goto	u3551
  3056  0B56  2B58               	goto	u3550
  3057  0B57                     u3551:	
  3058  0B57  2B60               	goto	l730
  3059  0B58                     u3550:	
  3060  0B58                     l2601:	
  3061  0B58  30FF               	movlw	255
  3062  0B59  05FA               	andwf	___xxtofl@arg,f
  3063  0B5A  30FF               	movlw	255
  3064  0B5B  05FB               	andwf	___xxtofl@arg+1,f
  3065  0B5C  307F               	movlw	127
  3066  0B5D  05FC               	andwf	___xxtofl@arg+2,f
  3067  0B5E  30FF               	movlw	255
  3068  0B5F  05FD               	andwf	___xxtofl@arg+3,f
  3069  0B60                     l730:	
  3070  0B60  1003               	clrc
  3071  0B61  0CF9               	rrf	___xxtofl@exp,f
  3072  0B62                     l2603:	
  3073  0B62  0879               	movf	___xxtofl@exp,w
  3074  0B63  00F4               	movwf	??___xxtofl
  3075  0B64  01F5               	clrf	??___xxtofl+1
  3076  0B65  01F6               	clrf	??___xxtofl+2
  3077  0B66  01F7               	clrf	??___xxtofl+3
  3078  0B67  3018               	movlw	24
  3079  0B68                     u3565:	
  3080  0B68  1003               	clrc
  3081  0B69  0DF4               	rlf	??___xxtofl,f
  3082  0B6A  0DF5               	rlf	??___xxtofl+1,f
  3083  0B6B  0DF6               	rlf	??___xxtofl+2,f
  3084  0B6C  0DF7               	rlf	??___xxtofl+3,f
  3085  0B6D                     u3560:	
  3086  0B6D  3EFF               	addlw	-1
  3087  0B6E  1D03               	skipz
  3088  0B6F  2B68               	goto	u3565
  3089  0B70  0874               	movf	??___xxtofl,w
  3090  0B71  04FA               	iorwf	___xxtofl@arg,f
  3091  0B72  0875               	movf	??___xxtofl+1,w
  3092  0B73  04FB               	iorwf	___xxtofl@arg+1,f
  3093  0B74  0876               	movf	??___xxtofl+2,w
  3094  0B75  04FC               	iorwf	___xxtofl@arg+2,f
  3095  0B76  0877               	movf	??___xxtofl+3,w
  3096  0B77  04FD               	iorwf	___xxtofl@arg+3,f
  3097  0B78                     l2605:	
  3098  0B78  0878               	movf	___xxtofl@sign,w
  3099  0B79  1903               	btfsc	3,2
  3100  0B7A  2B7C               	goto	u3571
  3101  0B7B  2B7D               	goto	u3570
  3102  0B7C                     u3571:	
  3103  0B7C  2B82               	goto	l2611
  3104  0B7D                     u3570:	
  3105  0B7D                     l2607:	
  3106  0B7D  1FF3               	btfss	___xxtofl@val+3,7
  3107  0B7E  2B80               	goto	u3581
  3108  0B7F  2B81               	goto	u3580
  3109  0B80                     u3581:	
  3110  0B80  2B82               	goto	l2611
  3111  0B81                     u3580:	
  3112  0B81                     l2609:	
  3113  0B81  17FD               	bsf	___xxtofl@arg+3,7
  3114  0B82                     l2611:	
  3115  0B82  087D               	movf	___xxtofl@arg+3,w
  3116  0B83  00F3               	movwf	?___xxtofl+3
  3117  0B84  087C               	movf	___xxtofl@arg+2,w
  3118  0B85  00F2               	movwf	?___xxtofl+2
  3119  0B86  087B               	movf	___xxtofl@arg+1,w
  3120  0B87  00F1               	movwf	?___xxtofl+1
  3121  0B88  087A               	movf	___xxtofl@arg,w
  3122  0B89  00F0               	movwf	?___xxtofl
  3123  0B8A                     l718:	
  3124  0B8A  0008               	return
  3125  0B8B                     __end_of___xxtofl:	
  3126                           
  3127                           	psect	text8
  3128  0A57                     __ptext8:	
  3129 ;; *************** function ___fltol *****************
  3130 ;; Defined at:
  3131 ;;		line 43 in file "C:\Program Files (x86)\Microchip\xc8\v2.10\pic\sources\c90\common\fltol.c"
  3132 ;; Parameters:    Size  Location     Type
  3133 ;;  f1              4    0[COMMON] unsigned char 
  3134 ;; Auto vars:     Size  Location     Type
  3135 ;;  exp1            1   10[COMMON] unsigned char 
  3136 ;;  sign1           1    9[COMMON] unsigned char 
  3137 ;; Return value:  Size  Location     Type
  3138 ;;                  4    0[COMMON] long 
  3139 ;; Registers used:
  3140 ;;		wreg, status,2, status,0
  3141 ;; Tracked objects:
  3142 ;;		On entry : 0/0
  3143 ;;		On exit  : 0/0
  3144 ;;		Unchanged: 0/0
  3145 ;; Data sizes:     COMMON   BANK0   BANK1   BANK3   BANK2
  3146 ;;      Params:         4       0       0       0       0
  3147 ;;      Locals:         2       0       0       0       0
  3148 ;;      Temps:          5       0       0       0       0
  3149 ;;      Totals:        11       0       0       0       0
  3150 ;;Total ram usage:       11 bytes
  3151 ;; Hardware stack levels used:    1
  3152 ;; This function calls:
  3153 ;;		Nothing
  3154 ;; This function is called by:
  3155 ;;		_main
  3156 ;; This function uses a non-reentrant model
  3157 ;;
  3158                           
  3159                           
  3160                           ;psect for function ___fltol
  3161  0A57                     ___fltol:	
  3162  0A57                     l2247:	
  3163                           ;incstack = 0
  3164                           ; Regs used in ___fltol: [wreg+status,2+status,0]
  3165                           
  3166  0A57  1003               	clrc
  3167  0A58  0D72               	rlf	___fltol@f1+2,w
  3168  0A59  0D73               	rlf	___fltol@f1+3,w
  3169  0A5A  00F4               	movwf	??___fltol
  3170  0A5B  0874               	movf	??___fltol,w
  3171  0A5C  00FA               	movwf	___fltol@exp1
  3172  0A5D  087A               	movf	___fltol@exp1,w
  3173  0A5E  1D03               	btfss	3,2
  3174  0A5F  2A61               	goto	u2691
  3175  0A60  2A62               	goto	u2690
  3176  0A61                     u2691:	
  3177  0A61  2A6B               	goto	l2253
  3178  0A62                     u2690:	
  3179  0A62                     l2249:	
  3180  0A62  3000               	movlw	0
  3181  0A63  00F3               	movwf	?___fltol+3
  3182  0A64  3000               	movlw	0
  3183  0A65  00F2               	movwf	?___fltol+2
  3184  0A66  3000               	movlw	0
  3185  0A67  00F1               	movwf	?___fltol+1
  3186  0A68  3000               	movlw	0
  3187  0A69  00F0               	movwf	?___fltol
  3188  0A6A  2AD0               	goto	l475
  3189  0A6B                     l2253:	
  3190  0A6B  0870               	movf	___fltol@f1,w
  3191  0A6C  00F4               	movwf	??___fltol
  3192  0A6D  0871               	movf	___fltol@f1+1,w
  3193  0A6E  00F5               	movwf	??___fltol+1
  3194  0A6F  0872               	movf	___fltol@f1+2,w
  3195  0A70  00F6               	movwf	??___fltol+2
  3196  0A71  0873               	movf	___fltol@f1+3,w
  3197  0A72  00F7               	movwf	??___fltol+3
  3198  0A73  301F               	movlw	31
  3199  0A74                     u2705:	
  3200  0A74  1003               	clrc
  3201  0A75  0CF7               	rrf	??___fltol+3,f
  3202  0A76  0CF6               	rrf	??___fltol+2,f
  3203  0A77  0CF5               	rrf	??___fltol+1,f
  3204  0A78  0CF4               	rrf	??___fltol,f
  3205  0A79                     u2700:	
  3206  0A79  3EFF               	addlw	-1
  3207  0A7A  1D03               	skipz
  3208  0A7B  2A74               	goto	u2705
  3209  0A7C  0874               	movf	??___fltol,w
  3210  0A7D  00F8               	movwf	??___fltol+4
  3211  0A7E  0878               	movf	??___fltol+4,w
  3212  0A7F  00F9               	movwf	___fltol@sign1
  3213  0A80                     l2255:	
  3214  0A80  17F2               	bsf	___fltol@f1+2,7
  3215  0A81                     l2257:	
  3216  0A81  30FF               	movlw	255
  3217  0A82  05F0               	andwf	___fltol@f1,f
  3218  0A83  30FF               	movlw	255
  3219  0A84  05F1               	andwf	___fltol@f1+1,f
  3220  0A85  30FF               	movlw	255
  3221  0A86  05F2               	andwf	___fltol@f1+2,f
  3222  0A87  3000               	movlw	0
  3223  0A88  05F3               	andwf	___fltol@f1+3,f
  3224  0A89                     l2259:	
  3225  0A89  3096               	movlw	150
  3226  0A8A  02FA               	subwf	___fltol@exp1,f
  3227  0A8B                     l2261:	
  3228  0A8B  1FFA               	btfss	___fltol@exp1,7
  3229  0A8C  2A8E               	goto	u2711
  3230  0A8D  2A8F               	goto	u2710
  3231  0A8E                     u2711:	
  3232  0A8E  2AA9               	goto	l2271
  3233  0A8F                     u2710:	
  3234  0A8F                     l2263:	
  3235  0A8F  087A               	movf	___fltol@exp1,w
  3236  0A90  3A80               	xorlw	128
  3237  0A91  3E97               	addlw	151
  3238  0A92  1803               	skipnc
  3239  0A93  2A95               	goto	u2721
  3240  0A94  2A96               	goto	u2720
  3241  0A95                     u2721:	
  3242  0A95  2A97               	goto	l2269
  3243  0A96                     u2720:	
  3244  0A96  2A62               	goto	l2249
  3245  0A97                     l2269:	
  3246  0A97  3001               	movlw	1
  3247  0A98                     u2735:	
  3248  0A98  1003               	clrc
  3249  0A99  0CF3               	rrf	___fltol@f1+3,f
  3250  0A9A  0CF2               	rrf	___fltol@f1+2,f
  3251  0A9B  0CF1               	rrf	___fltol@f1+1,f
  3252  0A9C  0CF0               	rrf	___fltol@f1,f
  3253  0A9D  3EFF               	addlw	-1
  3254  0A9E  1D03               	skipz
  3255  0A9F  2A98               	goto	u2735
  3256  0AA0  3001               	movlw	1
  3257  0AA1  00F4               	movwf	??___fltol
  3258  0AA2  0874               	movf	??___fltol,w
  3259  0AA3  07FA               	addwf	___fltol@exp1,f
  3260  0AA4  1D03               	btfss	3,2
  3261  0AA5  2AA7               	goto	u2741
  3262  0AA6  2AA8               	goto	u2740
  3263  0AA7                     u2741:	
  3264  0AA7  2A97               	goto	l2269
  3265  0AA8                     u2740:	
  3266  0AA8  2AC0               	goto	l2279
  3267  0AA9                     l2271:	
  3268  0AA9  3020               	movlw	32
  3269  0AAA  027A               	subwf	___fltol@exp1,w
  3270  0AAB  1C03               	skipc
  3271  0AAC  2AAE               	goto	u2751
  3272  0AAD  2AAF               	goto	u2750
  3273  0AAE                     u2751:	
  3274  0AAE  2ABB               	goto	l482
  3275  0AAF                     u2750:	
  3276  0AAF  2A62               	goto	l2249
  3277  0AB0                     l2277:	
  3278  0AB0  3001               	movlw	1
  3279  0AB1  00F4               	movwf	??___fltol
  3280  0AB2                     u2765:	
  3281  0AB2  1003               	clrc
  3282  0AB3  0DF0               	rlf	___fltol@f1,f
  3283  0AB4  0DF1               	rlf	___fltol@f1+1,f
  3284  0AB5  0DF2               	rlf	___fltol@f1+2,f
  3285  0AB6  0DF3               	rlf	___fltol@f1+3,f
  3286  0AB7  0BF4               	decfsz	??___fltol,f
  3287  0AB8  2AB2               	goto	u2765
  3288  0AB9  3001               	movlw	1
  3289  0ABA  02FA               	subwf	___fltol@exp1,f
  3290  0ABB                     l482:	
  3291  0ABB  087A               	movf	___fltol@exp1,w
  3292  0ABC  1D03               	btfss	3,2
  3293  0ABD  2ABF               	goto	u2771
  3294  0ABE  2AC0               	goto	u2770
  3295  0ABF                     u2771:	
  3296  0ABF  2AB0               	goto	l2277
  3297  0AC0                     u2770:	
  3298  0AC0                     l2279:	
  3299  0AC0  0879               	movf	___fltol@sign1,w
  3300  0AC1  1903               	btfsc	3,2
  3301  0AC2  2AC4               	goto	u2781
  3302  0AC3  2AC5               	goto	u2780
  3303  0AC4                     u2781:	
  3304  0AC4  2AD0               	goto	l485
  3305  0AC5                     u2780:	
  3306  0AC5                     l2281:	
  3307  0AC5  09F0               	comf	___fltol@f1,f
  3308  0AC6  09F1               	comf	___fltol@f1+1,f
  3309  0AC7  09F2               	comf	___fltol@f1+2,f
  3310  0AC8  09F3               	comf	___fltol@f1+3,f
  3311  0AC9  0AF0               	incf	___fltol@f1,f
  3312  0ACA  1903               	skipnz
  3313  0ACB  0AF1               	incf	___fltol@f1+1,f
  3314  0ACC  1903               	skipnz
  3315  0ACD  0AF2               	incf	___fltol@f1+2,f
  3316  0ACE  1903               	skipnz
  3317  0ACF  0AF3               	incf	___fltol@f1+3,f
  3318  0AD0                     l485:	
  3319  0AD0                     l475:	
  3320  0AD0  0008               	return
  3321  0AD1                     __end_of___fltol:	
  3322                           
  3323                           	psect	text9
  3324  17B7                     __ptext9:	
  3325 ;; *************** function ___flsub *****************
  3326 ;; Defined at:
  3327 ;;		line 242 in file "C:\Program Files (x86)\Microchip\xc8\v2.10\pic\sources\c90\common\sprcadd.c"
  3328 ;; Parameters:    Size  Location     Type
  3329 ;;  a               4    8[BANK0 ] long 
  3330 ;;  b               4   12[BANK0 ] long 
  3331 ;; Auto vars:     Size  Location     Type
  3332 ;;		None
  3333 ;; Return value:  Size  Location     Type
  3334 ;;                  4    8[BANK0 ] long 
  3335 ;; Registers used:
  3336 ;;		wreg, status,2, status,0, btemp+1, pclath, cstack
  3337 ;; Tracked objects:
  3338 ;;		On entry : 0/0
  3339 ;;		On exit  : 0/0
  3340 ;;		Unchanged: 0/0
  3341 ;; Data sizes:     COMMON   BANK0   BANK1   BANK3   BANK2
  3342 ;;      Params:         0       8       0       0       0
  3343 ;;      Locals:         0       0       0       0       0
  3344 ;;      Temps:          0       0       0       0       0
  3345 ;;      Totals:         0       8       0       0       0
  3346 ;;Total ram usage:        8 bytes
  3347 ;; Hardware stack levels used:    1
  3348 ;; Hardware stack levels required when called:    1
  3349 ;; This function calls:
  3350 ;;		___fladd
  3351 ;; This function is called by:
  3352 ;;		_main
  3353 ;; This function uses a non-reentrant model
  3354 ;;
  3355                           
  3356                           
  3357                           ;psect for function ___flsub
  3358  17B7                     ___flsub:	
  3359  17B7                     l2283:	
  3360                           ;incstack = 0
  3361                           ; Regs used in ___flsub: [wreg+status,2+status,0+btemp+1+pclath+cstack]
  3362                           
  3363  17B7  3080               	movlw	128
  3364  17B8  1283               	bcf	3,5	;RP0=0, select bank0
  3365  17B9  1303               	bcf	3,6	;RP1=0, select bank0
  3366  17BA  06AB               	xorwf	___flsub@a+3,f
  3367  17BB                     l2285:	
  3368  17BB  082F               	movf	___flsub@b+3,w
  3369  17BC  00F3               	movwf	___fladd@b+3
  3370  17BD  082E               	movf	___flsub@b+2,w
  3371  17BE  00F2               	movwf	___fladd@b+2
  3372  17BF  082D               	movf	___flsub@b+1,w
  3373  17C0  00F1               	movwf	___fladd@b+1
  3374  17C1  082C               	movf	___flsub@b,w
  3375  17C2  00F0               	movwf	___fladd@b
  3376  17C3  082B               	movf	___flsub@a+3,w
  3377  17C4  00F7               	movwf	___fladd@a+3
  3378  17C5  082A               	movf	___flsub@a+2,w
  3379  17C6  00F6               	movwf	___fladd@a+2
  3380  17C7  0829               	movf	___flsub@a+1,w
  3381  17C8  00F5               	movwf	___fladd@a+1
  3382  17C9  0828               	movf	___flsub@a,w
  3383  17CA  00F4               	movwf	___fladd@a
  3384  17CB  120A  158A  2568  160A  118A  	fcall	___fladd
  3385  17D0  0873               	movf	?___fladd+3,w
  3386  17D1  1283               	bcf	3,5	;RP0=0, select bank0
  3387  17D2  1303               	bcf	3,6	;RP1=0, select bank0
  3388  17D3  00AB               	movwf	?___flsub+3
  3389  17D4  0872               	movf	?___fladd+2,w
  3390  17D5  00AA               	movwf	?___flsub+2
  3391  17D6  0871               	movf	?___fladd+1,w
  3392  17D7  00A9               	movwf	?___flsub+1
  3393  17D8  0870               	movf	?___fladd,w
  3394  17D9  00A8               	movwf	?___flsub
  3395  17DA                     l628:	
  3396  17DA  0008               	return
  3397  17DB                     __end_of___flsub:	
  3398                           
  3399                           	psect	text10
  3400  0D68                     __ptext10:	
  3401 ;; *************** function ___fladd *****************
  3402 ;; Defined at:
  3403 ;;		line 10 in file "C:\Program Files (x86)\Microchip\xc8\v2.10\pic\sources\c90\common\sprcadd.c"
  3404 ;; Parameters:    Size  Location     Type
  3405 ;;  b               4    0[COMMON] long 
  3406 ;;  a               4    4[COMMON] long 
  3407 ;; Auto vars:     Size  Location     Type
  3408 ;;  grs             1   11[COMMON] unsigned char 
  3409 ;;  bexp            1   10[COMMON] unsigned char 
  3410 ;;  aexp            1    9[COMMON] unsigned char 
  3411 ;;  signs           1    8[COMMON] unsigned char 
  3412 ;; Return value:  Size  Location     Type
  3413 ;;                  4    0[COMMON] unsigned char 
  3414 ;; Registers used:
  3415 ;;		wreg, status,2, status,0, btemp+1
  3416 ;; Tracked objects:
  3417 ;;		On entry : 0/0
  3418 ;;		On exit  : 0/0
  3419 ;;		Unchanged: 0/0
  3420 ;; Data sizes:     COMMON   BANK0   BANK1   BANK3   BANK2
  3421 ;;      Params:         8       0       0       0       0
  3422 ;;      Locals:         4       0       0       0       0
  3423 ;;      Temps:          0       8       0       0       0
  3424 ;;      Totals:        12       8       0       0       0
  3425 ;;Total ram usage:       20 bytes
  3426 ;; Hardware stack levels used:    1
  3427 ;; This function calls:
  3428 ;;		Nothing
  3429 ;; This function is called by:
  3430 ;;		___flsub
  3431 ;; This function uses a non-reentrant model
  3432 ;;
  3433                           
  3434                           
  3435                           ;psect for function ___fladd
  3436  0D68                     ___fladd:	
  3437  0D68                     l1905:	
  3438                           ;incstack = 0
  3439                           ; Regs used in ___fladd: [wreg+status,2+status,0+btemp+1]
  3440                           
  3441  0D68  0873               	movf	___fladd@b+3,w
  3442  0D69  3980               	andlw	128
  3443  0D6A  1283               	bcf	3,5	;RP0=0, select bank0
  3444  0D6B  1303               	bcf	3,6	;RP1=0, select bank0
  3445  0D6C  00A0               	movwf	??___fladd
  3446  0D6D  0820               	movf	??___fladd,w
  3447  0D6E  00F8               	movwf	___fladd@signs
  3448  0D6F                     l1907:	
  3449  0D6F  0873               	movf	___fladd@b+3,w
  3450  0D70  00A0               	movwf	??___fladd
  3451  0D71  0720               	addwf	??___fladd,w
  3452  0D72  00A1               	movwf	??___fladd+1
  3453  0D73  0821               	movf	??___fladd+1,w
  3454  0D74  00FA               	movwf	___fladd@bexp
  3455  0D75                     l1909:	
  3456  0D75  1FF2               	btfss	___fladd@b+2,7
  3457  0D76  2D78               	goto	u2091
  3458  0D77  2D79               	goto	u2090
  3459  0D78                     u2091:	
  3460  0D78  2D7A               	goto	l1913
  3461  0D79                     u2090:	
  3462  0D79                     l1911:	
  3463  0D79  147A               	bsf	___fladd@bexp,0
  3464  0D7A                     l1913:	
  3465  0D7A  087A               	movf	___fladd@bexp,w
  3466  0D7B  1903               	btfsc	3,2
  3467  0D7C  2D7E               	goto	u2101
  3468  0D7D  2D7F               	goto	u2100
  3469  0D7E                     u2101:	
  3470  0D7E  2D8F               	goto	l1923
  3471  0D7F                     u2100:	
  3472  0D7F                     l1915:	
  3473  0D7F  0A7A               	incf	___fladd@bexp,w
  3474  0D80  1D03               	btfss	3,2
  3475  0D81  2D83               	goto	u2111
  3476  0D82  2D84               	goto	u2110
  3477  0D83                     u2111:	
  3478  0D83  2D8C               	goto	l1919
  3479  0D84                     u2110:	
  3480  0D84                     l1917:	
  3481  0D84  3000               	movlw	0
  3482  0D85  00F3               	movwf	___fladd@b+3
  3483  0D86  3000               	movlw	0
  3484  0D87  00F2               	movwf	___fladd@b+2
  3485  0D88  3000               	movlw	0
  3486  0D89  00F1               	movwf	___fladd@b+1
  3487  0D8A  3000               	movlw	0
  3488  0D8B  00F0               	movwf	___fladd@b
  3489  0D8C                     l1919:	
  3490  0D8C  17F2               	bsf	___fladd@b+2,7
  3491  0D8D                     l1921:	
  3492  0D8D  01F3               	clrf	___fladd@b+3
  3493  0D8E  2D97               	goto	l1925
  3494  0D8F                     l1923:	
  3495  0D8F  3000               	movlw	0
  3496  0D90  00F3               	movwf	___fladd@b+3
  3497  0D91  3000               	movlw	0
  3498  0D92  00F2               	movwf	___fladd@b+2
  3499  0D93  3000               	movlw	0
  3500  0D94  00F1               	movwf	___fladd@b+1
  3501  0D95  3000               	movlw	0
  3502  0D96  00F0               	movwf	___fladd@b
  3503  0D97                     l1925:	
  3504  0D97  0877               	movf	___fladd@a+3,w
  3505  0D98  3980               	andlw	128
  3506  0D99  00A0               	movwf	??___fladd
  3507  0D9A  0820               	movf	??___fladd,w
  3508  0D9B  00F9               	movwf	___fladd@aexp
  3509  0D9C                     l1927:	
  3510  0D9C  0879               	movf	___fladd@aexp,w
  3511  0D9D  0678               	xorwf	___fladd@signs,w
  3512  0D9E  1903               	skipnz
  3513  0D9F  2DA1               	goto	u2121
  3514  0DA0  2DA2               	goto	u2120
  3515  0DA1                     u2121:	
  3516  0DA1  2DA3               	goto	l1931
  3517  0DA2                     u2120:	
  3518  0DA2                     l1929:	
  3519  0DA2  1778               	bsf	___fladd@signs,6
  3520  0DA3                     l1931:	
  3521  0DA3  0877               	movf	___fladd@a+3,w
  3522  0DA4  00A0               	movwf	??___fladd
  3523  0DA5  0720               	addwf	??___fladd,w
  3524  0DA6  00A1               	movwf	??___fladd+1
  3525  0DA7  0821               	movf	??___fladd+1,w
  3526  0DA8  00F9               	movwf	___fladd@aexp
  3527  0DA9                     l1933:	
  3528  0DA9  1FF6               	btfss	___fladd@a+2,7
  3529  0DAA  2DAC               	goto	u2131
  3530  0DAB  2DAD               	goto	u2130
  3531  0DAC                     u2131:	
  3532  0DAC  2DAE               	goto	l1937
  3533  0DAD                     u2130:	
  3534  0DAD                     l1935:	
  3535  0DAD  1479               	bsf	___fladd@aexp,0
  3536  0DAE                     l1937:	
  3537  0DAE  0879               	movf	___fladd@aexp,w
  3538  0DAF  1903               	btfsc	3,2
  3539  0DB0  2DB2               	goto	u2141
  3540  0DB1  2DB3               	goto	u2140
  3541  0DB2                     u2141:	
  3542  0DB2  2DC3               	goto	l1947
  3543  0DB3                     u2140:	
  3544  0DB3                     l1939:	
  3545  0DB3  0A79               	incf	___fladd@aexp,w
  3546  0DB4  1D03               	btfss	3,2
  3547  0DB5  2DB7               	goto	u2151
  3548  0DB6  2DB8               	goto	u2150
  3549  0DB7                     u2151:	
  3550  0DB7  2DC0               	goto	l1943
  3551  0DB8                     u2150:	
  3552  0DB8                     l1941:	
  3553  0DB8  3000               	movlw	0
  3554  0DB9  00F7               	movwf	___fladd@a+3
  3555  0DBA  3000               	movlw	0
  3556  0DBB  00F6               	movwf	___fladd@a+2
  3557  0DBC  3000               	movlw	0
  3558  0DBD  00F5               	movwf	___fladd@a+1
  3559  0DBE  3000               	movlw	0
  3560  0DBF  00F4               	movwf	___fladd@a
  3561  0DC0                     l1943:	
  3562  0DC0  17F6               	bsf	___fladd@a+2,7
  3563  0DC1                     l1945:	
  3564  0DC1  01F7               	clrf	___fladd@a+3
  3565  0DC2  2DCB               	goto	l582
  3566  0DC3                     l1947:	
  3567  0DC3  3000               	movlw	0
  3568  0DC4  00F7               	movwf	___fladd@a+3
  3569  0DC5  3000               	movlw	0
  3570  0DC6  00F6               	movwf	___fladd@a+2
  3571  0DC7  3000               	movlw	0
  3572  0DC8  00F5               	movwf	___fladd@a+1
  3573  0DC9  3000               	movlw	0
  3574  0DCA  00F4               	movwf	___fladd@a
  3575  0DCB                     l582:	
  3576  0DCB  087A               	movf	___fladd@bexp,w
  3577  0DCC  0279               	subwf	___fladd@aexp,w
  3578  0DCD  1803               	skipnc
  3579  0DCE  2DD0               	goto	u2161
  3580  0DCF  2DD1               	goto	u2160
  3581  0DD0                     u2161:	
  3582  0DD0  2E15               	goto	l1983
  3583  0DD1                     u2160:	
  3584  0DD1                     l1949:	
  3585  0DD1  1F78               	btfss	___fladd@signs,6
  3586  0DD2  2DD4               	goto	u2171
  3587  0DD3  2DD5               	goto	u2170
  3588  0DD4                     u2171:	
  3589  0DD4  2DD9               	goto	l1953
  3590  0DD5                     u2170:	
  3591  0DD5                     l1951:	
  3592  0DD5  3080               	movlw	128
  3593  0DD6  00A0               	movwf	??___fladd
  3594  0DD7  0820               	movf	??___fladd,w
  3595  0DD8  06F8               	xorwf	___fladd@signs,f
  3596  0DD9                     l1953:	
  3597  0DD9  087A               	movf	___fladd@bexp,w
  3598  0DDA  00A0               	movwf	??___fladd
  3599  0DDB  0820               	movf	??___fladd,w
  3600  0DDC  00FB               	movwf	___fladd@grs
  3601  0DDD                     l1955:	
  3602  0DDD  0879               	movf	___fladd@aexp,w
  3603  0DDE  00A0               	movwf	??___fladd
  3604  0DDF  0820               	movf	??___fladd,w
  3605  0DE0  00FA               	movwf	___fladd@bexp
  3606  0DE1                     l1957:	
  3607  0DE1  087B               	movf	___fladd@grs,w
  3608  0DE2  00A0               	movwf	??___fladd
  3609  0DE3  0820               	movf	??___fladd,w
  3610  0DE4  00F9               	movwf	___fladd@aexp
  3611  0DE5                     l1959:	
  3612  0DE5  0870               	movf	___fladd@b,w
  3613  0DE6  00A0               	movwf	??___fladd
  3614  0DE7  0820               	movf	??___fladd,w
  3615  0DE8  00FB               	movwf	___fladd@grs
  3616  0DE9                     l1961:	
  3617  0DE9  0874               	movf	___fladd@a,w
  3618  0DEA  00A0               	movwf	??___fladd
  3619  0DEB  0820               	movf	??___fladd,w
  3620  0DEC  00F0               	movwf	___fladd@b
  3621  0DED                     l1963:	
  3622  0DED  087B               	movf	___fladd@grs,w
  3623  0DEE  00A0               	movwf	??___fladd
  3624  0DEF  0820               	movf	??___fladd,w
  3625  0DF0  00F4               	movwf	___fladd@a
  3626  0DF1                     l1965:	
  3627  0DF1  0871               	movf	___fladd@b+1,w
  3628  0DF2  00A0               	movwf	??___fladd
  3629  0DF3  0820               	movf	??___fladd,w
  3630  0DF4  00FB               	movwf	___fladd@grs
  3631  0DF5                     l1967:	
  3632  0DF5  0875               	movf	___fladd@a+1,w
  3633  0DF6  00A0               	movwf	??___fladd
  3634  0DF7  0820               	movf	??___fladd,w
  3635  0DF8  00F1               	movwf	___fladd@b+1
  3636  0DF9                     l1969:	
  3637  0DF9  087B               	movf	___fladd@grs,w
  3638  0DFA  00A0               	movwf	??___fladd
  3639  0DFB  0820               	movf	??___fladd,w
  3640  0DFC  00F5               	movwf	___fladd@a+1
  3641  0DFD                     l1971:	
  3642  0DFD  0872               	movf	___fladd@b+2,w
  3643  0DFE  00A0               	movwf	??___fladd
  3644  0DFF  0820               	movf	??___fladd,w
  3645  0E00  00FB               	movwf	___fladd@grs
  3646  0E01                     l1973:	
  3647  0E01  0876               	movf	___fladd@a+2,w
  3648  0E02  00A0               	movwf	??___fladd
  3649  0E03  0820               	movf	??___fladd,w
  3650  0E04  00F2               	movwf	___fladd@b+2
  3651  0E05                     l1975:	
  3652  0E05  087B               	movf	___fladd@grs,w
  3653  0E06  00A0               	movwf	??___fladd
  3654  0E07  0820               	movf	??___fladd,w
  3655  0E08  00F6               	movwf	___fladd@a+2
  3656  0E09                     l1977:	
  3657  0E09  0873               	movf	___fladd@b+3,w
  3658  0E0A  00A0               	movwf	??___fladd
  3659  0E0B  0820               	movf	??___fladd,w
  3660  0E0C  00FB               	movwf	___fladd@grs
  3661  0E0D                     l1979:	
  3662  0E0D  0877               	movf	___fladd@a+3,w
  3663  0E0E  00A0               	movwf	??___fladd
  3664  0E0F  0820               	movf	??___fladd,w
  3665  0E10  00F3               	movwf	___fladd@b+3
  3666  0E11                     l1981:	
  3667  0E11  087B               	movf	___fladd@grs,w
  3668  0E12  00A0               	movwf	??___fladd
  3669  0E13  0820               	movf	??___fladd,w
  3670  0E14  00F7               	movwf	___fladd@a+3
  3671  0E15                     l1983:	
  3672  0E15  01FB               	clrf	___fladd@grs
  3673  0E16                     l1985:	
  3674  0E16  0879               	movf	___fladd@aexp,w
  3675  0E17  00A0               	movwf	??___fladd
  3676  0E18  01A1               	clrf	??___fladd+1
  3677  0E19  0821               	movf	??___fladd+1,w
  3678  0E1A  00A3               	movwf	??___fladd+3
  3679  0E1B  087A               	movf	___fladd@bexp,w
  3680  0E1C  0220               	subwf	??___fladd,w
  3681  0E1D  00A2               	movwf	??___fladd+2
  3682  0E1E  1C03               	skipc
  3683  0E1F  03A3               	decf	??___fladd+3,f
  3684  0E20  0823               	movf	??___fladd+3,w
  3685  0E21  3A80               	xorlw	128
  3686  0E22  00FF               	movwf	btemp+1
  3687  0E23  3080               	movlw	128
  3688  0E24  027F               	subwf	btemp+1,w
  3689  0E25  1D03               	skipz
  3690  0E26  2E29               	goto	u2185
  3691  0E27  301A               	movlw	26
  3692  0E28  0222               	subwf	??___fladd+2,w
  3693  0E29                     u2185:	
  3694  0E29  1C03               	skipc
  3695  0E2A  2E2C               	goto	u2181
  3696  0E2B  2E2D               	goto	u2180
  3697  0E2C                     u2181:	
  3698  0E2C  2E6E               	goto	l2001
  3699  0E2D                     u2180:	
  3700  0E2D                     l1987:	
  3701  0E2D  0873               	movf	___fladd@b+3,w
  3702  0E2E  0472               	iorwf	___fladd@b+2,w
  3703  0E2F  0471               	iorwf	___fladd@b+1,w
  3704  0E30  0470               	iorwf	___fladd@b,w
  3705  0E31  1D03               	skipz
  3706  0E32  2E34               	goto	u2191
  3707  0E33  2E36               	goto	u2190
  3708  0E34                     u2191:	
  3709  0E34  3001               	movlw	1
  3710  0E35  2E37               	goto	u2200
  3711  0E36                     u2190:	
  3712  0E36  3000               	movlw	0
  3713  0E37                     u2200:	
  3714  0E37  1283               	bcf	3,5	;RP0=0, select bank0
  3715  0E38  1303               	bcf	3,6	;RP1=0, select bank0
  3716  0E39  00A0               	movwf	??___fladd
  3717  0E3A  0820               	movf	??___fladd,w
  3718  0E3B  00FB               	movwf	___fladd@grs
  3719  0E3C  3000               	movlw	0
  3720  0E3D  00F3               	movwf	___fladd@b+3
  3721  0E3E  3000               	movlw	0
  3722  0E3F  00F2               	movwf	___fladd@b+2
  3723  0E40  3000               	movlw	0
  3724  0E41  00F1               	movwf	___fladd@b+1
  3725  0E42  3000               	movlw	0
  3726  0E43  00F0               	movwf	___fladd@b
  3727  0E44  0879               	movf	___fladd@aexp,w
  3728  0E45  00A0               	movwf	??___fladd
  3729  0E46  0820               	movf	??___fladd,w
  3730  0E47  00FA               	movwf	___fladd@bexp
  3731  0E48  2E74               	goto	l586
  3732  0E49                     l588:	
  3733  0E49  1C7B               	btfss	___fladd@grs,0
  3734  0E4A  2E4C               	goto	u2211
  3735  0E4B  2E4D               	goto	u2210
  3736  0E4C                     u2211:	
  3737  0E4C  2E58               	goto	l1991
  3738  0E4D                     u2210:	
  3739  0E4D                     l1989:	
  3740  0E4D  087B               	movf	___fladd@grs,w
  3741  0E4E  1283               	bcf	3,5	;RP0=0, select bank0
  3742  0E4F  1303               	bcf	3,6	;RP1=0, select bank0
  3743  0E50  00A0               	movwf	??___fladd
  3744  0E51  1003               	clrc
  3745  0E52  0C20               	rrf	??___fladd,w
  3746  0E53  3801               	iorlw	1
  3747  0E54  00A1               	movwf	??___fladd+1
  3748  0E55  0821               	movf	??___fladd+1,w
  3749  0E56  00FB               	movwf	___fladd@grs
  3750  0E57  2E5A               	goto	l1993
  3751  0E58                     l1991:	
  3752  0E58  1003               	clrc
  3753  0E59  0CFB               	rrf	___fladd@grs,f
  3754  0E5A                     l1993:	
  3755  0E5A  1C70               	btfss	___fladd@b,0
  3756  0E5B  2E5D               	goto	u2221
  3757  0E5C  2E5E               	goto	u2220
  3758  0E5D                     u2221:	
  3759  0E5D  2E5F               	goto	l1997
  3760  0E5E                     u2220:	
  3761  0E5E                     l1995:	
  3762  0E5E  17FB               	bsf	___fladd@grs,7
  3763  0E5F                     l1997:	
  3764  0E5F  3001               	movlw	1
  3765  0E60  1283               	bcf	3,5	;RP0=0, select bank0
  3766  0E61  1303               	bcf	3,6	;RP1=0, select bank0
  3767  0E62  00A0               	movwf	??___fladd
  3768  0E63                     u2235:	
  3769  0E63  0D73               	rlf	___fladd@b+3,w
  3770  0E64  0CF3               	rrf	___fladd@b+3,f
  3771  0E65  0CF2               	rrf	___fladd@b+2,f
  3772  0E66  0CF1               	rrf	___fladd@b+1,f
  3773  0E67  0CF0               	rrf	___fladd@b,f
  3774  0E68  0BA0               	decfsz	??___fladd& (0+127),f
  3775  0E69  2E63               	goto	u2235
  3776  0E6A                     l1999:	
  3777  0E6A  3001               	movlw	1
  3778  0E6B  00A0               	movwf	??___fladd
  3779  0E6C  0820               	movf	??___fladd,w
  3780  0E6D  07FA               	addwf	___fladd@bexp,f
  3781  0E6E                     l2001:	
  3782  0E6E  0879               	movf	___fladd@aexp,w
  3783  0E6F  027A               	subwf	___fladd@bexp,w
  3784  0E70  1C03               	skipc
  3785  0E71  2E73               	goto	u2241
  3786  0E72  2E74               	goto	u2240
  3787  0E73                     u2241:	
  3788  0E73  2E49               	goto	l588
  3789  0E74                     u2240:	
  3790  0E74                     l586:	
  3791  0E74  1B78               	btfsc	___fladd@signs,6
  3792  0E75  2E77               	goto	u2251
  3793  0E76  2E78               	goto	u2250
  3794  0E77                     u2251:	
  3795  0E77  2EC7               	goto	l2027
  3796  0E78                     u2250:	
  3797  0E78                     l2003:	
  3798  0E78  087A               	movf	___fladd@bexp,w
  3799  0E79  1D03               	btfss	3,2
  3800  0E7A  2E7C               	goto	u2261
  3801  0E7B  2E7D               	goto	u2260
  3802  0E7C                     u2261:	
  3803  0E7C  2E86               	goto	l2009
  3804  0E7D                     u2260:	
  3805  0E7D                     l2005:	
  3806  0E7D  3000               	movlw	0
  3807  0E7E  00F3               	movwf	?___fladd+3
  3808  0E7F  3000               	movlw	0
  3809  0E80  00F2               	movwf	?___fladd+2
  3810  0E81  3000               	movlw	0
  3811  0E82  00F1               	movwf	?___fladd+1
  3812  0E83  3000               	movlw	0
  3813  0E84  00F0               	movwf	?___fladd
  3814  0E85  2FFF               	goto	l595
  3815  0E86                     l2009:	
  3816  0E86  0874               	movf	___fladd@a,w
  3817  0E87  07F0               	addwf	___fladd@b,f
  3818  0E88  0875               	movf	___fladd@a+1,w
  3819  0E89  1103               	clrz
  3820  0E8A  1803               	skipnc
  3821  0E8B  3E01               	addlw	1
  3822  0E8C  1903               	skipnz
  3823  0E8D  2E8F               	goto	u2271
  3824  0E8E  07F1               	addwf	___fladd@b+1,f
  3825  0E8F                     u2271:	
  3826  0E8F  0876               	movf	___fladd@a+2,w
  3827  0E90  1103               	clrz
  3828  0E91  1803               	skipnc
  3829  0E92  3E01               	addlw	1
  3830  0E93  1903               	skipnz
  3831  0E94  2E96               	goto	u2272
  3832  0E95  07F2               	addwf	___fladd@b+2,f
  3833  0E96                     u2272:	
  3834  0E96  0877               	movf	___fladd@a+3,w
  3835  0E97  1103               	clrz
  3836  0E98  1803               	skipnc
  3837  0E99  3E01               	addlw	1
  3838  0E9A  1903               	skipnz
  3839  0E9B  2E9D               	goto	u2273
  3840  0E9C  07F3               	addwf	___fladd@b+3,f
  3841  0E9D                     u2273:	
  3842  0E9D                     l2011:	
  3843  0E9D  1C73               	btfss	___fladd@b+3,0
  3844  0E9E  2EA0               	goto	u2281
  3845  0E9F  2EA1               	goto	u2280
  3846  0EA0                     u2281:	
  3847  0EA0  2F7F               	goto	l2061
  3848  0EA1                     u2280:	
  3849  0EA1                     l2013:	
  3850  0EA1  1C7B               	btfss	___fladd@grs,0
  3851  0EA2  2EA4               	goto	u2291
  3852  0EA3  2EA5               	goto	u2290
  3853  0EA4                     u2291:	
  3854  0EA4  2EB0               	goto	l2017
  3855  0EA5                     u2290:	
  3856  0EA5                     l2015:	
  3857  0EA5  087B               	movf	___fladd@grs,w
  3858  0EA6  1283               	bcf	3,5	;RP0=0, select bank0
  3859  0EA7  1303               	bcf	3,6	;RP1=0, select bank0
  3860  0EA8  00A0               	movwf	??___fladd
  3861  0EA9  1003               	clrc
  3862  0EAA  0C20               	rrf	??___fladd,w
  3863  0EAB  3801               	iorlw	1
  3864  0EAC  00A1               	movwf	??___fladd+1
  3865  0EAD  0821               	movf	??___fladd+1,w
  3866  0EAE  00FB               	movwf	___fladd@grs
  3867  0EAF  2EB2               	goto	l2019
  3868  0EB0                     l2017:	
  3869  0EB0  1003               	clrc
  3870  0EB1  0CFB               	rrf	___fladd@grs,f
  3871  0EB2                     l2019:	
  3872  0EB2  1C70               	btfss	___fladd@b,0
  3873  0EB3  2EB5               	goto	u2301
  3874  0EB4  2EB6               	goto	u2300
  3875  0EB5                     u2301:	
  3876  0EB5  2EB7               	goto	l2023
  3877  0EB6                     u2300:	
  3878  0EB6                     l2021:	
  3879  0EB6  17FB               	bsf	___fladd@grs,7
  3880  0EB7                     l2023:	
  3881  0EB7  3001               	movlw	1
  3882  0EB8  1283               	bcf	3,5	;RP0=0, select bank0
  3883  0EB9  1303               	bcf	3,6	;RP1=0, select bank0
  3884  0EBA  00A0               	movwf	??___fladd
  3885  0EBB                     u2315:	
  3886  0EBB  0D73               	rlf	___fladd@b+3,w
  3887  0EBC  0CF3               	rrf	___fladd@b+3,f
  3888  0EBD  0CF2               	rrf	___fladd@b+2,f
  3889  0EBE  0CF1               	rrf	___fladd@b+1,f
  3890  0EBF  0CF0               	rrf	___fladd@b,f
  3891  0EC0  0BA0               	decfsz	??___fladd& (0+127),f
  3892  0EC1  2EBB               	goto	u2315
  3893  0EC2                     l2025:	
  3894  0EC2  3001               	movlw	1
  3895  0EC3  00A0               	movwf	??___fladd
  3896  0EC4  0820               	movf	??___fladd,w
  3897  0EC5  07FA               	addwf	___fladd@bexp,f
  3898  0EC6  2F7F               	goto	l2061
  3899  0EC7                     l2027:	
  3900  0EC7  0873               	movf	___fladd@b+3,w
  3901  0EC8  3A80               	xorlw	128
  3902  0EC9  00FF               	movwf	btemp+1
  3903  0ECA  0877               	movf	___fladd@a+3,w
  3904  0ECB  3A80               	xorlw	128
  3905  0ECC  027F               	subwf	btemp+1,w
  3906  0ECD  1D03               	skipz
  3907  0ECE  2ED9               	goto	u2323
  3908  0ECF  0876               	movf	___fladd@a+2,w
  3909  0ED0  0272               	subwf	___fladd@b+2,w
  3910  0ED1  1D03               	skipz
  3911  0ED2  2ED9               	goto	u2323
  3912  0ED3  0875               	movf	___fladd@a+1,w
  3913  0ED4  0271               	subwf	___fladd@b+1,w
  3914  0ED5  1D03               	skipz
  3915  0ED6  2ED9               	goto	u2323
  3916  0ED7  0874               	movf	___fladd@a,w
  3917  0ED8  0270               	subwf	___fladd@b,w
  3918  0ED9                     u2323:	
  3919  0ED9  1803               	skipnc
  3920  0EDA  2EDC               	goto	u2321
  3921  0EDB  2EDD               	goto	u2320
  3922  0EDC                     u2321:	
  3923  0EDC  2F37               	goto	l2037
  3924  0EDD                     u2320:	
  3925  0EDD                     l2029:	
  3926  0EDD  30FF               	movlw	255
  3927  0EDE  1283               	bcf	3,5	;RP0=0, select bank0
  3928  0EDF  1303               	bcf	3,6	;RP1=0, select bank0
  3929  0EE0  00A0               	movwf	??___fladd
  3930  0EE1  30FF               	movlw	255
  3931  0EE2  00A1               	movwf	??___fladd+1
  3932  0EE3  30FF               	movlw	255
  3933  0EE4  00A2               	movwf	??___fladd+2
  3934  0EE5  30FF               	movlw	255
  3935  0EE6  00A3               	movwf	??___fladd+3
  3936  0EE7  0874               	movf	___fladd@a,w
  3937  0EE8  00A4               	movwf	??___fladd+4
  3938  0EE9  0875               	movf	___fladd@a+1,w
  3939  0EEA  00A5               	movwf	??___fladd+5
  3940  0EEB  0876               	movf	___fladd@a+2,w
  3941  0EEC  00A6               	movwf	??___fladd+6
  3942  0EED  0877               	movf	___fladd@a+3,w
  3943  0EEE  00A7               	movwf	??___fladd+7
  3944  0EEF  0870               	movf	___fladd@b,w
  3945  0EF0  02A4               	subwf	??___fladd+4,f
  3946  0EF1  0871               	movf	___fladd@b+1,w
  3947  0EF2  1C03               	skipc
  3948  0EF3  0F71               	incfsz	___fladd@b+1,w
  3949  0EF4  2EF6               	goto	u2331
  3950  0EF5  2EF7               	goto	u2332
  3951  0EF6                     u2331:	
  3952  0EF6  02A5               	subwf	??___fladd+5,f
  3953  0EF7                     u2332:	
  3954  0EF7  0872               	movf	___fladd@b+2,w
  3955  0EF8  1C03               	skipc
  3956  0EF9  0F72               	incfsz	___fladd@b+2,w
  3957  0EFA  2EFC               	goto	u2333
  3958  0EFB  2EFD               	goto	u2334
  3959  0EFC                     u2333:	
  3960  0EFC  02A6               	subwf	??___fladd+6,f
  3961  0EFD                     u2334:	
  3962  0EFD  0873               	movf	___fladd@b+3,w
  3963  0EFE  1C03               	skipc
  3964  0EFF  0F73               	incfsz	___fladd@b+3,w
  3965  0F00  2F02               	goto	u2335
  3966  0F01  2F03               	goto	u2336
  3967  0F02                     u2335:	
  3968  0F02  02A7               	subwf	??___fladd+7,f
  3969  0F03                     u2336:	
  3970  0F03  0824               	movf	??___fladd+4,w
  3971  0F04  07A0               	addwf	??___fladd,f
  3972  0F05  0825               	movf	??___fladd+5,w
  3973  0F06  1803               	skipnc
  3974  0F07  0F25               	incfsz	??___fladd+5,w
  3975  0F08  2F0A               	goto	u2340
  3976  0F09  2F0B               	goto	u2341
  3977  0F0A                     u2340:	
  3978  0F0A  07A1               	addwf	??___fladd+1,f
  3979  0F0B                     u2341:	
  3980  0F0B  0826               	movf	??___fladd+6,w
  3981  0F0C  1803               	skipnc
  3982  0F0D  0F26               	incfsz	??___fladd+6,w
  3983  0F0E  2F10               	goto	u2342
  3984  0F0F  2F11               	goto	u2343
  3985  0F10                     u2342:	
  3986  0F10  07A2               	addwf	??___fladd+2,f
  3987  0F11                     u2343:	
  3988  0F11  0827               	movf	??___fladd+7,w
  3989  0F12  1803               	skipnc
  3990  0F13  0A27               	incf	??___fladd+7,w
  3991  0F14  07A3               	addwf	??___fladd+3,f
  3992  0F15  0823               	movf	??___fladd+3,w
  3993  0F16  00F3               	movwf	___fladd@b+3
  3994  0F17  0822               	movf	??___fladd+2,w
  3995  0F18  00F2               	movwf	___fladd@b+2
  3996  0F19  0821               	movf	??___fladd+1,w
  3997  0F1A  00F1               	movwf	___fladd@b+1
  3998  0F1B  0820               	movf	??___fladd,w
  3999  0F1C  00F0               	movwf	___fladd@b
  4000  0F1D                     l2031:	
  4001  0F1D  3080               	movlw	128
  4002  0F1E  00A0               	movwf	??___fladd
  4003  0F1F  0820               	movf	??___fladd,w
  4004  0F20  06F8               	xorwf	___fladd@signs,f
  4005  0F21  09FB               	comf	___fladd@grs,f
  4006  0F22  0AFB               	incf	___fladd@grs,f
  4007  0F23                     l2033:	
  4008  0F23  087B               	movf	___fladd@grs,w
  4009  0F24  1D03               	btfss	3,2
  4010  0F25  2F27               	goto	u2351
  4011  0F26  2F28               	goto	u2350
  4012  0F27                     u2351:	
  4013  0F27  2F45               	goto	l603
  4014  0F28                     u2350:	
  4015  0F28                     l2035:	
  4016  0F28  3001               	movlw	1
  4017  0F29  07F0               	addwf	___fladd@b,f
  4018  0F2A  3000               	movlw	0
  4019  0F2B  1803               	skipnc
  4020  0F2C  3001               	movlw	1
  4021  0F2D  07F1               	addwf	___fladd@b+1,f
  4022  0F2E  3000               	movlw	0
  4023  0F2F  1803               	skipnc
  4024  0F30  3001               	movlw	1
  4025  0F31  07F2               	addwf	___fladd@b+2,f
  4026  0F32  3000               	movlw	0
  4027  0F33  1803               	skipnc
  4028  0F34  3001               	movlw	1
  4029  0F35  07F3               	addwf	___fladd@b+3,f
  4030  0F36  2F45               	goto	l603
  4031  0F37                     l2037:	
  4032  0F37  0874               	movf	___fladd@a,w
  4033  0F38  02F0               	subwf	___fladd@b,f
  4034  0F39  0875               	movf	___fladd@a+1,w
  4035  0F3A  1C03               	skipc
  4036  0F3B  0F75               	incfsz	___fladd@a+1,w
  4037  0F3C  02F1               	subwf	___fladd@b+1,f
  4038  0F3D  0876               	movf	___fladd@a+2,w
  4039  0F3E  1C03               	skipc
  4040  0F3F  0F76               	incfsz	___fladd@a+2,w
  4041  0F40  02F2               	subwf	___fladd@b+2,f
  4042  0F41  0877               	movf	___fladd@a+3,w
  4043  0F42  1C03               	skipc
  4044  0F43  0F77               	incfsz	___fladd@a+3,w
  4045  0F44  02F3               	subwf	___fladd@b+3,f
  4046  0F45                     l603:	
  4047  0F45  0873               	movf	___fladd@b+3,w
  4048  0F46  0472               	iorwf	___fladd@b+2,w
  4049  0F47  0471               	iorwf	___fladd@b+1,w
  4050  0F48  0470               	iorwf	___fladd@b,w
  4051  0F49  1D03               	skipz
  4052  0F4A  2F4C               	goto	u2361
  4053  0F4B  2F4D               	goto	u2360
  4054  0F4C                     u2361:	
  4055  0F4C  2F7B               	goto	l2059
  4056  0F4D                     u2360:	
  4057  0F4D                     l2039:	
  4058  0F4D  087B               	movf	___fladd@grs,w
  4059  0F4E  1D03               	btfss	3,2
  4060  0F4F  2F51               	goto	u2371
  4061  0F50  2F52               	goto	u2370
  4062  0F51                     u2371:	
  4063  0F51  2F7B               	goto	l2059
  4064  0F52                     u2370:	
  4065  0F52                     l2041:	
  4066  0F52  3000               	movlw	0
  4067  0F53  00F3               	movwf	?___fladd+3
  4068  0F54  3000               	movlw	0
  4069  0F55  00F2               	movwf	?___fladd+2
  4070  0F56  3000               	movlw	0
  4071  0F57  00F1               	movwf	?___fladd+1
  4072  0F58  3000               	movlw	0
  4073  0F59  00F0               	movwf	?___fladd
  4074  0F5A  2FFF               	goto	l595
  4075  0F5B                     l2045:	
  4076  0F5B  3001               	movlw	1
  4077  0F5C  1283               	bcf	3,5	;RP0=0, select bank0
  4078  0F5D  1303               	bcf	3,6	;RP1=0, select bank0
  4079  0F5E  00A0               	movwf	??___fladd
  4080  0F5F                     u2385:	
  4081  0F5F  1003               	clrc
  4082  0F60  0DF0               	rlf	___fladd@b,f
  4083  0F61  0DF1               	rlf	___fladd@b+1,f
  4084  0F62  0DF2               	rlf	___fladd@b+2,f
  4085  0F63  0DF3               	rlf	___fladd@b+3,f
  4086  0F64  0BA0               	decfsz	??___fladd,f
  4087  0F65  2F5F               	goto	u2385
  4088  0F66                     l2047:	
  4089  0F66  1FFB               	btfss	___fladd@grs,7
  4090  0F67  2F69               	goto	u2391
  4091  0F68  2F6A               	goto	u2390
  4092  0F69                     u2391:	
  4093  0F69  2F6B               	goto	l607
  4094  0F6A                     u2390:	
  4095  0F6A                     l2049:	
  4096  0F6A  1470               	bsf	___fladd@b,0
  4097  0F6B                     l607:	
  4098  0F6B  1C7B               	btfss	___fladd@grs,0
  4099  0F6C  2F6E               	goto	u2401
  4100  0F6D  2F6F               	goto	u2400
  4101  0F6E                     u2401:	
  4102  0F6E  2F72               	goto	l2053
  4103  0F6F                     u2400:	
  4104  0F6F                     l2051:	
  4105  0F6F  1403               	setc
  4106  0F70  0DFB               	rlf	___fladd@grs,f
  4107  0F71  2F74               	goto	l2055
  4108  0F72                     l2053:	
  4109  0F72  1003               	clrc
  4110  0F73  0DFB               	rlf	___fladd@grs,f
  4111  0F74                     l2055:	
  4112  0F74  087A               	movf	___fladd@bexp,w
  4113  0F75  1903               	btfsc	3,2
  4114  0F76  2F78               	goto	u2411
  4115  0F77  2F79               	goto	u2410
  4116  0F78                     u2411:	
  4117  0F78  2F7B               	goto	l2059
  4118  0F79                     u2410:	
  4119  0F79                     l2057:	
  4120  0F79  3001               	movlw	1
  4121  0F7A  02FA               	subwf	___fladd@bexp,f
  4122  0F7B                     l2059:	
  4123  0F7B  1FF2               	btfss	___fladd@b+2,7
  4124  0F7C  2F7E               	goto	u2421
  4125  0F7D  2F7F               	goto	u2420
  4126  0F7E                     u2421:	
  4127  0F7E  2F5B               	goto	l2045
  4128  0F7F                     u2420:	
  4129  0F7F                     l2061:	
  4130  0F7F  01F9               	clrf	___fladd@aexp
  4131  0F80                     l2063:	
  4132  0F80  1FFB               	btfss	___fladd@grs,7
  4133  0F81  2F83               	goto	u2431
  4134  0F82  2F84               	goto	u2430
  4135  0F83                     u2431:	
  4136  0F83  2F92               	goto	l2071
  4137  0F84                     u2430:	
  4138  0F84                     l2065:	
  4139  0F84  087B               	movf	___fladd@grs,w
  4140  0F85  397F               	andlw	127
  4141  0F86  1903               	btfsc	3,2
  4142  0F87  2F89               	goto	u2441
  4143  0F88  2F8A               	goto	u2440
  4144  0F89                     u2441:	
  4145  0F89  2F8D               	goto	l613
  4146  0F8A                     u2440:	
  4147  0F8A                     l2067:	
  4148  0F8A  01F9               	clrf	___fladd@aexp
  4149  0F8B  0AF9               	incf	___fladd@aexp,f
  4150  0F8C  2F92               	goto	l2071
  4151  0F8D                     l613:	
  4152  0F8D  1C70               	btfss	___fladd@b,0
  4153  0F8E  2F90               	goto	u2451
  4154  0F8F  2F91               	goto	u2450
  4155  0F90                     u2451:	
  4156  0F90  2F92               	goto	l2071
  4157  0F91                     u2450:	
  4158  0F91  2F8A               	goto	l2067
  4159  0F92                     l2071:	
  4160  0F92  0879               	movf	___fladd@aexp,w
  4161  0F93  1903               	btfsc	3,2
  4162  0F94  2F96               	goto	u2461
  4163  0F95  2F97               	goto	u2460
  4164  0F96                     u2461:	
  4165  0F96  2FCD               	goto	l616
  4166  0F97                     u2460:	
  4167  0F97                     l2073:	
  4168  0F97  3001               	movlw	1
  4169  0F98  07F0               	addwf	___fladd@b,f
  4170  0F99  3000               	movlw	0
  4171  0F9A  1803               	skipnc
  4172  0F9B  3001               	movlw	1
  4173  0F9C  07F1               	addwf	___fladd@b+1,f
  4174  0F9D  3000               	movlw	0
  4175  0F9E  1803               	skipnc
  4176  0F9F  3001               	movlw	1
  4177  0FA0  07F2               	addwf	___fladd@b+2,f
  4178  0FA1  3000               	movlw	0
  4179  0FA2  1803               	skipnc
  4180  0FA3  3001               	movlw	1
  4181  0FA4  07F3               	addwf	___fladd@b+3,f
  4182  0FA5                     l2075:	
  4183  0FA5  1C73               	btfss	___fladd@b+3,0
  4184  0FA6  2FA8               	goto	u2471
  4185  0FA7  2FA9               	goto	u2470
  4186  0FA8                     u2471:	
  4187  0FA8  2FCD               	goto	l616
  4188  0FA9                     u2470:	
  4189  0FA9                     l2077:	
  4190  0FA9  0870               	movf	___fladd@b,w
  4191  0FAA  1283               	bcf	3,5	;RP0=0, select bank0
  4192  0FAB  1303               	bcf	3,6	;RP1=0, select bank0
  4193  0FAC  00A0               	movwf	??___fladd
  4194  0FAD  0871               	movf	___fladd@b+1,w
  4195  0FAE  00A1               	movwf	??___fladd+1
  4196  0FAF  0872               	movf	___fladd@b+2,w
  4197  0FB0  00A2               	movwf	??___fladd+2
  4198  0FB1  0873               	movf	___fladd@b+3,w
  4199  0FB2  00A3               	movwf	??___fladd+3
  4200  0FB3  3001               	movlw	1
  4201  0FB4  00A4               	movwf	??___fladd+4
  4202  0FB5                     u2485:	
  4203  0FB5  0D23               	rlf	??___fladd+3,w
  4204  0FB6  0CA3               	rrf	??___fladd+3,f
  4205  0FB7  0CA2               	rrf	??___fladd+2,f
  4206  0FB8  0CA1               	rrf	??___fladd+1,f
  4207  0FB9  0CA0               	rrf	??___fladd,f
  4208  0FBA                     u2480:	
  4209  0FBA  0BA4               	decfsz	??___fladd+4,f
  4210  0FBB  2FB5               	goto	u2485
  4211  0FBC  0823               	movf	??___fladd+3,w
  4212  0FBD  00F3               	movwf	___fladd@b+3
  4213  0FBE  0822               	movf	??___fladd+2,w
  4214  0FBF  00F2               	movwf	___fladd@b+2
  4215  0FC0  0821               	movf	??___fladd+1,w
  4216  0FC1  00F1               	movwf	___fladd@b+1
  4217  0FC2  0820               	movf	??___fladd,w
  4218  0FC3  00F0               	movwf	___fladd@b
  4219  0FC4  0A7A               	incf	___fladd@bexp,w
  4220  0FC5  1903               	btfsc	3,2
  4221  0FC6  2FC8               	goto	u2491
  4222  0FC7  2FC9               	goto	u2490
  4223  0FC8                     u2491:	
  4224  0FC8  2FCD               	goto	l616
  4225  0FC9                     u2490:	
  4226  0FC9                     l2079:	
  4227  0FC9  3001               	movlw	1
  4228  0FCA  00A0               	movwf	??___fladd
  4229  0FCB  0820               	movf	??___fladd,w
  4230  0FCC  07FA               	addwf	___fladd@bexp,f
  4231  0FCD                     l616:	
  4232  0FCD  0A7A               	incf	___fladd@bexp,w
  4233  0FCE  1903               	btfsc	3,2
  4234  0FCF  2FD1               	goto	u2501
  4235  0FD0  2FD2               	goto	u2500
  4236  0FD1                     u2501:	
  4237  0FD1  2FD7               	goto	l2083
  4238  0FD2                     u2500:	
  4239  0FD2                     l2081:	
  4240  0FD2  087A               	movf	___fladd@bexp,w
  4241  0FD3  1D03               	btfss	3,2
  4242  0FD4  2FD6               	goto	u2511
  4243  0FD5  2FD7               	goto	u2510
  4244  0FD6                     u2511:	
  4245  0FD6  2FE5               	goto	l2089
  4246  0FD7                     u2510:	
  4247  0FD7                     l2083:	
  4248  0FD7  3000               	movlw	0
  4249  0FD8  00F3               	movwf	___fladd@b+3
  4250  0FD9  3000               	movlw	0
  4251  0FDA  00F2               	movwf	___fladd@b+2
  4252  0FDB  3000               	movlw	0
  4253  0FDC  00F1               	movwf	___fladd@b+1
  4254  0FDD  3000               	movlw	0
  4255  0FDE  00F0               	movwf	___fladd@b
  4256  0FDF                     l2085:	
  4257  0FDF  087A               	movf	___fladd@bexp,w
  4258  0FE0  1D03               	btfss	3,2
  4259  0FE1  2FE3               	goto	u2521
  4260  0FE2  2FE4               	goto	u2520
  4261  0FE3                     u2521:	
  4262  0FE3  2FE5               	goto	l2089
  4263  0FE4                     u2520:	
  4264  0FE4                     l2087:	
  4265  0FE4  01F8               	clrf	___fladd@signs
  4266  0FE5                     l2089:	
  4267  0FE5  1C7A               	btfss	___fladd@bexp,0
  4268  0FE6  2FE8               	goto	u2531
  4269  0FE7  2FE9               	goto	u2530
  4270  0FE8                     u2531:	
  4271  0FE8  2FEB               	goto	l2093
  4272  0FE9                     u2530:	
  4273  0FE9                     l2091:	
  4274  0FE9  17F2               	bsf	___fladd@b+2,7
  4275  0FEA  2FF1               	goto	l624
  4276  0FEB                     l2093:	
  4277  0FEB  307F               	movlw	127
  4278  0FEC  1283               	bcf	3,5	;RP0=0, select bank0
  4279  0FED  1303               	bcf	3,6	;RP1=0, select bank0
  4280  0FEE  00A0               	movwf	??___fladd
  4281  0FEF  0820               	movf	??___fladd,w
  4282  0FF0  05F2               	andwf	___fladd@b+2,f
  4283  0FF1                     l624:	
  4284  0FF1  087A               	movf	___fladd@bexp,w
  4285  0FF2  1283               	bcf	3,5	;RP0=0, select bank0
  4286  0FF3  1303               	bcf	3,6	;RP1=0, select bank0
  4287  0FF4  00A0               	movwf	??___fladd
  4288  0FF5  1003               	clrc
  4289  0FF6  0C20               	rrf	??___fladd,w
  4290  0FF7  00A1               	movwf	??___fladd+1
  4291  0FF8  0821               	movf	??___fladd+1,w
  4292  0FF9  00F3               	movwf	___fladd@b+3
  4293  0FFA                     l2095:	
  4294  0FFA  1FF8               	btfss	___fladd@signs,7
  4295  0FFB  2FFD               	goto	u2541
  4296  0FFC  2FFE               	goto	u2540
  4297  0FFD                     u2541:	
  4298  0FFD  2FFF               	goto	l625
  4299  0FFE                     u2540:	
  4300  0FFE                     l2097:	
  4301  0FFE  17F3               	bsf	___fladd@b+3,7
  4302  0FFF                     l625:	
  4303  0FFF                     l595:	
  4304  0FFF  0008               	return
  4305  1000                     __end_of___fladd:	
  4306                           
  4307                           	psect	text11
  4308  0105                     __ptext11:	
  4309 ;; *************** function ___flmul *****************
  4310 ;; Defined at:
  4311 ;;		line 8 in file "C:\Program Files (x86)\Microchip\xc8\v2.10\pic\sources\c90\common\sprcmul.c"
  4312 ;; Parameters:    Size  Location     Type
  4313 ;;  b               4   16[BANK0 ] unsigned char 
  4314 ;;  a               4   20[BANK0 ] unsigned char 
  4315 ;; Auto vars:     Size  Location     Type
  4316 ;;  prod            4   36[BANK0 ] struct .
  4317 ;;  grs             4   30[BANK0 ] unsigned long 
  4318 ;;  temp            2   40[BANK0 ] struct .
  4319 ;;  bexp            1   35[BANK0 ] unsigned char 
  4320 ;;  aexp            1   34[BANK0 ] unsigned char 
  4321 ;;  sign            1   29[BANK0 ] unsigned char 
  4322 ;; Return value:  Size  Location     Type
  4323 ;;                  4   16[BANK0 ] unsigned char 
  4324 ;; Registers used:
  4325 ;;		wreg, status,2, status,0, btemp+1, pclath, cstack
  4326 ;; Tracked objects:
  4327 ;;		On entry : 0/0
  4328 ;;		On exit  : 0/0
  4329 ;;		Unchanged: 0/0
  4330 ;; Data sizes:     COMMON   BANK0   BANK1   BANK3   BANK2
  4331 ;;      Params:         0       8       0       0       0
  4332 ;;      Locals:         0      13       0       0       0
  4333 ;;      Temps:          0       5       0       0       0
  4334 ;;      Totals:         0      26       0       0       0
  4335 ;;Total ram usage:       26 bytes
  4336 ;; Hardware stack levels used:    1
  4337 ;; Hardware stack levels required when called:    1
  4338 ;; This function calls:
  4339 ;;		__Umul8_16
  4340 ;; This function is called by:
  4341 ;;		_main
  4342 ;; This function uses a non-reentrant model
  4343 ;;
  4344                           
  4345                           
  4346                           ;psect for function ___flmul
  4347  0105                     ___flmul:	
  4348  0105                     l2431:	
  4349                           ;incstack = 0
  4350                           ; Regs used in ___flmul: [wreg+status,2+status,0+btemp+1+pclath+cstack]
  4351                           
  4352  0105  1283               	bcf	3,5	;RP0=0, select bank0
  4353  0106  1303               	bcf	3,6	;RP1=0, select bank0
  4354  0107  0833               	movf	___flmul@b+3,w
  4355  0108  3980               	andlw	128
  4356  0109  00B8               	movwf	??___flmul
  4357  010A  0838               	movf	??___flmul,w
  4358  010B  00BD               	movwf	___flmul@sign
  4359  010C                     l2433:	
  4360  010C  0833               	movf	___flmul@b+3,w
  4361  010D  00B8               	movwf	??___flmul
  4362  010E  0738               	addwf	??___flmul,w
  4363  010F  00B9               	movwf	??___flmul+1
  4364  0110  0839               	movf	??___flmul+1,w
  4365  0111  00C3               	movwf	___flmul@bexp
  4366  0112                     l2435:	
  4367  0112  1FB2               	btfss	___flmul@b+2,7
  4368  0113  2915               	goto	u3081
  4369  0114  2916               	goto	u3080
  4370  0115                     u3081:	
  4371  0115  2917               	goto	l2439
  4372  0116                     u3080:	
  4373  0116                     l2437:	
  4374  0116  1443               	bsf	___flmul@bexp,0
  4375  0117                     l2439:	
  4376  0117  0843               	movf	___flmul@bexp,w
  4377  0118  1903               	btfsc	3,2
  4378  0119  291B               	goto	u3091
  4379  011A  291C               	goto	u3090
  4380  011B                     u3091:	
  4381  011B  292B               	goto	l2447
  4382  011C                     u3090:	
  4383  011C                     l2441:	
  4384  011C  0A43               	incf	___flmul@bexp,w
  4385  011D  1D03               	btfss	3,2
  4386  011E  2920               	goto	u3101
  4387  011F  2921               	goto	u3100
  4388  0120                     u3101:	
  4389  0120  2929               	goto	l2445
  4390  0121                     u3100:	
  4391  0121                     l2443:	
  4392  0121  3000               	movlw	0
  4393  0122  00B3               	movwf	___flmul@b+3
  4394  0123  3000               	movlw	0
  4395  0124  00B2               	movwf	___flmul@b+2
  4396  0125  3000               	movlw	0
  4397  0126  00B1               	movwf	___flmul@b+1
  4398  0127  3000               	movlw	0
  4399  0128  00B0               	movwf	___flmul@b
  4400  0129                     l2445:	
  4401  0129  17B2               	bsf	___flmul@b+2,7
  4402  012A  2933               	goto	l2449
  4403  012B                     l2447:	
  4404  012B  3000               	movlw	0
  4405  012C  00B3               	movwf	___flmul@b+3
  4406  012D  3000               	movlw	0
  4407  012E  00B2               	movwf	___flmul@b+2
  4408  012F  3000               	movlw	0
  4409  0130  00B1               	movwf	___flmul@b+1
  4410  0131  3000               	movlw	0
  4411  0132  00B0               	movwf	___flmul@b
  4412  0133                     l2449:	
  4413  0133  0837               	movf	___flmul@a+3,w
  4414  0134  3980               	andlw	128
  4415  0135  00B8               	movwf	??___flmul
  4416  0136  0838               	movf	??___flmul,w
  4417  0137  06BD               	xorwf	___flmul@sign,f
  4418  0138                     l2451:	
  4419  0138  0837               	movf	___flmul@a+3,w
  4420  0139  00B8               	movwf	??___flmul
  4421  013A  0738               	addwf	??___flmul,w
  4422  013B  00B9               	movwf	??___flmul+1
  4423  013C  0839               	movf	??___flmul+1,w
  4424  013D  00C2               	movwf	___flmul@aexp
  4425  013E                     l2453:	
  4426  013E  1FB6               	btfss	___flmul@a+2,7
  4427  013F  2941               	goto	u3111
  4428  0140  2942               	goto	u3110
  4429  0141                     u3111:	
  4430  0141  2943               	goto	l2457
  4431  0142                     u3110:	
  4432  0142                     l2455:	
  4433  0142  1442               	bsf	___flmul@aexp,0
  4434  0143                     l2457:	
  4435  0143  0842               	movf	___flmul@aexp,w
  4436  0144  1903               	btfsc	3,2
  4437  0145  2947               	goto	u3121
  4438  0146  2948               	goto	u3120
  4439  0147                     u3121:	
  4440  0147  2957               	goto	l2465
  4441  0148                     u3120:	
  4442  0148                     l2459:	
  4443  0148  0A42               	incf	___flmul@aexp,w
  4444  0149  1D03               	btfss	3,2
  4445  014A  294C               	goto	u3131
  4446  014B  294D               	goto	u3130
  4447  014C                     u3131:	
  4448  014C  2955               	goto	l2463
  4449  014D                     u3130:	
  4450  014D                     l2461:	
  4451  014D  3000               	movlw	0
  4452  014E  00B7               	movwf	___flmul@a+3
  4453  014F  3000               	movlw	0
  4454  0150  00B6               	movwf	___flmul@a+2
  4455  0151  3000               	movlw	0
  4456  0152  00B5               	movwf	___flmul@a+1
  4457  0153  3000               	movlw	0
  4458  0154  00B4               	movwf	___flmul@a
  4459  0155                     l2463:	
  4460  0155  17B6               	bsf	___flmul@a+2,7
  4461  0156  295F               	goto	l2467
  4462  0157                     l2465:	
  4463  0157  3000               	movlw	0
  4464  0158  00B7               	movwf	___flmul@a+3
  4465  0159  3000               	movlw	0
  4466  015A  00B6               	movwf	___flmul@a+2
  4467  015B  3000               	movlw	0
  4468  015C  00B5               	movwf	___flmul@a+1
  4469  015D  3000               	movlw	0
  4470  015E  00B4               	movwf	___flmul@a
  4471  015F                     l2467:	
  4472  015F  0842               	movf	___flmul@aexp,w
  4473  0160  1903               	btfsc	3,2
  4474  0161  2963               	goto	u3141
  4475  0162  2964               	goto	u3140
  4476  0163                     u3141:	
  4477  0163  2969               	goto	l2471
  4478  0164                     u3140:	
  4479  0164                     l2469:	
  4480  0164  0843               	movf	___flmul@bexp,w
  4481  0165  1D03               	btfss	3,2
  4482  0166  2968               	goto	u3151
  4483  0167  2969               	goto	u3150
  4484  0168                     u3151:	
  4485  0168  2972               	goto	l2475
  4486  0169                     u3150:	
  4487  0169                     l2471:	
  4488  0169  3000               	movlw	0
  4489  016A  00B3               	movwf	?___flmul+3
  4490  016B  3000               	movlw	0
  4491  016C  00B2               	movwf	?___flmul+2
  4492  016D  3000               	movlw	0
  4493  016E  00B1               	movwf	?___flmul+1
  4494  016F  3000               	movlw	0
  4495  0170  00B0               	movwf	?___flmul
  4496  0171  2C65               	goto	l678
  4497  0172                     l2475:	
  4498  0172  0830               	movf	___flmul@b,w
  4499  0173  00B8               	movwf	??___flmul
  4500  0174  0838               	movf	??___flmul,w
  4501  0175  00F0               	movwf	__Umul8_16@multiplicand
  4502  0176  0836               	movf	___flmul@a+2,w
  4503  0177  120A  158A  2092  120A  118A  	fcall	__Umul8_16
  4504  017C  0871               	movf	?__Umul8_16+1,w
  4505  017D  1283               	bcf	3,5	;RP0=0, select bank0
  4506  017E  1303               	bcf	3,6	;RP1=0, select bank0
  4507  017F  00C9               	movwf	___flmul@temp+1
  4508  0180  0870               	movf	?__Umul8_16,w
  4509  0181  00C8               	movwf	___flmul@temp
  4510  0182                     l2477:	
  4511  0182  0848               	movf	___flmul@temp,w
  4512  0183  00B8               	movwf	??___flmul
  4513  0184  01B9               	clrf	??___flmul+1
  4514  0185  01BA               	clrf	??___flmul+2
  4515  0186  01BB               	clrf	??___flmul+3
  4516  0187  083B               	movf	??___flmul+3,w
  4517  0188  00C1               	movwf	___flmul@grs+3
  4518  0189  083A               	movf	??___flmul+2,w
  4519  018A  00C0               	movwf	___flmul@grs+2
  4520  018B  0839               	movf	??___flmul+1,w
  4521  018C  00BF               	movwf	___flmul@grs+1
  4522  018D  0838               	movf	??___flmul,w
  4523  018E  00BE               	movwf	___flmul@grs
  4524  018F                     l2479:	
  4525  018F  0849               	movf	___flmul@temp+1,w
  4526  0190  00B8               	movwf	??___flmul
  4527  0191  01B9               	clrf	??___flmul+1
  4528  0192  01BA               	clrf	??___flmul+2
  4529  0193  01BB               	clrf	??___flmul+3
  4530  0194  083B               	movf	??___flmul+3,w
  4531  0195  00C7               	movwf	___flmul@prod+3
  4532  0196  083A               	movf	??___flmul+2,w
  4533  0197  00C6               	movwf	___flmul@prod+2
  4534  0198  0839               	movf	??___flmul+1,w
  4535  0199  00C5               	movwf	___flmul@prod+1
  4536  019A  0838               	movf	??___flmul,w
  4537  019B  00C4               	movwf	___flmul@prod
  4538  019C  0831               	movf	___flmul@b+1,w
  4539  019D  00B8               	movwf	??___flmul
  4540  019E  0838               	movf	??___flmul,w
  4541  019F  00F0               	movwf	__Umul8_16@multiplicand
  4542  01A0  0835               	movf	___flmul@a+1,w
  4543  01A1  120A  158A  2092  120A  118A  	fcall	__Umul8_16
  4544  01A6  0871               	movf	?__Umul8_16+1,w
  4545  01A7  1283               	bcf	3,5	;RP0=0, select bank0
  4546  01A8  1303               	bcf	3,6	;RP1=0, select bank0
  4547  01A9  00C9               	movwf	___flmul@temp+1
  4548  01AA  0870               	movf	?__Umul8_16,w
  4549  01AB  00C8               	movwf	___flmul@temp
  4550  01AC                     l2481:	
  4551  01AC  0848               	movf	___flmul@temp,w
  4552  01AD  00B8               	movwf	??___flmul
  4553  01AE  01B9               	clrf	??___flmul+1
  4554  01AF  01BA               	clrf	??___flmul+2
  4555  01B0  01BB               	clrf	??___flmul+3
  4556  01B1  0838               	movf	??___flmul,w
  4557  01B2  07BE               	addwf	___flmul@grs,f
  4558  01B3  0839               	movf	??___flmul+1,w
  4559  01B4  1103               	clrz
  4560  01B5  1803               	skipnc
  4561  01B6  3E01               	addlw	1
  4562  01B7  1903               	skipnz
  4563  01B8  29BA               	goto	u3161
  4564  01B9  07BF               	addwf	___flmul@grs+1,f
  4565  01BA                     u3161:	
  4566  01BA  083A               	movf	??___flmul+2,w
  4567  01BB  1103               	clrz
  4568  01BC  1803               	skipnc
  4569  01BD  3E01               	addlw	1
  4570  01BE  1903               	skipnz
  4571  01BF  29C1               	goto	u3162
  4572  01C0  07C0               	addwf	___flmul@grs+2,f
  4573  01C1                     u3162:	
  4574  01C1  083B               	movf	??___flmul+3,w
  4575  01C2  1103               	clrz
  4576  01C3  1803               	skipnc
  4577  01C4  3E01               	addlw	1
  4578  01C5  1903               	skipnz
  4579  01C6  29C8               	goto	u3163
  4580  01C7  07C1               	addwf	___flmul@grs+3,f
  4581  01C8                     u3163:	
  4582  01C8                     l2483:	
  4583  01C8  0849               	movf	___flmul@temp+1,w
  4584  01C9  00B8               	movwf	??___flmul
  4585  01CA  01B9               	clrf	??___flmul+1
  4586  01CB  01BA               	clrf	??___flmul+2
  4587  01CC  01BB               	clrf	??___flmul+3
  4588  01CD  0838               	movf	??___flmul,w
  4589  01CE  07C4               	addwf	___flmul@prod,f
  4590  01CF  0839               	movf	??___flmul+1,w
  4591  01D0  1103               	clrz
  4592  01D1  1803               	skipnc
  4593  01D2  3E01               	addlw	1
  4594  01D3  1903               	skipnz
  4595  01D4  29D6               	goto	u3171
  4596  01D5  07C5               	addwf	___flmul@prod+1,f
  4597  01D6                     u3171:	
  4598  01D6  083A               	movf	??___flmul+2,w
  4599  01D7  1103               	clrz
  4600  01D8  1803               	skipnc
  4601  01D9  3E01               	addlw	1
  4602  01DA  1903               	skipnz
  4603  01DB  29DD               	goto	u3172
  4604  01DC  07C6               	addwf	___flmul@prod+2,f
  4605  01DD                     u3172:	
  4606  01DD  083B               	movf	??___flmul+3,w
  4607  01DE  1103               	clrz
  4608  01DF  1803               	skipnc
  4609  01E0  3E01               	addlw	1
  4610  01E1  1903               	skipnz
  4611  01E2  29E4               	goto	u3173
  4612  01E3  07C7               	addwf	___flmul@prod+3,f
  4613  01E4                     u3173:	
  4614  01E4  0832               	movf	___flmul@b+2,w
  4615  01E5  00B8               	movwf	??___flmul
  4616  01E6  0838               	movf	??___flmul,w
  4617  01E7  00F0               	movwf	__Umul8_16@multiplicand
  4618  01E8  0834               	movf	___flmul@a,w
  4619  01E9  120A  158A  2092  120A  118A  	fcall	__Umul8_16
  4620  01EE  0871               	movf	?__Umul8_16+1,w
  4621  01EF  1283               	bcf	3,5	;RP0=0, select bank0
  4622  01F0  1303               	bcf	3,6	;RP1=0, select bank0
  4623  01F1  00C9               	movwf	___flmul@temp+1
  4624  01F2  0870               	movf	?__Umul8_16,w
  4625  01F3  00C8               	movwf	___flmul@temp
  4626  01F4                     l2485:	
  4627  01F4  0848               	movf	___flmul@temp,w
  4628  01F5  00B8               	movwf	??___flmul
  4629  01F6  01B9               	clrf	??___flmul+1
  4630  01F7  01BA               	clrf	??___flmul+2
  4631  01F8  01BB               	clrf	??___flmul+3
  4632  01F9  0838               	movf	??___flmul,w
  4633  01FA  07BE               	addwf	___flmul@grs,f
  4634  01FB  0839               	movf	??___flmul+1,w
  4635  01FC  1103               	clrz
  4636  01FD  1803               	skipnc
  4637  01FE  3E01               	addlw	1
  4638  01FF  1903               	skipnz
  4639  0200  2A02               	goto	u3181
  4640  0201  07BF               	addwf	___flmul@grs+1,f
  4641  0202                     u3181:	
  4642  0202  083A               	movf	??___flmul+2,w
  4643  0203  1103               	clrz
  4644  0204  1803               	skipnc
  4645  0205  3E01               	addlw	1
  4646  0206  1903               	skipnz
  4647  0207  2A09               	goto	u3182
  4648  0208  07C0               	addwf	___flmul@grs+2,f
  4649  0209                     u3182:	
  4650  0209  083B               	movf	??___flmul+3,w
  4651  020A  1103               	clrz
  4652  020B  1803               	skipnc
  4653  020C  3E01               	addlw	1
  4654  020D  1903               	skipnz
  4655  020E  2A10               	goto	u3183
  4656  020F  07C1               	addwf	___flmul@grs+3,f
  4657  0210                     u3183:	
  4658  0210                     l2487:	
  4659  0210  0849               	movf	___flmul@temp+1,w
  4660  0211  00B8               	movwf	??___flmul
  4661  0212  01B9               	clrf	??___flmul+1
  4662  0213  01BA               	clrf	??___flmul+2
  4663  0214  01BB               	clrf	??___flmul+3
  4664  0215  0838               	movf	??___flmul,w
  4665  0216  07C4               	addwf	___flmul@prod,f
  4666  0217  0839               	movf	??___flmul+1,w
  4667  0218  1103               	clrz
  4668  0219  1803               	skipnc
  4669  021A  3E01               	addlw	1
  4670  021B  1903               	skipnz
  4671  021C  2A1E               	goto	u3191
  4672  021D  07C5               	addwf	___flmul@prod+1,f
  4673  021E                     u3191:	
  4674  021E  083A               	movf	??___flmul+2,w
  4675  021F  1103               	clrz
  4676  0220  1803               	skipnc
  4677  0221  3E01               	addlw	1
  4678  0222  1903               	skipnz
  4679  0223  2A25               	goto	u3192
  4680  0224  07C6               	addwf	___flmul@prod+2,f
  4681  0225                     u3192:	
  4682  0225  083B               	movf	??___flmul+3,w
  4683  0226  1103               	clrz
  4684  0227  1803               	skipnc
  4685  0228  3E01               	addlw	1
  4686  0229  1903               	skipnz
  4687  022A  2A2C               	goto	u3193
  4688  022B  07C7               	addwf	___flmul@prod+3,f
  4689  022C                     u3193:	
  4690  022C                     l2489:	
  4691  022C  3008               	movlw	8
  4692  022D  00B8               	movwf	??___flmul
  4693  022E                     u3205:	
  4694  022E  1003               	clrc
  4695  022F  0DBE               	rlf	___flmul@grs,f
  4696  0230  0DBF               	rlf	___flmul@grs+1,f
  4697  0231  0DC0               	rlf	___flmul@grs+2,f
  4698  0232  0DC1               	rlf	___flmul@grs+3,f
  4699  0233  0BB8               	decfsz	??___flmul,f
  4700  0234  2A2E               	goto	u3205
  4701  0235                     l2491:	
  4702  0235  0831               	movf	___flmul@b+1,w
  4703  0236  00B8               	movwf	??___flmul
  4704  0237  0838               	movf	??___flmul,w
  4705  0238  00F0               	movwf	__Umul8_16@multiplicand
  4706  0239  0834               	movf	___flmul@a,w
  4707  023A  120A  158A  2092  120A  118A  	fcall	__Umul8_16
  4708  023F  0871               	movf	?__Umul8_16+1,w
  4709  0240  1283               	bcf	3,5	;RP0=0, select bank0
  4710  0241  1303               	bcf	3,6	;RP1=0, select bank0
  4711  0242  00C9               	movwf	___flmul@temp+1
  4712  0243  0870               	movf	?__Umul8_16,w
  4713  0244  00C8               	movwf	___flmul@temp
  4714  0245                     l2493:	
  4715  0245  0848               	movf	___flmul@temp,w
  4716  0246  00B8               	movwf	??___flmul
  4717  0247  0849               	movf	___flmul@temp+1,w
  4718  0248  00B9               	movwf	??___flmul+1
  4719  0249  01BA               	clrf	??___flmul+2
  4720  024A  01BB               	clrf	??___flmul+3
  4721  024B  0838               	movf	??___flmul,w
  4722  024C  07BE               	addwf	___flmul@grs,f
  4723  024D  0839               	movf	??___flmul+1,w
  4724  024E  1103               	clrz
  4725  024F  1803               	skipnc
  4726  0250  3E01               	addlw	1
  4727  0251  1903               	skipnz
  4728  0252  2A54               	goto	u3211
  4729  0253  07BF               	addwf	___flmul@grs+1,f
  4730  0254                     u3211:	
  4731  0254  083A               	movf	??___flmul+2,w
  4732  0255  1103               	clrz
  4733  0256  1803               	skipnc
  4734  0257  3E01               	addlw	1
  4735  0258  1903               	skipnz
  4736  0259  2A5B               	goto	u3212
  4737  025A  07C0               	addwf	___flmul@grs+2,f
  4738  025B                     u3212:	
  4739  025B  083B               	movf	??___flmul+3,w
  4740  025C  1103               	clrz
  4741  025D  1803               	skipnc
  4742  025E  3E01               	addlw	1
  4743  025F  1903               	skipnz
  4744  0260  2A62               	goto	u3213
  4745  0261  07C1               	addwf	___flmul@grs+3,f
  4746  0262                     u3213:	
  4747  0262                     l2495:	
  4748  0262  0830               	movf	___flmul@b,w
  4749  0263  00B8               	movwf	??___flmul
  4750  0264  0838               	movf	??___flmul,w
  4751  0265  00F0               	movwf	__Umul8_16@multiplicand
  4752  0266  0835               	movf	___flmul@a+1,w
  4753  0267  120A  158A  2092  120A  118A  	fcall	__Umul8_16
  4754  026C  0871               	movf	?__Umul8_16+1,w
  4755  026D  1283               	bcf	3,5	;RP0=0, select bank0
  4756  026E  1303               	bcf	3,6	;RP1=0, select bank0
  4757  026F  00C9               	movwf	___flmul@temp+1
  4758  0270  0870               	movf	?__Umul8_16,w
  4759  0271  00C8               	movwf	___flmul@temp
  4760  0272                     l2497:	
  4761  0272  0848               	movf	___flmul@temp,w
  4762  0273  00B8               	movwf	??___flmul
  4763  0274  0849               	movf	___flmul@temp+1,w
  4764  0275  00B9               	movwf	??___flmul+1
  4765  0276  01BA               	clrf	??___flmul+2
  4766  0277  01BB               	clrf	??___flmul+3
  4767  0278  0838               	movf	??___flmul,w
  4768  0279  07BE               	addwf	___flmul@grs,f
  4769  027A  0839               	movf	??___flmul+1,w
  4770  027B  1103               	clrz
  4771  027C  1803               	skipnc
  4772  027D  3E01               	addlw	1
  4773  027E  1903               	skipnz
  4774  027F  2A81               	goto	u3221
  4775  0280  07BF               	addwf	___flmul@grs+1,f
  4776  0281                     u3221:	
  4777  0281  083A               	movf	??___flmul+2,w
  4778  0282  1103               	clrz
  4779  0283  1803               	skipnc
  4780  0284  3E01               	addlw	1
  4781  0285  1903               	skipnz
  4782  0286  2A88               	goto	u3222
  4783  0287  07C0               	addwf	___flmul@grs+2,f
  4784  0288                     u3222:	
  4785  0288  083B               	movf	??___flmul+3,w
  4786  0289  1103               	clrz
  4787  028A  1803               	skipnc
  4788  028B  3E01               	addlw	1
  4789  028C  1903               	skipnz
  4790  028D  2A8F               	goto	u3223
  4791  028E  07C1               	addwf	___flmul@grs+3,f
  4792  028F                     u3223:	
  4793  028F                     l2499:	
  4794  028F  3008               	movlw	8
  4795  0290  00B8               	movwf	??___flmul
  4796  0291                     u3235:	
  4797  0291  1003               	clrc
  4798  0292  0DBE               	rlf	___flmul@grs,f
  4799  0293  0DBF               	rlf	___flmul@grs+1,f
  4800  0294  0DC0               	rlf	___flmul@grs+2,f
  4801  0295  0DC1               	rlf	___flmul@grs+3,f
  4802  0296  0BB8               	decfsz	??___flmul,f
  4803  0297  2A91               	goto	u3235
  4804  0298  0830               	movf	___flmul@b,w
  4805  0299  00B8               	movwf	??___flmul
  4806  029A  0838               	movf	??___flmul,w
  4807  029B  00F0               	movwf	__Umul8_16@multiplicand
  4808  029C  0834               	movf	___flmul@a,w
  4809  029D  120A  158A  2092  120A  118A  	fcall	__Umul8_16
  4810  02A2  0871               	movf	?__Umul8_16+1,w
  4811  02A3  1283               	bcf	3,5	;RP0=0, select bank0
  4812  02A4  1303               	bcf	3,6	;RP1=0, select bank0
  4813  02A5  00C9               	movwf	___flmul@temp+1
  4814  02A6  0870               	movf	?__Umul8_16,w
  4815  02A7  00C8               	movwf	___flmul@temp
  4816  02A8                     l2501:	
  4817  02A8  0848               	movf	___flmul@temp,w
  4818  02A9  00B8               	movwf	??___flmul
  4819  02AA  0849               	movf	___flmul@temp+1,w
  4820  02AB  00B9               	movwf	??___flmul+1
  4821  02AC  01BA               	clrf	??___flmul+2
  4822  02AD  01BB               	clrf	??___flmul+3
  4823  02AE  0838               	movf	??___flmul,w
  4824  02AF  07BE               	addwf	___flmul@grs,f
  4825  02B0  0839               	movf	??___flmul+1,w
  4826  02B1  1103               	clrz
  4827  02B2  1803               	skipnc
  4828  02B3  3E01               	addlw	1
  4829  02B4  1903               	skipnz
  4830  02B5  2AB7               	goto	u3241
  4831  02B6  07BF               	addwf	___flmul@grs+1,f
  4832  02B7                     u3241:	
  4833  02B7  083A               	movf	??___flmul+2,w
  4834  02B8  1103               	clrz
  4835  02B9  1803               	skipnc
  4836  02BA  3E01               	addlw	1
  4837  02BB  1903               	skipnz
  4838  02BC  2ABE               	goto	u3242
  4839  02BD  07C0               	addwf	___flmul@grs+2,f
  4840  02BE                     u3242:	
  4841  02BE  083B               	movf	??___flmul+3,w
  4842  02BF  1103               	clrz
  4843  02C0  1803               	skipnc
  4844  02C1  3E01               	addlw	1
  4845  02C2  1903               	skipnz
  4846  02C3  2AC5               	goto	u3243
  4847  02C4  07C1               	addwf	___flmul@grs+3,f
  4848  02C5                     u3243:	
  4849  02C5                     l2503:	
  4850  02C5  0831               	movf	___flmul@b+1,w
  4851  02C6  00B8               	movwf	??___flmul
  4852  02C7  0838               	movf	??___flmul,w
  4853  02C8  00F0               	movwf	__Umul8_16@multiplicand
  4854  02C9  0836               	movf	___flmul@a+2,w
  4855  02CA  120A  158A  2092  120A  118A  	fcall	__Umul8_16
  4856  02CF  0871               	movf	?__Umul8_16+1,w
  4857  02D0  1283               	bcf	3,5	;RP0=0, select bank0
  4858  02D1  1303               	bcf	3,6	;RP1=0, select bank0
  4859  02D2  00C9               	movwf	___flmul@temp+1
  4860  02D3  0870               	movf	?__Umul8_16,w
  4861  02D4  00C8               	movwf	___flmul@temp
  4862  02D5  0848               	movf	___flmul@temp,w
  4863  02D6  00B8               	movwf	??___flmul
  4864  02D7  0849               	movf	___flmul@temp+1,w
  4865  02D8  00B9               	movwf	??___flmul+1
  4866  02D9  01BA               	clrf	??___flmul+2
  4867  02DA  01BB               	clrf	??___flmul+3
  4868  02DB  0838               	movf	??___flmul,w
  4869  02DC  07C4               	addwf	___flmul@prod,f
  4870  02DD  0839               	movf	??___flmul+1,w
  4871  02DE  1103               	clrz
  4872  02DF  1803               	skipnc
  4873  02E0  3E01               	addlw	1
  4874  02E1  1903               	skipnz
  4875  02E2  2AE4               	goto	u3251
  4876  02E3  07C5               	addwf	___flmul@prod+1,f
  4877  02E4                     u3251:	
  4878  02E4  083A               	movf	??___flmul+2,w
  4879  02E5  1103               	clrz
  4880  02E6  1803               	skipnc
  4881  02E7  3E01               	addlw	1
  4882  02E8  1903               	skipnz
  4883  02E9  2AEB               	goto	u3252
  4884  02EA  07C6               	addwf	___flmul@prod+2,f
  4885  02EB                     u3252:	
  4886  02EB  083B               	movf	??___flmul+3,w
  4887  02EC  1103               	clrz
  4888  02ED  1803               	skipnc
  4889  02EE  3E01               	addlw	1
  4890  02EF  1903               	skipnz
  4891  02F0  2AF2               	goto	u3253
  4892  02F1  07C7               	addwf	___flmul@prod+3,f
  4893  02F2                     u3253:	
  4894  02F2                     l2505:	
  4895  02F2  0832               	movf	___flmul@b+2,w
  4896  02F3  00B8               	movwf	??___flmul
  4897  02F4  0838               	movf	??___flmul,w
  4898  02F5  00F0               	movwf	__Umul8_16@multiplicand
  4899  02F6  0835               	movf	___flmul@a+1,w
  4900  02F7  120A  158A  2092  120A  118A  	fcall	__Umul8_16
  4901  02FC  0871               	movf	?__Umul8_16+1,w
  4902  02FD  1283               	bcf	3,5	;RP0=0, select bank0
  4903  02FE  1303               	bcf	3,6	;RP1=0, select bank0
  4904  02FF  00C9               	movwf	___flmul@temp+1
  4905  0300  0870               	movf	?__Umul8_16,w
  4906  0301  00C8               	movwf	___flmul@temp
  4907  0302                     l2507:	
  4908  0302  0848               	movf	___flmul@temp,w
  4909  0303  00B8               	movwf	??___flmul
  4910  0304  0849               	movf	___flmul@temp+1,w
  4911  0305  00B9               	movwf	??___flmul+1
  4912  0306  01BA               	clrf	??___flmul+2
  4913  0307  01BB               	clrf	??___flmul+3
  4914  0308  0838               	movf	??___flmul,w
  4915  0309  07C4               	addwf	___flmul@prod,f
  4916  030A  0839               	movf	??___flmul+1,w
  4917  030B  1103               	clrz
  4918  030C  1803               	skipnc
  4919  030D  3E01               	addlw	1
  4920  030E  1903               	skipnz
  4921  030F  2B11               	goto	u3261
  4922  0310  07C5               	addwf	___flmul@prod+1,f
  4923  0311                     u3261:	
  4924  0311  083A               	movf	??___flmul+2,w
  4925  0312  1103               	clrz
  4926  0313  1803               	skipnc
  4927  0314  3E01               	addlw	1
  4928  0315  1903               	skipnz
  4929  0316  2B18               	goto	u3262
  4930  0317  07C6               	addwf	___flmul@prod+2,f
  4931  0318                     u3262:	
  4932  0318  083B               	movf	??___flmul+3,w
  4933  0319  1103               	clrz
  4934  031A  1803               	skipnc
  4935  031B  3E01               	addlw	1
  4936  031C  1903               	skipnz
  4937  031D  2B1F               	goto	u3263
  4938  031E  07C7               	addwf	___flmul@prod+3,f
  4939  031F                     u3263:	
  4940  031F  0832               	movf	___flmul@b+2,w
  4941  0320  00B8               	movwf	??___flmul
  4942  0321  0838               	movf	??___flmul,w
  4943  0322  00F0               	movwf	__Umul8_16@multiplicand
  4944  0323  0836               	movf	___flmul@a+2,w
  4945  0324  120A  158A  2092  120A  118A  	fcall	__Umul8_16
  4946  0329  0871               	movf	?__Umul8_16+1,w
  4947  032A  1283               	bcf	3,5	;RP0=0, select bank0
  4948  032B  1303               	bcf	3,6	;RP1=0, select bank0
  4949  032C  00C9               	movwf	___flmul@temp+1
  4950  032D  0870               	movf	?__Umul8_16,w
  4951  032E  00C8               	movwf	___flmul@temp
  4952  032F                     l2509:	
  4953  032F  0848               	movf	___flmul@temp,w
  4954  0330  00B8               	movwf	??___flmul
  4955  0331  0849               	movf	___flmul@temp+1,w
  4956  0332  00B9               	movwf	??___flmul+1
  4957  0333  01BA               	clrf	??___flmul+2
  4958  0334  01BB               	clrf	??___flmul+3
  4959  0335  3008               	movlw	8
  4960  0336                     u3275:	
  4961  0336  1003               	clrc
  4962  0337  0DB8               	rlf	??___flmul,f
  4963  0338  0DB9               	rlf	??___flmul+1,f
  4964  0339  0DBA               	rlf	??___flmul+2,f
  4965  033A  0DBB               	rlf	??___flmul+3,f
  4966  033B                     u3270:	
  4967  033B  3EFF               	addlw	-1
  4968  033C  1D03               	skipz
  4969  033D  2B36               	goto	u3275
  4970  033E  0838               	movf	??___flmul,w
  4971  033F  07C4               	addwf	___flmul@prod,f
  4972  0340  0839               	movf	??___flmul+1,w
  4973  0341  1103               	clrz
  4974  0342  1803               	skipnc
  4975  0343  3E01               	addlw	1
  4976  0344  1903               	skipnz
  4977  0345  2B47               	goto	u3281
  4978  0346  07C5               	addwf	___flmul@prod+1,f
  4979  0347                     u3281:	
  4980  0347  083A               	movf	??___flmul+2,w
  4981  0348  1103               	clrz
  4982  0349  1803               	skipnc
  4983  034A  3E01               	addlw	1
  4984  034B  1903               	skipnz
  4985  034C  2B4E               	goto	u3282
  4986  034D  07C6               	addwf	___flmul@prod+2,f
  4987  034E                     u3282:	
  4988  034E  083B               	movf	??___flmul+3,w
  4989  034F  1103               	clrz
  4990  0350  1803               	skipnc
  4991  0351  3E01               	addlw	1
  4992  0352  1903               	skipnz
  4993  0353  2B55               	goto	u3283
  4994  0354  07C7               	addwf	___flmul@prod+3,f
  4995  0355                     u3283:	
  4996  0355                     l2511:	
  4997  0355  083E               	movf	___flmul@grs,w
  4998  0356  00B8               	movwf	??___flmul
  4999  0357  083F               	movf	___flmul@grs+1,w
  5000  0358  00B9               	movwf	??___flmul+1
  5001  0359  0840               	movf	___flmul@grs+2,w
  5002  035A  00BA               	movwf	??___flmul+2
  5003  035B  0841               	movf	___flmul@grs+3,w
  5004  035C  00BB               	movwf	??___flmul+3
  5005  035D  3018               	movlw	24
  5006  035E                     u3295:	
  5007  035E  1003               	clrc
  5008  035F  0CBB               	rrf	??___flmul+3,f
  5009  0360  0CBA               	rrf	??___flmul+2,f
  5010  0361  0CB9               	rrf	??___flmul+1,f
  5011  0362  0CB8               	rrf	??___flmul,f
  5012  0363                     u3290:	
  5013  0363  3EFF               	addlw	-1
  5014  0364  1D03               	skipz
  5015  0365  2B5E               	goto	u3295
  5016  0366  0838               	movf	??___flmul,w
  5017  0367  07C4               	addwf	___flmul@prod,f
  5018  0368  0839               	movf	??___flmul+1,w
  5019  0369  1103               	clrz
  5020  036A  1803               	skipnc
  5021  036B  3E01               	addlw	1
  5022  036C  1903               	skipnz
  5023  036D  2B6F               	goto	u3301
  5024  036E  07C5               	addwf	___flmul@prod+1,f
  5025  036F                     u3301:	
  5026  036F  083A               	movf	??___flmul+2,w
  5027  0370  1103               	clrz
  5028  0371  1803               	skipnc
  5029  0372  3E01               	addlw	1
  5030  0373  1903               	skipnz
  5031  0374  2B76               	goto	u3302
  5032  0375  07C6               	addwf	___flmul@prod+2,f
  5033  0376                     u3302:	
  5034  0376  083B               	movf	??___flmul+3,w
  5035  0377  1103               	clrz
  5036  0378  1803               	skipnc
  5037  0379  3E01               	addlw	1
  5038  037A  1903               	skipnz
  5039  037B  2B7D               	goto	u3303
  5040  037C  07C7               	addwf	___flmul@prod+3,f
  5041  037D                     u3303:	
  5042  037D                     l2513:	
  5043  037D  3008               	movlw	8
  5044  037E  00B8               	movwf	??___flmul
  5045  037F                     u3315:	
  5046  037F  1003               	clrc
  5047  0380  0DBE               	rlf	___flmul@grs,f
  5048  0381  0DBF               	rlf	___flmul@grs+1,f
  5049  0382  0DC0               	rlf	___flmul@grs+2,f
  5050  0383  0DC1               	rlf	___flmul@grs+3,f
  5051  0384  0BB8               	decfsz	??___flmul,f
  5052  0385  2B7F               	goto	u3315
  5053  0386                     l2515:	
  5054  0386  0843               	movf	___flmul@bexp,w
  5055  0387  0742               	addwf	___flmul@aexp,w
  5056  0388  00B8               	movwf	??___flmul
  5057  0389  01B9               	clrf	??___flmul+1
  5058  038A  0DB9               	rlf	??___flmul+1,f
  5059  038B  0838               	movf	??___flmul,w
  5060  038C  3E82               	addlw	130
  5061  038D  00C8               	movwf	___flmul@temp
  5062  038E  0839               	movf	??___flmul+1,w
  5063  038F  1803               	skipnc
  5064  0390  3E01               	addlw	1
  5065  0391  3EFF               	addlw	255
  5066  0392  00C9               	movwf	___flmul@temp+1
  5067  0393  2BB1               	goto	l2527
  5068  0394                     l2517:	
  5069  0394  3001               	movlw	1
  5070  0395  00B8               	movwf	??___flmul
  5071  0396                     u3325:	
  5072  0396  1003               	clrc
  5073  0397  0DC4               	rlf	___flmul@prod,f
  5074  0398  0DC5               	rlf	___flmul@prod+1,f
  5075  0399  0DC6               	rlf	___flmul@prod+2,f
  5076  039A  0DC7               	rlf	___flmul@prod+3,f
  5077  039B  0BB8               	decfsz	??___flmul,f
  5078  039C  2B96               	goto	u3325
  5079  039D                     l2519:	
  5080  039D  1FC1               	btfss	___flmul@grs+3,7
  5081  039E  2BA0               	goto	u3331
  5082  039F  2BA1               	goto	u3330
  5083  03A0                     u3331:	
  5084  03A0  2BA2               	goto	l2523
  5085  03A1                     u3330:	
  5086  03A1                     l2521:	
  5087  03A1  1444               	bsf	___flmul@prod,0
  5088  03A2                     l2523:	
  5089  03A2  3001               	movlw	1
  5090  03A3  00B8               	movwf	??___flmul
  5091  03A4                     u3345:	
  5092  03A4  1003               	clrc
  5093  03A5  0DBE               	rlf	___flmul@grs,f
  5094  03A6  0DBF               	rlf	___flmul@grs+1,f
  5095  03A7  0DC0               	rlf	___flmul@grs+2,f
  5096  03A8  0DC1               	rlf	___flmul@grs+3,f
  5097  03A9  0BB8               	decfsz	??___flmul,f
  5098  03AA  2BA4               	goto	u3345
  5099  03AB                     l2525:	
  5100  03AB  30FF               	movlw	255
  5101  03AC  07C8               	addwf	___flmul@temp,f
  5102  03AD  1803               	skipnc
  5103  03AE  0AC9               	incf	___flmul@temp+1,f
  5104  03AF  30FF               	movlw	255
  5105  03B0  07C9               	addwf	___flmul@temp+1,f
  5106  03B1                     l2527:	
  5107  03B1  1FC6               	btfss	___flmul@prod+2,7
  5108  03B2  2BB4               	goto	u3351
  5109  03B3  2BB5               	goto	u3350
  5110  03B4                     u3351:	
  5111  03B4  2B94               	goto	l2517
  5112  03B5                     u3350:	
  5113  03B5                     l2529:	
  5114  03B5  01C2               	clrf	___flmul@aexp
  5115  03B6                     l2531:	
  5116  03B6  1FC1               	btfss	___flmul@grs+3,7
  5117  03B7  2BB9               	goto	u3361
  5118  03B8  2BBA               	goto	u3360
  5119  03B9                     u3361:	
  5120  03B9  2BD6               	goto	l2539
  5121  03BA                     u3360:	
  5122  03BA                     l2533:	
  5123  03BA  30FF               	movlw	255
  5124  03BB  053E               	andwf	___flmul@grs,w
  5125  03BC  00B8               	movwf	??___flmul
  5126  03BD  30FF               	movlw	255
  5127  03BE  053F               	andwf	___flmul@grs+1,w
  5128  03BF  00B9               	movwf	??___flmul+1
  5129  03C0  30FF               	movlw	255
  5130  03C1  0540               	andwf	___flmul@grs+2,w
  5131  03C2  00BA               	movwf	??___flmul+2
  5132  03C3  307F               	movlw	127
  5133  03C4  0541               	andwf	___flmul@grs+3,w
  5134  03C5  00BB               	movwf	??___flmul+3
  5135  03C6  083B               	movf	??___flmul+3,w
  5136  03C7  043A               	iorwf	??___flmul+2,w
  5137  03C8  0439               	iorwf	??___flmul+1,w
  5138  03C9  0438               	iorwf	??___flmul,w
  5139  03CA  1903               	skipnz
  5140  03CB  2BCD               	goto	u3371
  5141  03CC  2BCE               	goto	u3370
  5142  03CD                     u3371:	
  5143  03CD  2BD1               	goto	l684
  5144  03CE                     u3370:	
  5145  03CE                     l2535:	
  5146  03CE  01C2               	clrf	___flmul@aexp
  5147  03CF  0AC2               	incf	___flmul@aexp,f
  5148  03D0  2BD6               	goto	l2539
  5149  03D1                     l684:	
  5150  03D1  1C44               	btfss	___flmul@prod,0
  5151  03D2  2BD4               	goto	u3381
  5152  03D3  2BD5               	goto	u3380
  5153  03D4                     u3381:	
  5154  03D4  2BD6               	goto	l2539
  5155  03D5                     u3380:	
  5156  03D5  2BCE               	goto	l2535
  5157  03D6                     l2539:	
  5158  03D6  0842               	movf	___flmul@aexp,w
  5159  03D7  1903               	btfsc	3,2
  5160  03D8  2BDA               	goto	u3391
  5161  03D9  2BDB               	goto	u3390
  5162  03DA                     u3391:	
  5163  03DA  2C0C               	goto	l2549
  5164  03DB                     u3390:	
  5165  03DB                     l2541:	
  5166  03DB  3001               	movlw	1
  5167  03DC  07C4               	addwf	___flmul@prod,f
  5168  03DD  3000               	movlw	0
  5169  03DE  1803               	skipnc
  5170  03DF  3001               	movlw	1
  5171  03E0  07C5               	addwf	___flmul@prod+1,f
  5172  03E1  3000               	movlw	0
  5173  03E2  1803               	skipnc
  5174  03E3  3001               	movlw	1
  5175  03E4  07C6               	addwf	___flmul@prod+2,f
  5176  03E5  3000               	movlw	0
  5177  03E6  1803               	skipnc
  5178  03E7  3001               	movlw	1
  5179  03E8  07C7               	addwf	___flmul@prod+3,f
  5180  03E9                     l2543:	
  5181  03E9  1C47               	btfss	___flmul@prod+3,0
  5182  03EA  2BEC               	goto	u3401
  5183  03EB  2BED               	goto	u3400
  5184  03EC                     u3401:	
  5185  03EC  2C0C               	goto	l2549
  5186  03ED                     u3400:	
  5187  03ED                     l2545:	
  5188  03ED  0844               	movf	___flmul@prod,w
  5189  03EE  00B8               	movwf	??___flmul
  5190  03EF  0845               	movf	___flmul@prod+1,w
  5191  03F0  00B9               	movwf	??___flmul+1
  5192  03F1  0846               	movf	___flmul@prod+2,w
  5193  03F2  00BA               	movwf	??___flmul+2
  5194  03F3  0847               	movf	___flmul@prod+3,w
  5195  03F4  00BB               	movwf	??___flmul+3
  5196  03F5  3001               	movlw	1
  5197  03F6  00BC               	movwf	??___flmul+4
  5198  03F7                     u3415:	
  5199  03F7  0D3B               	rlf	??___flmul+3,w
  5200  03F8  0CBB               	rrf	??___flmul+3,f
  5201  03F9  0CBA               	rrf	??___flmul+2,f
  5202  03FA  0CB9               	rrf	??___flmul+1,f
  5203  03FB  0CB8               	rrf	??___flmul,f
  5204  03FC                     u3410:	
  5205  03FC  0BBC               	decfsz	??___flmul+4,f
  5206  03FD  2BF7               	goto	u3415
  5207  03FE  083B               	movf	??___flmul+3,w
  5208  03FF  00C7               	movwf	___flmul@prod+3
  5209  0400  083A               	movf	??___flmul+2,w
  5210  0401  00C6               	movwf	___flmul@prod+2
  5211  0402  0839               	movf	??___flmul+1,w
  5212  0403  00C5               	movwf	___flmul@prod+1
  5213  0404  0838               	movf	??___flmul,w
  5214  0405  00C4               	movwf	___flmul@prod
  5215  0406                     l2547:	
  5216  0406  3001               	movlw	1
  5217  0407  07C8               	addwf	___flmul@temp,f
  5218  0408  1803               	skipnc
  5219  0409  0AC9               	incf	___flmul@temp+1,f
  5220  040A  3000               	movlw	0
  5221  040B  07C9               	addwf	___flmul@temp+1,f
  5222  040C                     l2549:	
  5223  040C  0849               	movf	___flmul@temp+1,w
  5224  040D  3A80               	xorlw	128
  5225  040E  00FF               	movwf	btemp+1
  5226  040F  3080               	movlw	128
  5227  0410  027F               	subwf	btemp+1,w
  5228  0411  1D03               	skipz
  5229  0412  2C15               	goto	u3425
  5230  0413  30FF               	movlw	255
  5231  0414  0248               	subwf	___flmul@temp,w
  5232  0415                     u3425:	
  5233  0415  1C03               	skipc
  5234  0416  2C18               	goto	u3421
  5235  0417  2C19               	goto	u3420
  5236  0418                     u3421:	
  5237  0418  2C24               	goto	l2553
  5238  0419                     u3420:	
  5239  0419                     l2551:	
  5240  0419  307F               	movlw	127
  5241  041A  1283               	bcf	3,5	;RP0=0, select bank0
  5242  041B  1303               	bcf	3,6	;RP1=0, select bank0
  5243  041C  00C7               	movwf	___flmul@prod+3
  5244  041D  3080               	movlw	128
  5245  041E  00C6               	movwf	___flmul@prod+2
  5246  041F  3000               	movlw	0
  5247  0420  00C5               	movwf	___flmul@prod+1
  5248  0421  3000               	movlw	0
  5249  0422  00C4               	movwf	___flmul@prod
  5250  0423  2C59               	goto	l690
  5251  0424                     l2553:	
  5252  0424  1283               	bcf	3,5	;RP0=0, select bank0
  5253  0425  1303               	bcf	3,6	;RP1=0, select bank0
  5254  0426  0849               	movf	___flmul@temp+1,w
  5255  0427  3A80               	xorlw	128
  5256  0428  00FF               	movwf	btemp+1
  5257  0429  3080               	movlw	128
  5258  042A  027F               	subwf	btemp+1,w
  5259  042B  1D03               	skipz
  5260  042C  2C2F               	goto	u3435
  5261  042D  3001               	movlw	1
  5262  042E  0248               	subwf	___flmul@temp,w
  5263  042F                     u3435:	
  5264  042F  1803               	skipnc
  5265  0430  2C32               	goto	u3431
  5266  0431  2C33               	goto	u3430
  5267  0432                     u3431:	
  5268  0432  2C3F               	goto	l2559
  5269  0433                     u3430:	
  5270  0433                     l2555:	
  5271  0433  3000               	movlw	0
  5272  0434  1283               	bcf	3,5	;RP0=0, select bank0
  5273  0435  1303               	bcf	3,6	;RP1=0, select bank0
  5274  0436  00C7               	movwf	___flmul@prod+3
  5275  0437  3000               	movlw	0
  5276  0438  00C6               	movwf	___flmul@prod+2
  5277  0439  3000               	movlw	0
  5278  043A  00C5               	movwf	___flmul@prod+1
  5279  043B  3000               	movlw	0
  5280  043C  00C4               	movwf	___flmul@prod
  5281  043D                     l2557:	
  5282  043D  01BD               	clrf	___flmul@sign
  5283  043E  2C59               	goto	l690
  5284  043F                     l2559:	
  5285  043F  1283               	bcf	3,5	;RP0=0, select bank0
  5286  0440  1303               	bcf	3,6	;RP1=0, select bank0
  5287  0441  0848               	movf	___flmul@temp,w
  5288  0442  00B8               	movwf	??___flmul
  5289  0443  0838               	movf	??___flmul,w
  5290  0444  00C3               	movwf	___flmul@bexp
  5291  0445  30FF               	movlw	255
  5292  0446  05C4               	andwf	___flmul@prod,f
  5293  0447  30FF               	movlw	255
  5294  0448  05C5               	andwf	___flmul@prod+1,f
  5295  0449  307F               	movlw	127
  5296  044A  05C6               	andwf	___flmul@prod+2,f
  5297  044B  3000               	movlw	0
  5298  044C  05C7               	andwf	___flmul@prod+3,f
  5299  044D                     l2561:	
  5300  044D  1C43               	btfss	___flmul@bexp,0
  5301  044E  2C50               	goto	u3441
  5302  044F  2C51               	goto	u3440
  5303  0450                     u3441:	
  5304  0450  2C52               	goto	l2565
  5305  0451                     u3440:	
  5306  0451                     l2563:	
  5307  0451  17C6               	bsf	___flmul@prod+2,7
  5308  0452                     l2565:	
  5309  0452  0843               	movf	___flmul@bexp,w
  5310  0453  00B8               	movwf	??___flmul
  5311  0454  1003               	clrc
  5312  0455  0C38               	rrf	??___flmul,w
  5313  0456  00B9               	movwf	??___flmul+1
  5314  0457  0839               	movf	??___flmul+1,w
  5315  0458  00C7               	movwf	___flmul@prod+3
  5316  0459                     l690:	
  5317  0459  083D               	movf	___flmul@sign,w
  5318  045A  00B8               	movwf	??___flmul
  5319  045B  0838               	movf	??___flmul,w
  5320  045C  04C7               	iorwf	___flmul@prod+3,f
  5321  045D                     l2567:	
  5322  045D  0847               	movf	___flmul@prod+3,w
  5323  045E  00B3               	movwf	?___flmul+3
  5324  045F  0846               	movf	___flmul@prod+2,w
  5325  0460  00B2               	movwf	?___flmul+2
  5326  0461  0845               	movf	___flmul@prod+1,w
  5327  0462  00B1               	movwf	?___flmul+1
  5328  0463  0844               	movf	___flmul@prod,w
  5329  0464  00B0               	movwf	?___flmul
  5330  0465                     l678:	
  5331  0465  0008               	return
  5332  0466                     __end_of___flmul:	
  5333                           
  5334                           	psect	text12
  5335  0892                     __ptext12:	
  5336 ;; *************** function __Umul8_16 *****************
  5337 ;; Defined at:
  5338 ;;		line 4 in file "C:\Program Files (x86)\Microchip\xc8\v2.10\pic\sources\c90\common\Umul8_16.c"
  5339 ;; Parameters:    Size  Location     Type
  5340 ;;  multiplier      1    wreg     unsigned char 
  5341 ;;  multiplicand    1    0[COMMON] unsigned char 
  5342 ;; Auto vars:     Size  Location     Type
  5343 ;;  multiplier      1    8[COMMON] unsigned char 
  5344 ;;  word_mpld       2    6[COMMON] unsigned int 
  5345 ;;  product         2    4[COMMON] unsigned int 
  5346 ;; Return value:  Size  Location     Type
  5347 ;;                  2    0[COMMON] unsigned int 
  5348 ;; Registers used:
  5349 ;;		wreg, status,2, status,0
  5350 ;; Tracked objects:
  5351 ;;		On entry : 0/0
  5352 ;;		On exit  : 0/0
  5353 ;;		Unchanged: 0/0
  5354 ;; Data sizes:     COMMON   BANK0   BANK1   BANK3   BANK2
  5355 ;;      Params:         2       0       0       0       0
  5356 ;;      Locals:         5       0       0       0       0
  5357 ;;      Temps:          2       0       0       0       0
  5358 ;;      Totals:         9       0       0       0       0
  5359 ;;Total ram usage:        9 bytes
  5360 ;; Hardware stack levels used:    1
  5361 ;; This function calls:
  5362 ;;		Nothing
  5363 ;; This function is called by:
  5364 ;;		___flmul
  5365 ;; This function uses a non-reentrant model
  5366 ;;
  5367                           
  5368                           
  5369                           ;psect for function __Umul8_16
  5370  0892                     __Umul8_16:	
  5371                           
  5372                           ;incstack = 0
  5373                           ; Regs used in __Umul8_16: [wreg+status,2+status,0]
  5374                           ;__Umul8_16@multiplier stored from wreg
  5375  0892  00F8               	movwf	__Umul8_16@multiplier
  5376  0893                     l2099:	
  5377  0893  01F4               	clrf	__Umul8_16@product
  5378  0894  01F5               	clrf	__Umul8_16@product+1
  5379  0895                     l2101:	
  5380  0895  0870               	movf	__Umul8_16@multiplicand,w
  5381  0896  00F2               	movwf	??__Umul8_16
  5382  0897  01F3               	clrf	??__Umul8_16+1
  5383  0898  0872               	movf	??__Umul8_16,w
  5384  0899  00F6               	movwf	__Umul8_16@word_mpld
  5385  089A  0873               	movf	??__Umul8_16+1,w
  5386  089B  00F7               	movwf	__Umul8_16@word_mpld+1
  5387  089C                     l2103:	
  5388  089C  1C78               	btfss	__Umul8_16@multiplier,0
  5389  089D  289F               	goto	u2551
  5390  089E  28A0               	goto	u2550
  5391  089F                     u2551:	
  5392  089F  28A6               	goto	l735
  5393  08A0                     u2550:	
  5394  08A0                     l2105:	
  5395  08A0  0876               	movf	__Umul8_16@word_mpld,w
  5396  08A1  07F4               	addwf	__Umul8_16@product,f
  5397  08A2  1803               	skipnc
  5398  08A3  0AF5               	incf	__Umul8_16@product+1,f
  5399  08A4  0877               	movf	__Umul8_16@word_mpld+1,w
  5400  08A5  07F5               	addwf	__Umul8_16@product+1,f
  5401  08A6                     l735:	
  5402  08A6  3001               	movlw	1
  5403  08A7                     u2565:	
  5404  08A7  1003               	clrc
  5405  08A8  0DF6               	rlf	__Umul8_16@word_mpld,f
  5406  08A9  0DF7               	rlf	__Umul8_16@word_mpld+1,f
  5407  08AA  3EFF               	addlw	-1
  5408  08AB  1D03               	skipz
  5409  08AC  28A7               	goto	u2565
  5410  08AD  1003               	clrc
  5411  08AE  0CF8               	rrf	__Umul8_16@multiplier,f
  5412  08AF                     l2107:	
  5413  08AF  0878               	movf	__Umul8_16@multiplier,w
  5414  08B0  1D03               	btfss	3,2
  5415  08B1  28B3               	goto	u2571
  5416  08B2  28B4               	goto	u2570
  5417  08B3                     u2571:	
  5418  08B3  289C               	goto	l2103
  5419  08B4                     u2570:	
  5420  08B4                     l2109:	
  5421  08B4  0875               	movf	__Umul8_16@product+1,w
  5422  08B5  00F1               	movwf	?__Umul8_16+1
  5423  08B6  0874               	movf	__Umul8_16@product,w
  5424  08B7  00F0               	movwf	?__Umul8_16
  5425  08B8                     l737:	
  5426  08B8  0008               	return
  5427  08B9                     __end_of__Umul8_16:	
  5428                           
  5429                           	psect	text13
  5430  0B8B                     __ptext13:	
  5431 ;; *************** function ___fldiv *****************
  5432 ;; Defined at:
  5433 ;;		line 8 in file "C:\Program Files (x86)\Microchip\xc8\v2.10\pic\sources\c90\common\sprcdiv.c"
  5434 ;; Parameters:    Size  Location     Type
  5435 ;;  a               4   42[BANK0 ] unsigned int 
  5436 ;;  b               4   46[BANK0 ] unsigned int 
  5437 ;; Auto vars:     Size  Location     Type
  5438 ;;  grs             4   62[BANK0 ] unsigned long 
  5439 ;;  rem             4   55[BANK0 ] unsigned long 
  5440 ;;  new_exp         2   60[BANK0 ] int 
  5441 ;;  aexp            1   67[BANK0 ] unsigned char 
  5442 ;;  bexp            1   66[BANK0 ] unsigned char 
  5443 ;;  sign            1   59[BANK0 ] unsigned char 
  5444 ;; Return value:  Size  Location     Type
  5445 ;;                  4   42[BANK0 ] unsigned char 
  5446 ;; Registers used:
  5447 ;;		wreg, status,2, status,0, btemp+1
  5448 ;; Tracked objects:
  5449 ;;		On entry : 0/0
  5450 ;;		On exit  : 0/0
  5451 ;;		Unchanged: 0/0
  5452 ;; Data sizes:     COMMON   BANK0   BANK1   BANK3   BANK2
  5453 ;;      Params:         0       8       0       0       0
  5454 ;;      Locals:         0      13       0       0       0
  5455 ;;      Temps:          0       5       0       0       0
  5456 ;;      Totals:         0      26       0       0       0
  5457 ;;Total ram usage:       26 bytes
  5458 ;; Hardware stack levels used:    1
  5459 ;; This function calls:
  5460 ;;		Nothing
  5461 ;; This function is called by:
  5462 ;;		_main
  5463 ;; This function uses a non-reentrant model
  5464 ;;
  5465                           
  5466                           
  5467                           ;psect for function ___fldiv
  5468  0B8B                     ___fldiv:	
  5469  0B8B                     l2289:	
  5470                           ;incstack = 0
  5471                           ; Regs used in ___fldiv: [wreg+status,2+status,0+btemp+1]
  5472                           
  5473  0B8B  1283               	bcf	3,5	;RP0=0, select bank0
  5474  0B8C  1303               	bcf	3,6	;RP1=0, select bank0
  5475  0B8D  0851               	movf	___fldiv@b+3,w
  5476  0B8E  3980               	andlw	128
  5477  0B8F  00D2               	movwf	??___fldiv
  5478  0B90  0852               	movf	??___fldiv,w
  5479  0B91  00DB               	movwf	___fldiv@sign
  5480  0B92                     l2291:	
  5481  0B92  0851               	movf	___fldiv@b+3,w
  5482  0B93  00D2               	movwf	??___fldiv
  5483  0B94  0752               	addwf	??___fldiv,w
  5484  0B95  00D3               	movwf	??___fldiv+1
  5485  0B96  0853               	movf	??___fldiv+1,w
  5486  0B97  00E2               	movwf	___fldiv@bexp
  5487  0B98                     l2293:	
  5488  0B98  1FD0               	btfss	___fldiv@b+2,7
  5489  0B99  2B9B               	goto	u2791
  5490  0B9A  2B9C               	goto	u2790
  5491  0B9B                     u2791:	
  5492  0B9B  2B9D               	goto	l2297
  5493  0B9C                     u2790:	
  5494  0B9C                     l2295:	
  5495  0B9C  1462               	bsf	___fldiv@bexp,0
  5496  0B9D                     l2297:	
  5497  0B9D  0862               	movf	___fldiv@bexp,w
  5498  0B9E  1903               	btfsc	3,2
  5499  0B9F  2BA1               	goto	u2801
  5500  0BA0  2BA2               	goto	u2800
  5501  0BA1                     u2801:	
  5502  0BA1  2BB2               	goto	l2307
  5503  0BA2                     u2800:	
  5504  0BA2                     l2299:	
  5505  0BA2  0A62               	incf	___fldiv@bexp,w
  5506  0BA3  1D03               	btfss	3,2
  5507  0BA4  2BA6               	goto	u2811
  5508  0BA5  2BA7               	goto	u2810
  5509  0BA6                     u2811:	
  5510  0BA6  2BAF               	goto	l2303
  5511  0BA7                     u2810:	
  5512  0BA7                     l2301:	
  5513  0BA7  3000               	movlw	0
  5514  0BA8  00D1               	movwf	___fldiv@b+3
  5515  0BA9  3000               	movlw	0
  5516  0BAA  00D0               	movwf	___fldiv@b+2
  5517  0BAB  3000               	movlw	0
  5518  0BAC  00CF               	movwf	___fldiv@b+1
  5519  0BAD  3000               	movlw	0
  5520  0BAE  00CE               	movwf	___fldiv@b
  5521  0BAF                     l2303:	
  5522  0BAF  17D0               	bsf	___fldiv@b+2,7
  5523  0BB0                     l2305:	
  5524  0BB0  01D1               	clrf	___fldiv@b+3
  5525  0BB1  2BBA               	goto	l2309
  5526  0BB2                     l2307:	
  5527  0BB2  3000               	movlw	0
  5528  0BB3  00D1               	movwf	___fldiv@b+3
  5529  0BB4  3000               	movlw	0
  5530  0BB5  00D0               	movwf	___fldiv@b+2
  5531  0BB6  3000               	movlw	0
  5532  0BB7  00CF               	movwf	___fldiv@b+1
  5533  0BB8  3000               	movlw	0
  5534  0BB9  00CE               	movwf	___fldiv@b
  5535  0BBA                     l2309:	
  5536  0BBA  084D               	movf	___fldiv@a+3,w
  5537  0BBB  3980               	andlw	128
  5538  0BBC  00D2               	movwf	??___fldiv
  5539  0BBD  0852               	movf	??___fldiv,w
  5540  0BBE  06DB               	xorwf	___fldiv@sign,f
  5541  0BBF                     l2311:	
  5542  0BBF  084D               	movf	___fldiv@a+3,w
  5543  0BC0  00D2               	movwf	??___fldiv
  5544  0BC1  0752               	addwf	??___fldiv,w
  5545  0BC2  00D3               	movwf	??___fldiv+1
  5546  0BC3  0853               	movf	??___fldiv+1,w
  5547  0BC4  00E3               	movwf	___fldiv@aexp
  5548  0BC5                     l2313:	
  5549  0BC5  1FCC               	btfss	___fldiv@a+2,7
  5550  0BC6  2BC8               	goto	u2821
  5551  0BC7  2BC9               	goto	u2820
  5552  0BC8                     u2821:	
  5553  0BC8  2BCA               	goto	l2317
  5554  0BC9                     u2820:	
  5555  0BC9                     l2315:	
  5556  0BC9  1463               	bsf	___fldiv@aexp,0
  5557  0BCA                     l2317:	
  5558  0BCA  0863               	movf	___fldiv@aexp,w
  5559  0BCB  1903               	btfsc	3,2
  5560  0BCC  2BCE               	goto	u2831
  5561  0BCD  2BCF               	goto	u2830
  5562  0BCE                     u2831:	
  5563  0BCE  2BDF               	goto	l2327
  5564  0BCF                     u2830:	
  5565  0BCF                     l2319:	
  5566  0BCF  0A63               	incf	___fldiv@aexp,w
  5567  0BD0  1D03               	btfss	3,2
  5568  0BD1  2BD3               	goto	u2841
  5569  0BD2  2BD4               	goto	u2840
  5570  0BD3                     u2841:	
  5571  0BD3  2BDC               	goto	l2323
  5572  0BD4                     u2840:	
  5573  0BD4                     l2321:	
  5574  0BD4  3000               	movlw	0
  5575  0BD5  00CD               	movwf	___fldiv@a+3
  5576  0BD6  3000               	movlw	0
  5577  0BD7  00CC               	movwf	___fldiv@a+2
  5578  0BD8  3000               	movlw	0
  5579  0BD9  00CB               	movwf	___fldiv@a+1
  5580  0BDA  3000               	movlw	0
  5581  0BDB  00CA               	movwf	___fldiv@a
  5582  0BDC                     l2323:	
  5583  0BDC  17CC               	bsf	___fldiv@a+2,7
  5584  0BDD                     l2325:	
  5585  0BDD  01CD               	clrf	___fldiv@a+3
  5586  0BDE  2BE7               	goto	l638
  5587  0BDF                     l2327:	
  5588  0BDF  3000               	movlw	0
  5589  0BE0  00CD               	movwf	___fldiv@a+3
  5590  0BE1  3000               	movlw	0
  5591  0BE2  00CC               	movwf	___fldiv@a+2
  5592  0BE3  3000               	movlw	0
  5593  0BE4  00CB               	movwf	___fldiv@a+1
  5594  0BE5  3000               	movlw	0
  5595  0BE6  00CA               	movwf	___fldiv@a
  5596  0BE7                     l638:	
  5597  0BE7  084D               	movf	___fldiv@a+3,w
  5598  0BE8  044C               	iorwf	___fldiv@a+2,w
  5599  0BE9  044B               	iorwf	___fldiv@a+1,w
  5600  0BEA  044A               	iorwf	___fldiv@a,w
  5601  0BEB  1D03               	skipz
  5602  0BEC  2BEE               	goto	u2851
  5603  0BED  2BEF               	goto	u2850
  5604  0BEE                     u2851:	
  5605  0BEE  2C08               	goto	l2337
  5606  0BEF                     u2850:	
  5607  0BEF                     l2329:	
  5608  0BEF  3000               	movlw	0
  5609  0BF0  00D1               	movwf	___fldiv@b+3
  5610  0BF1  3000               	movlw	0
  5611  0BF2  00D0               	movwf	___fldiv@b+2
  5612  0BF3  3000               	movlw	0
  5613  0BF4  00CF               	movwf	___fldiv@b+1
  5614  0BF5  3000               	movlw	0
  5615  0BF6  00CE               	movwf	___fldiv@b
  5616  0BF7  3080               	movlw	128
  5617  0BF8  04D0               	iorwf	___fldiv@b+2,f
  5618  0BF9  307F               	movlw	127
  5619  0BFA  04D1               	iorwf	___fldiv@b+3,f
  5620  0BFB                     l2331:	
  5621  0BFB  085B               	movf	___fldiv@sign,w
  5622  0BFC  00D2               	movwf	??___fldiv
  5623  0BFD  0852               	movf	??___fldiv,w
  5624  0BFE  04D1               	iorwf	___fldiv@b+3,f
  5625  0BFF                     l2333:	
  5626  0BFF  0851               	movf	___fldiv@b+3,w
  5627  0C00  00CD               	movwf	?___fldiv+3
  5628  0C01  0850               	movf	___fldiv@b+2,w
  5629  0C02  00CC               	movwf	?___fldiv+2
  5630  0C03  084F               	movf	___fldiv@b+1,w
  5631  0C04  00CB               	movwf	?___fldiv+1
  5632  0C05  084E               	movf	___fldiv@b,w
  5633  0C06  00CA               	movwf	?___fldiv
  5634  0C07  2D67               	goto	l640
  5635  0C08                     l2337:	
  5636  0C08  0862               	movf	___fldiv@bexp,w
  5637  0C09  1D03               	btfss	3,2
  5638  0C0A  2C0C               	goto	u2861
  5639  0C0B  2C0D               	goto	u2860
  5640  0C0C                     u2861:	
  5641  0C0C  2C16               	goto	l2343
  5642  0C0D                     u2860:	
  5643  0C0D                     l2339:	
  5644  0C0D  3000               	movlw	0
  5645  0C0E  00CD               	movwf	?___fldiv+3
  5646  0C0F  3000               	movlw	0
  5647  0C10  00CC               	movwf	?___fldiv+2
  5648  0C11  3000               	movlw	0
  5649  0C12  00CB               	movwf	?___fldiv+1
  5650  0C13  3000               	movlw	0
  5651  0C14  00CA               	movwf	?___fldiv
  5652  0C15  2D67               	goto	l640
  5653  0C16                     l2343:	
  5654  0C16  0862               	movf	___fldiv@bexp,w
  5655  0C17  00D2               	movwf	??___fldiv
  5656  0C18  01D3               	clrf	??___fldiv+1
  5657  0C19  0853               	movf	??___fldiv+1,w
  5658  0C1A  00D5               	movwf	??___fldiv+3
  5659  0C1B  0863               	movf	___fldiv@aexp,w
  5660  0C1C  0252               	subwf	??___fldiv,w
  5661  0C1D  00D4               	movwf	??___fldiv+2
  5662  0C1E  1C03               	skipc
  5663  0C1F  03D5               	decf	??___fldiv+3,f
  5664  0C20  0854               	movf	??___fldiv+2,w
  5665  0C21  3E7F               	addlw	127
  5666  0C22  00DC               	movwf	___fldiv@new_exp
  5667  0C23  0855               	movf	??___fldiv+3,w
  5668  0C24  1803               	skipnc
  5669  0C25  3E01               	addlw	1
  5670  0C26  3E00               	addlw	0
  5671  0C27  00DD               	movwf	___fldiv@new_exp+1
  5672  0C28                     l2345:	
  5673  0C28  0851               	movf	___fldiv@b+3,w
  5674  0C29  00DA               	movwf	___fldiv@rem+3
  5675  0C2A  0850               	movf	___fldiv@b+2,w
  5676  0C2B  00D9               	movwf	___fldiv@rem+2
  5677  0C2C  084F               	movf	___fldiv@b+1,w
  5678  0C2D  00D8               	movwf	___fldiv@rem+1
  5679  0C2E  084E               	movf	___fldiv@b,w
  5680  0C2F  00D7               	movwf	___fldiv@rem
  5681  0C30                     l2347:	
  5682  0C30  3000               	movlw	0
  5683  0C31  00D1               	movwf	___fldiv@b+3
  5684  0C32  3000               	movlw	0
  5685  0C33  00D0               	movwf	___fldiv@b+2
  5686  0C34  3000               	movlw	0
  5687  0C35  00CF               	movwf	___fldiv@b+1
  5688  0C36  3000               	movlw	0
  5689  0C37  00CE               	movwf	___fldiv@b
  5690  0C38                     l2349:	
  5691  0C38  3000               	movlw	0
  5692  0C39  00E1               	movwf	___fldiv@grs+3
  5693  0C3A  3000               	movlw	0
  5694  0C3B  00E0               	movwf	___fldiv@grs+2
  5695  0C3C  3000               	movlw	0
  5696  0C3D  00DF               	movwf	___fldiv@grs+1
  5697  0C3E  3000               	movlw	0
  5698  0C3F  00DE               	movwf	___fldiv@grs
  5699  0C40                     l2351:	
  5700  0C40  01E3               	clrf	___fldiv@aexp
  5701  0C41  2C8C               	goto	l2371
  5702  0C42                     l2353:	
  5703  0C42  0863               	movf	___fldiv@aexp,w
  5704  0C43  1903               	btfsc	3,2
  5705  0C44  2C46               	goto	u2871
  5706  0C45  2C47               	goto	u2870
  5707  0C46                     u2871:	
  5708  0C46  2C67               	goto	l2363
  5709  0C47                     u2870:	
  5710  0C47                     l2355:	
  5711  0C47  3001               	movlw	1
  5712  0C48  00D2               	movwf	??___fldiv
  5713  0C49                     u2885:	
  5714  0C49  1003               	clrc
  5715  0C4A  0DD7               	rlf	___fldiv@rem,f
  5716  0C4B  0DD8               	rlf	___fldiv@rem+1,f
  5717  0C4C  0DD9               	rlf	___fldiv@rem+2,f
  5718  0C4D  0DDA               	rlf	___fldiv@rem+3,f
  5719  0C4E  0BD2               	decfsz	??___fldiv,f
  5720  0C4F  2C49               	goto	u2885
  5721  0C50  3001               	movlw	1
  5722  0C51  00D2               	movwf	??___fldiv
  5723  0C52                     u2895:	
  5724  0C52  1003               	clrc
  5725  0C53  0DCE               	rlf	___fldiv@b,f
  5726  0C54  0DCF               	rlf	___fldiv@b+1,f
  5727  0C55  0DD0               	rlf	___fldiv@b+2,f
  5728  0C56  0DD1               	rlf	___fldiv@b+3,f
  5729  0C57  0BD2               	decfsz	??___fldiv,f
  5730  0C58  2C52               	goto	u2895
  5731  0C59                     l2357:	
  5732  0C59  1FE1               	btfss	___fldiv@grs+3,7
  5733  0C5A  2C5C               	goto	u2901
  5734  0C5B  2C5D               	goto	u2900
  5735  0C5C                     u2901:	
  5736  0C5C  2C5E               	goto	l2361
  5737  0C5D                     u2900:	
  5738  0C5D                     l2359:	
  5739  0C5D  144E               	bsf	___fldiv@b,0
  5740  0C5E                     l2361:	
  5741  0C5E  3001               	movlw	1
  5742  0C5F  00D2               	movwf	??___fldiv
  5743  0C60                     u2915:	
  5744  0C60  1003               	clrc
  5745  0C61  0DDE               	rlf	___fldiv@grs,f
  5746  0C62  0DDF               	rlf	___fldiv@grs+1,f
  5747  0C63  0DE0               	rlf	___fldiv@grs+2,f
  5748  0C64  0DE1               	rlf	___fldiv@grs+3,f
  5749  0C65  0BD2               	decfsz	??___fldiv,f
  5750  0C66  2C60               	goto	u2915
  5751  0C67                     l2363:	
  5752  0C67  084D               	movf	___fldiv@a+3,w
  5753  0C68  025A               	subwf	___fldiv@rem+3,w
  5754  0C69  1D03               	skipz
  5755  0C6A  2C75               	goto	u2925
  5756  0C6B  084C               	movf	___fldiv@a+2,w
  5757  0C6C  0259               	subwf	___fldiv@rem+2,w
  5758  0C6D  1D03               	skipz
  5759  0C6E  2C75               	goto	u2925
  5760  0C6F  084B               	movf	___fldiv@a+1,w
  5761  0C70  0258               	subwf	___fldiv@rem+1,w
  5762  0C71  1D03               	skipz
  5763  0C72  2C75               	goto	u2925
  5764  0C73  084A               	movf	___fldiv@a,w
  5765  0C74  0257               	subwf	___fldiv@rem,w
  5766  0C75                     u2925:	
  5767  0C75  1C03               	skipc
  5768  0C76  2C78               	goto	u2921
  5769  0C77  2C79               	goto	u2920
  5770  0C78                     u2921:	
  5771  0C78  2C88               	goto	l2369
  5772  0C79                     u2920:	
  5773  0C79                     l2365:	
  5774  0C79  1761               	bsf	___fldiv@grs+3,6
  5775  0C7A                     l2367:	
  5776  0C7A  084A               	movf	___fldiv@a,w
  5777  0C7B  02D7               	subwf	___fldiv@rem,f
  5778  0C7C  084B               	movf	___fldiv@a+1,w
  5779  0C7D  1C03               	skipc
  5780  0C7E  0F4B               	incfsz	___fldiv@a+1,w
  5781  0C7F  02D8               	subwf	___fldiv@rem+1,f
  5782  0C80  084C               	movf	___fldiv@a+2,w
  5783  0C81  1C03               	skipc
  5784  0C82  0F4C               	incfsz	___fldiv@a+2,w
  5785  0C83  02D9               	subwf	___fldiv@rem+2,f
  5786  0C84  084D               	movf	___fldiv@a+3,w
  5787  0C85  1C03               	skipc
  5788  0C86  0F4D               	incfsz	___fldiv@a+3,w
  5789  0C87  02DA               	subwf	___fldiv@rem+3,f
  5790  0C88                     l2369:	
  5791  0C88  3001               	movlw	1
  5792  0C89  00D2               	movwf	??___fldiv
  5793  0C8A  0852               	movf	??___fldiv,w
  5794  0C8B  07E3               	addwf	___fldiv@aexp,f
  5795  0C8C                     l2371:	
  5796  0C8C  301A               	movlw	26
  5797  0C8D  0263               	subwf	___fldiv@aexp,w
  5798  0C8E  1C03               	skipc
  5799  0C8F  2C91               	goto	u2931
  5800  0C90  2C92               	goto	u2930
  5801  0C91                     u2931:	
  5802  0C91  2C42               	goto	l2353
  5803  0C92                     u2930:	
  5804  0C92                     l2373:	
  5805  0C92  085A               	movf	___fldiv@rem+3,w
  5806  0C93  0459               	iorwf	___fldiv@rem+2,w
  5807  0C94  0458               	iorwf	___fldiv@rem+1,w
  5808  0C95  0457               	iorwf	___fldiv@rem,w
  5809  0C96  1903               	skipnz
  5810  0C97  2C99               	goto	u2941
  5811  0C98  2C9A               	goto	u2940
  5812  0C99                     u2941:	
  5813  0C99  2CB9               	goto	l2387
  5814  0C9A                     u2940:	
  5815  0C9A                     l2375:	
  5816  0C9A  145E               	bsf	___fldiv@grs,0
  5817  0C9B  2CB9               	goto	l2387
  5818  0C9C                     l2377:	
  5819  0C9C  3001               	movlw	1
  5820  0C9D  00D2               	movwf	??___fldiv
  5821  0C9E                     u2955:	
  5822  0C9E  1003               	clrc
  5823  0C9F  0DCE               	rlf	___fldiv@b,f
  5824  0CA0  0DCF               	rlf	___fldiv@b+1,f
  5825  0CA1  0DD0               	rlf	___fldiv@b+2,f
  5826  0CA2  0DD1               	rlf	___fldiv@b+3,f
  5827  0CA3  0BD2               	decfsz	??___fldiv,f
  5828  0CA4  2C9E               	goto	u2955
  5829  0CA5                     l2379:	
  5830  0CA5  1FE1               	btfss	___fldiv@grs+3,7
  5831  0CA6  2CA8               	goto	u2961
  5832  0CA7  2CA9               	goto	u2960
  5833  0CA8                     u2961:	
  5834  0CA8  2CAA               	goto	l2383
  5835  0CA9                     u2960:	
  5836  0CA9                     l2381:	
  5837  0CA9  144E               	bsf	___fldiv@b,0
  5838  0CAA                     l2383:	
  5839  0CAA  3001               	movlw	1
  5840  0CAB  00D2               	movwf	??___fldiv
  5841  0CAC                     u2975:	
  5842  0CAC  1003               	clrc
  5843  0CAD  0DDE               	rlf	___fldiv@grs,f
  5844  0CAE  0DDF               	rlf	___fldiv@grs+1,f
  5845  0CAF  0DE0               	rlf	___fldiv@grs+2,f
  5846  0CB0  0DE1               	rlf	___fldiv@grs+3,f
  5847  0CB1  0BD2               	decfsz	??___fldiv,f
  5848  0CB2  2CAC               	goto	u2975
  5849  0CB3                     l2385:	
  5850  0CB3  30FF               	movlw	255
  5851  0CB4  07DC               	addwf	___fldiv@new_exp,f
  5852  0CB5  1803               	skipnc
  5853  0CB6  0ADD               	incf	___fldiv@new_exp+1,f
  5854  0CB7  30FF               	movlw	255
  5855  0CB8  07DD               	addwf	___fldiv@new_exp+1,f
  5856  0CB9                     l2387:	
  5857  0CB9  1FD0               	btfss	___fldiv@b+2,7
  5858  0CBA  2CBC               	goto	u2981
  5859  0CBB  2CBD               	goto	u2980
  5860  0CBC                     u2981:	
  5861  0CBC  2C9C               	goto	l2377
  5862  0CBD                     u2980:	
  5863  0CBD                     l2389:	
  5864  0CBD  01E3               	clrf	___fldiv@aexp
  5865  0CBE                     l2391:	
  5866  0CBE  1FE1               	btfss	___fldiv@grs+3,7
  5867  0CBF  2CC1               	goto	u2991
  5868  0CC0  2CC2               	goto	u2990
  5869  0CC1                     u2991:	
  5870  0CC1  2CDE               	goto	l2399
  5871  0CC2                     u2990:	
  5872  0CC2                     l2393:	
  5873  0CC2  30FF               	movlw	255
  5874  0CC3  055E               	andwf	___fldiv@grs,w
  5875  0CC4  00D2               	movwf	??___fldiv
  5876  0CC5  30FF               	movlw	255
  5877  0CC6  055F               	andwf	___fldiv@grs+1,w
  5878  0CC7  00D3               	movwf	??___fldiv+1
  5879  0CC8  30FF               	movlw	255
  5880  0CC9  0560               	andwf	___fldiv@grs+2,w
  5881  0CCA  00D4               	movwf	??___fldiv+2
  5882  0CCB  307F               	movlw	127
  5883  0CCC  0561               	andwf	___fldiv@grs+3,w
  5884  0CCD  00D5               	movwf	??___fldiv+3
  5885  0CCE  0855               	movf	??___fldiv+3,w
  5886  0CCF  0454               	iorwf	??___fldiv+2,w
  5887  0CD0  0453               	iorwf	??___fldiv+1,w
  5888  0CD1  0452               	iorwf	??___fldiv,w
  5889  0CD2  1903               	skipnz
  5890  0CD3  2CD5               	goto	u3001
  5891  0CD4  2CD6               	goto	u3000
  5892  0CD5                     u3001:	
  5893  0CD5  2CD9               	goto	l654
  5894  0CD6                     u3000:	
  5895  0CD6                     l2395:	
  5896  0CD6  01E3               	clrf	___fldiv@aexp
  5897  0CD7  0AE3               	incf	___fldiv@aexp,f
  5898  0CD8  2CDE               	goto	l2399
  5899  0CD9                     l654:	
  5900  0CD9  1C4E               	btfss	___fldiv@b,0
  5901  0CDA  2CDC               	goto	u3011
  5902  0CDB  2CDD               	goto	u3010
  5903  0CDC                     u3011:	
  5904  0CDC  2CDE               	goto	l2399
  5905  0CDD                     u3010:	
  5906  0CDD  2CD6               	goto	l2395
  5907  0CDE                     l2399:	
  5908  0CDE  0863               	movf	___fldiv@aexp,w
  5909  0CDF  1903               	btfsc	3,2
  5910  0CE0  2CE2               	goto	u3021
  5911  0CE1  2CE3               	goto	u3020
  5912  0CE2                     u3021:	
  5913  0CE2  2D14               	goto	l2409
  5914  0CE3                     u3020:	
  5915  0CE3                     l2401:	
  5916  0CE3  3001               	movlw	1
  5917  0CE4  07CE               	addwf	___fldiv@b,f
  5918  0CE5  3000               	movlw	0
  5919  0CE6  1803               	skipnc
  5920  0CE7  3001               	movlw	1
  5921  0CE8  07CF               	addwf	___fldiv@b+1,f
  5922  0CE9  3000               	movlw	0
  5923  0CEA  1803               	skipnc
  5924  0CEB  3001               	movlw	1
  5925  0CEC  07D0               	addwf	___fldiv@b+2,f
  5926  0CED  3000               	movlw	0
  5927  0CEE  1803               	skipnc
  5928  0CEF  3001               	movlw	1
  5929  0CF0  07D1               	addwf	___fldiv@b+3,f
  5930  0CF1                     l2403:	
  5931  0CF1  1C51               	btfss	___fldiv@b+3,0
  5932  0CF2  2CF4               	goto	u3031
  5933  0CF3  2CF5               	goto	u3030
  5934  0CF4                     u3031:	
  5935  0CF4  2D14               	goto	l2409
  5936  0CF5                     u3030:	
  5937  0CF5                     l2405:	
  5938  0CF5  084E               	movf	___fldiv@b,w
  5939  0CF6  00D2               	movwf	??___fldiv
  5940  0CF7  084F               	movf	___fldiv@b+1,w
  5941  0CF8  00D3               	movwf	??___fldiv+1
  5942  0CF9  0850               	movf	___fldiv@b+2,w
  5943  0CFA  00D4               	movwf	??___fldiv+2
  5944  0CFB  0851               	movf	___fldiv@b+3,w
  5945  0CFC  00D5               	movwf	??___fldiv+3
  5946  0CFD  3001               	movlw	1
  5947  0CFE  00D6               	movwf	??___fldiv+4
  5948  0CFF                     u3045:	
  5949  0CFF  0D55               	rlf	??___fldiv+3,w
  5950  0D00  0CD5               	rrf	??___fldiv+3,f
  5951  0D01  0CD4               	rrf	??___fldiv+2,f
  5952  0D02  0CD3               	rrf	??___fldiv+1,f
  5953  0D03  0CD2               	rrf	??___fldiv,f
  5954  0D04                     u3040:	
  5955  0D04  0BD6               	decfsz	??___fldiv+4,f
  5956  0D05  2CFF               	goto	u3045
  5957  0D06  0855               	movf	??___fldiv+3,w
  5958  0D07  00D1               	movwf	___fldiv@b+3
  5959  0D08  0854               	movf	??___fldiv+2,w
  5960  0D09  00D0               	movwf	___fldiv@b+2
  5961  0D0A  0853               	movf	??___fldiv+1,w
  5962  0D0B  00CF               	movwf	___fldiv@b+1
  5963  0D0C  0852               	movf	??___fldiv,w
  5964  0D0D  00CE               	movwf	___fldiv@b
  5965  0D0E                     l2407:	
  5966  0D0E  3001               	movlw	1
  5967  0D0F  07DC               	addwf	___fldiv@new_exp,f
  5968  0D10  1803               	skipnc
  5969  0D11  0ADD               	incf	___fldiv@new_exp+1,f
  5970  0D12  3000               	movlw	0
  5971  0D13  07DD               	addwf	___fldiv@new_exp+1,f
  5972  0D14                     l2409:	
  5973  0D14  085D               	movf	___fldiv@new_exp+1,w
  5974  0D15  3A80               	xorlw	128
  5975  0D16  00FF               	movwf	btemp+1
  5976  0D17  3080               	movlw	128
  5977  0D18  027F               	subwf	btemp+1,w
  5978  0D19  1D03               	skipz
  5979  0D1A  2D1D               	goto	u3055
  5980  0D1B  30FF               	movlw	255
  5981  0D1C  025C               	subwf	___fldiv@new_exp,w
  5982  0D1D                     u3055:	
  5983  0D1D  1C03               	skipc
  5984  0D1E  2D20               	goto	u3051
  5985  0D1F  2D21               	goto	u3050
  5986  0D20                     u3051:	
  5987  0D20  2D2F               	goto	l2413
  5988  0D21                     u3050:	
  5989  0D21                     l2411:	
  5990  0D21  30FF               	movlw	255
  5991  0D22  1283               	bcf	3,5	;RP0=0, select bank0
  5992  0D23  1303               	bcf	3,6	;RP1=0, select bank0
  5993  0D24  00DC               	movwf	___fldiv@new_exp
  5994  0D25  3000               	movlw	0
  5995  0D26  00DD               	movwf	___fldiv@new_exp+1
  5996  0D27  3000               	movlw	0
  5997  0D28  00D1               	movwf	___fldiv@b+3
  5998  0D29  3000               	movlw	0
  5999  0D2A  00D0               	movwf	___fldiv@b+2
  6000  0D2B  3000               	movlw	0
  6001  0D2C  00CF               	movwf	___fldiv@b+1
  6002  0D2D  3000               	movlw	0
  6003  0D2E  00CE               	movwf	___fldiv@b
  6004  0D2F                     l2413:	
  6005  0D2F  1283               	bcf	3,5	;RP0=0, select bank0
  6006  0D30  1303               	bcf	3,6	;RP1=0, select bank0
  6007  0D31  085D               	movf	___fldiv@new_exp+1,w
  6008  0D32  3A80               	xorlw	128
  6009  0D33  00FF               	movwf	btemp+1
  6010  0D34  3080               	movlw	128
  6011  0D35  027F               	subwf	btemp+1,w
  6012  0D36  1D03               	skipz
  6013  0D37  2D3A               	goto	u3065
  6014  0D38  3001               	movlw	1
  6015  0D39  025C               	subwf	___fldiv@new_exp,w
  6016  0D3A                     u3065:	
  6017  0D3A  1803               	skipnc
  6018  0D3B  2D3D               	goto	u3061
  6019  0D3C  2D3E               	goto	u3060
  6020  0D3D                     u3061:	
  6021  0D3D  2D4B               	goto	l660
  6022  0D3E                     u3060:	
  6023  0D3E                     l2415:	
  6024  0D3E  1283               	bcf	3,5	;RP0=0, select bank0
  6025  0D3F  1303               	bcf	3,6	;RP1=0, select bank0
  6026  0D40  01DC               	clrf	___fldiv@new_exp
  6027  0D41  01DD               	clrf	___fldiv@new_exp+1
  6028  0D42                     l2417:	
  6029  0D42  3000               	movlw	0
  6030  0D43  00D1               	movwf	___fldiv@b+3
  6031  0D44  3000               	movlw	0
  6032  0D45  00D0               	movwf	___fldiv@b+2
  6033  0D46  3000               	movlw	0
  6034  0D47  00CF               	movwf	___fldiv@b+1
  6035  0D48  3000               	movlw	0
  6036  0D49  00CE               	movwf	___fldiv@b
  6037  0D4A                     l2419:	
  6038  0D4A  01DB               	clrf	___fldiv@sign
  6039  0D4B                     l660:	
  6040  0D4B  1283               	bcf	3,5	;RP0=0, select bank0
  6041  0D4C  1303               	bcf	3,6	;RP1=0, select bank0
  6042  0D4D  085C               	movf	___fldiv@new_exp,w
  6043  0D4E  00D2               	movwf	??___fldiv
  6044  0D4F  0852               	movf	??___fldiv,w
  6045  0D50  00E2               	movwf	___fldiv@bexp
  6046  0D51                     l2421:	
  6047  0D51  1C62               	btfss	___fldiv@bexp,0
  6048  0D52  2D54               	goto	u3071
  6049  0D53  2D55               	goto	u3070
  6050  0D54                     u3071:	
  6051  0D54  2D57               	goto	l2425
  6052  0D55                     u3070:	
  6053  0D55                     l2423:	
  6054  0D55  17D0               	bsf	___fldiv@b+2,7
  6055  0D56  2D5B               	goto	l662
  6056  0D57                     l2425:	
  6057  0D57  307F               	movlw	127
  6058  0D58  00D2               	movwf	??___fldiv
  6059  0D59  0852               	movf	??___fldiv,w
  6060  0D5A  05D0               	andwf	___fldiv@b+2,f
  6061  0D5B                     l662:	
  6062  0D5B  0862               	movf	___fldiv@bexp,w
  6063  0D5C  00D2               	movwf	??___fldiv
  6064  0D5D  1003               	clrc
  6065  0D5E  0C52               	rrf	??___fldiv,w
  6066  0D5F  00D3               	movwf	??___fldiv+1
  6067  0D60  0853               	movf	??___fldiv+1,w
  6068  0D61  00D1               	movwf	___fldiv@b+3
  6069  0D62  085B               	movf	___fldiv@sign,w
  6070  0D63  00D2               	movwf	??___fldiv
  6071  0D64  0852               	movf	??___fldiv,w
  6072  0D65  04D1               	iorwf	___fldiv@b+3,f
  6073  0D66  2BFF               	goto	l2333
  6074  0D67                     l640:	
  6075  0D67  0008               	return
  6076  0D68                     __end_of___fldiv:	
  6077                           
  6078                           	psect	text14
  6079  086C                     __ptext14:	
  6080 ;; *************** function _LCDisplay *****************
  6081 ;; Defined at:
  6082 ;;		line 46 in file "LCD.c"
  6083 ;; Parameters:    Size  Location     Type
  6084 ;;  val             2    3[COMMON] PTR unsigned char 
  6085 ;;		 -> STR_15(2), STR_14(2), STR_13(2), STR_12(2), 
  6086 ;;		 -> STR_11(2), STR_10(2), STR_9(2), decpot1(2), 
  6087 ;;		 -> potStr1(3), contStr(1), min1(2), sec1(2), 
  6088 ;;		 -> STR_3(6), STR_2(6), STR_1(4), 
  6089 ;; Auto vars:     Size  Location     Type
  6090 ;;		None
  6091 ;; Return value:  Size  Location     Type
  6092 ;;                  1    wreg      void 
  6093 ;; Registers used:
  6094 ;;		wreg, fsr0l, fsr0h, status,2, status,0, btemp+1, pclath, cstack
  6095 ;; Tracked objects:
  6096 ;;		On entry : 0/0
  6097 ;;		On exit  : 0/0
  6098 ;;		Unchanged: 0/0
  6099 ;; Data sizes:     COMMON   BANK0   BANK1   BANK3   BANK2
  6100 ;;      Params:         2       0       0       0       0
  6101 ;;      Locals:         0       0       0       0       0
  6102 ;;      Temps:          0       0       0       0       0
  6103 ;;      Totals:         2       0       0       0       0
  6104 ;;Total ram usage:        2 bytes
  6105 ;; Hardware stack levels used:    1
  6106 ;; Hardware stack levels required when called:    1
  6107 ;; This function calls:
  6108 ;;		_LCDwrite
  6109 ;; This function is called by:
  6110 ;;		_main
  6111 ;; This function uses a non-reentrant model
  6112 ;;
  6113                           
  6114                           
  6115                           ;psect for function _LCDisplay
  6116  086C                     _LCDisplay:	
  6117  086C                     l2145:	
  6118                           ;incstack = 0
  6119                           ; Regs used in _LCDisplay: [wreg-fsr0h+status,2+status,0+btemp+1+pclath+cstack]
  6120                           
  6121                           
  6122                           ;LCD.c: 47:     while(*val){
  6123  086C  2881               	goto	l2151
  6124  086D                     l2147:	
  6125                           
  6126                           ;LCD.c: 48:         LCDwrite(*val++);
  6127  086D  0874               	movf	LCDisplay@val+1,w
  6128  086E  00FF               	movwf	btemp+1
  6129  086F  0873               	movf	LCDisplay@val,w
  6130  0870  0084               	movwf	4
  6131  0871  120A  158A  2000  120A  158A  	fcall	stringtab
  6132  0876  120A  118A  2009  120A  158A  	fcall	_LCDwrite
  6133  087B                     l2149:	
  6134  087B  3001               	movlw	1
  6135  087C  07F3               	addwf	LCDisplay@val,f
  6136  087D  1803               	skipnc
  6137  087E  0AF4               	incf	LCDisplay@val+1,f
  6138  087F  3000               	movlw	0
  6139  0880  07F4               	addwf	LCDisplay@val+1,f
  6140  0881                     l2151:	
  6141                           
  6142                           ;LCD.c: 47:     while(*val){
  6143  0881  0874               	movf	LCDisplay@val+1,w
  6144  0882  1283               	bcf	3,5	;RP0=0, select bank0
  6145  0883  1303               	bcf	3,6	;RP1=0, select bank0
  6146  0884  00FF               	movwf	btemp+1
  6147  0885  0873               	movf	LCDisplay@val,w
  6148  0886  0084               	movwf	4
  6149  0887  120A  158A  2000  120A  158A  	fcall	stringtab
  6150  088C  3A00               	xorlw	0
  6151  088D  1D03               	skipz
  6152  088E  2890               	goto	u2601
  6153  088F  2891               	goto	u2600
  6154  0890                     u2601:	
  6155  0890  286D               	goto	l2147
  6156  0891                     u2600:	
  6157  0891                     l114:	
  6158  0891  0008               	return
  6159  0892                     __end_of_LCDisplay:	
  6160                           
  6161                           	psect	text15
  6162  0009                     __ptext15:	
  6163 ;; *************** function _LCDwrite *****************
  6164 ;; Defined at:
  6165 ;;		line 38 in file "LCD.c"
  6166 ;; Parameters:    Size  Location     Type
  6167 ;;  dato            1    wreg     unsigned char 
  6168 ;; Auto vars:     Size  Location     Type
  6169 ;;  dato            1    2[COMMON] unsigned char 
  6170 ;; Return value:  Size  Location     Type
  6171 ;;                  1    wreg      void 
  6172 ;; Registers used:
  6173 ;;		wreg
  6174 ;; Tracked objects:
  6175 ;;		On entry : 0/0
  6176 ;;		On exit  : 0/0
  6177 ;;		Unchanged: 0/0
  6178 ;; Data sizes:     COMMON   BANK0   BANK1   BANK3   BANK2
  6179 ;;      Params:         0       0       0       0       0
  6180 ;;      Locals:         1       0       0       0       0
  6181 ;;      Temps:          2       0       0       0       0
  6182 ;;      Totals:         3       0       0       0       0
  6183 ;;Total ram usage:        3 bytes
  6184 ;; Hardware stack levels used:    1
  6185 ;; This function calls:
  6186 ;;		Nothing
  6187 ;; This function is called by:
  6188 ;;		_LCDisplay
  6189 ;; This function uses a non-reentrant model
  6190 ;;
  6191                           
  6192                           
  6193                           ;psect for function _LCDwrite
  6194  0009                     _LCDwrite:	
  6195                           
  6196                           ;incstack = 0
  6197                           ; Regs used in _LCDwrite: [wreg]
  6198                           ;LCDwrite@dato stored from wreg
  6199  0009  00F2               	movwf	LCDwrite@dato
  6200  000A                     l1831:	
  6201                           
  6202                           ;LCD.c: 39:     PORTD = dato;
  6203  000A  0872               	movf	LCDwrite@dato,w
  6204  000B  1283               	bcf	3,5	;RP0=0, select bank0
  6205  000C  1303               	bcf	3,6	;RP1=0, select bank0
  6206  000D  0088               	movwf	8	;volatile
  6207  000E                     l1833:	
  6208                           
  6209                           ;LCD.c: 40:     PORTBbits.RB1 = 1;
  6210  000E  1486               	bsf	6,1	;volatile
  6211  000F                     l1835:	
  6212                           
  6213                           ;LCD.c: 41:     PORTBbits.RB0 = 1;
  6214  000F  1406               	bsf	6,0	;volatile
  6215                           
  6216                           ;LCD.c: 42:     _delay((unsigned long)((4)*(4000000/4000.0)));
  6217  0010  3006               	movlw	6
  6218  0011  00F1               	movwf	??_LCDwrite+1
  6219  0012  3030               	movlw	48
  6220  0013  00F0               	movwf	??_LCDwrite
  6221  0014                     u3677:	
  6222  0014  0BF0               	decfsz	??_LCDwrite,f
  6223  0015  2814               	goto	u3677
  6224  0016  0BF1               	decfsz	??_LCDwrite+1,f
  6225  0017  2814               	goto	u3677
  6226  0018  0000               	nop
  6227  0019                     l1837:	
  6228                           
  6229                           ;LCD.c: 43:     PORTBbits.RB0 = 0;
  6230  0019  1283               	bcf	3,5	;RP0=0, select bank0
  6231  001A  1303               	bcf	3,6	;RP1=0, select bank0
  6232  001B  1006               	bcf	6,0	;volatile
  6233  001C                     l108:	
  6234  001C  0008               	return
  6235  001D                     __end_of_LCDwrite:	
  6236                           
  6237                           	psect	text16
  6238  177F                     __ptext16:	
  6239 ;; *************** function _LCDcursorSet *****************
  6240 ;; Defined at:
  6241 ;;		line 52 in file "LCD.c"
  6242 ;; Parameters:    Size  Location     Type
  6243 ;;  row             1    wreg     unsigned char 
  6244 ;;  column          1    3[COMMON] unsigned char 
  6245 ;; Auto vars:     Size  Location     Type
  6246 ;;  row             1    4[COMMON] unsigned char 
  6247 ;; Return value:  Size  Location     Type
  6248 ;;                  1    wreg      void 
  6249 ;; Registers used:
  6250 ;;		wreg, status,2, status,0, pclath, cstack
  6251 ;; Tracked objects:
  6252 ;;		On entry : 0/0
  6253 ;;		On exit  : 0/0
  6254 ;;		Unchanged: 0/0
  6255 ;; Data sizes:     COMMON   BANK0   BANK1   BANK3   BANK2
  6256 ;;      Params:         1       0       0       0       0
  6257 ;;      Locals:         1       0       0       0       0
  6258 ;;      Temps:          0       0       0       0       0
  6259 ;;      Totals:         2       0       0       0       0
  6260 ;;Total ram usage:        2 bytes
  6261 ;; Hardware stack levels used:    1
  6262 ;; Hardware stack levels required when called:    1
  6263 ;; This function calls:
  6264 ;;		_LCDcmd
  6265 ;; This function is called by:
  6266 ;;		_main
  6267 ;; This function uses a non-reentrant model
  6268 ;;
  6269                           
  6270                           
  6271                           ;psect for function _LCDcursorSet
  6272  177F                     _LCDcursorSet:	
  6273                           
  6274                           ;incstack = 0
  6275                           ; Regs used in _LCDcursorSet: [wreg+status,2+status,0+pclath+cstack]
  6276                           ;LCDcursorSet@row stored from wreg
  6277  177F  00F4               	movwf	LCDcursorSet@row
  6278  1780                     l2137:	
  6279                           
  6280                           ;LCD.c: 53:     if (row == 1){
  6281  1780  0374               	decf	LCDcursorSet@row,w
  6282  1781  1D03               	btfss	3,2
  6283  1782  2F84               	goto	u2581
  6284  1783  2F85               	goto	u2580
  6285  1784                     u2581:	
  6286  1784  2F8D               	goto	l2141
  6287  1785                     u2580:	
  6288  1785                     l2139:	
  6289                           
  6290                           ;LCD.c: 54:         LCDcmd(0x80 + column);
  6291  1785  0873               	movf	LCDcursorSet@column,w
  6292  1786  3E80               	addlw	128
  6293  1787  120A  158A  2033  160A  118A  	fcall	_LCDcmd
  6294                           
  6295                           ;LCD.c: 55:     } else if(row == 2){
  6296  178C  2F9A               	goto	l120
  6297  178D                     l2141:	
  6298  178D  3002               	movlw	2
  6299  178E  0674               	xorwf	LCDcursorSet@row,w
  6300  178F  1D03               	btfss	3,2
  6301  1790  2F92               	goto	u2591
  6302  1791  2F93               	goto	u2590
  6303  1792                     u2591:	
  6304  1792  2F9A               	goto	l120
  6305  1793                     u2590:	
  6306  1793                     l2143:	
  6307                           
  6308                           ;LCD.c: 56:         LCDcmd(0xC0 + column);
  6309  1793  0873               	movf	LCDcursorSet@column,w
  6310  1794  3EC0               	addlw	192
  6311  1795  120A  158A  2033  160A  118A  	fcall	_LCDcmd
  6312  179A                     l120:	
  6313  179A  0008               	return
  6314  179B                     __end_of_LCDcursorSet:	
  6315                           
  6316                           	psect	text17
  6317  099D                     __ptext17:	
  6318 ;; *************** function _LCD8bits_init *****************
  6319 ;; Defined at:
  6320 ;;		line 14 in file "LCD.c"
  6321 ;; Parameters:    Size  Location     Type
  6322 ;;		None
  6323 ;; Auto vars:     Size  Location     Type
  6324 ;;		None
  6325 ;; Return value:  Size  Location     Type
  6326 ;;                  1    wreg      void 
  6327 ;; Registers used:
  6328 ;;		wreg, status,2, status,0, pclath, cstack
  6329 ;; Tracked objects:
  6330 ;;		On entry : 0/0
  6331 ;;		On exit  : 0/0
  6332 ;;		Unchanged: 0/0
  6333 ;; Data sizes:     COMMON   BANK0   BANK1   BANK3   BANK2
  6334 ;;      Params:         0       0       0       0       0
  6335 ;;      Locals:         0       0       0       0       0
  6336 ;;      Temps:          2       0       0       0       0
  6337 ;;      Totals:         2       0       0       0       0
  6338 ;;Total ram usage:        2 bytes
  6339 ;; Hardware stack levels used:    1
  6340 ;; Hardware stack levels required when called:    1
  6341 ;; This function calls:
  6342 ;;		_LCDcmd
  6343 ;; This function is called by:
  6344 ;;		_main
  6345 ;; This function uses a non-reentrant model
  6346 ;;
  6347                           
  6348                           
  6349                           ;psect for function _LCD8bits_init
  6350  099D                     _LCD8bits_init:	
  6351  099D                     l2117:	
  6352                           ;incstack = 0
  6353                           ; Regs used in _LCD8bits_init: [wreg+status,2+status,0+pclath+cstack]
  6354                           
  6355                           
  6356                           ;LCD.c: 15:     _delay((unsigned long)((15)*(4000000/4000.0)));
  6357  099D  3014               	movlw	20
  6358  099E  00F4               	movwf	??_LCD8bits_init+1
  6359  099F  3079               	movlw	121
  6360  09A0  00F3               	movwf	??_LCD8bits_init
  6361  09A1                     u3687:	
  6362  09A1  0BF3               	decfsz	??_LCD8bits_init,f
  6363  09A2  29A1               	goto	u3687
  6364  09A3  0BF4               	decfsz	??_LCD8bits_init+1,f
  6365  09A4  29A1               	goto	u3687
  6366  09A5  29A6               	nop2
  6367  09A6                     l2119:	
  6368                           
  6369                           ;LCD.c: 16:     LCDcmd(0x030);
  6370  09A6  3030               	movlw	48
  6371  09A7  120A  158A  2033  120A  158A  	fcall	_LCDcmd
  6372  09AC                     l2121:	
  6373                           
  6374                           ;LCD.c: 17:     _delay((unsigned long)((5)*(4000000/4000.0)));
  6375  09AC  3007               	movlw	7
  6376  09AD  00F4               	movwf	??_LCD8bits_init+1
  6377  09AE  307D               	movlw	125
  6378  09AF  00F3               	movwf	??_LCD8bits_init
  6379  09B0                     u3697:	
  6380  09B0  0BF3               	decfsz	??_LCD8bits_init,f
  6381  09B1  29B0               	goto	u3697
  6382  09B2  0BF4               	decfsz	??_LCD8bits_init+1,f
  6383  09B3  29B0               	goto	u3697
  6384                           
  6385                           ;LCD.c: 18:     LCDcmd(0x030);
  6386  09B4  3030               	movlw	48
  6387  09B5  120A  158A  2033  120A  158A  	fcall	_LCDcmd
  6388  09BA                     l2123:	
  6389                           
  6390                           ;LCD.c: 19:     _delay((unsigned long)((11)*(4000000/4000.0)));
  6391  09BA  300F               	movlw	15
  6392  09BB  00F4               	movwf	??_LCD8bits_init+1
  6393  09BC  3047               	movlw	71
  6394  09BD  00F3               	movwf	??_LCD8bits_init
  6395  09BE                     u3707:	
  6396  09BE  0BF3               	decfsz	??_LCD8bits_init,f
  6397  09BF  29BE               	goto	u3707
  6398  09C0  0BF4               	decfsz	??_LCD8bits_init+1,f
  6399  09C1  29BE               	goto	u3707
  6400  09C2  29C3               	nop2
  6401  09C3                     l2125:	
  6402                           
  6403                           ;LCD.c: 20:     LCDcmd(0x030);
  6404  09C3  3030               	movlw	48
  6405  09C4  120A  158A  2033  120A  158A  	fcall	_LCDcmd
  6406                           
  6407                           ;LCD.c: 21:     _delay((unsigned long)((160)*(4000000/4000.0)));
  6408  09C9  30D0               	movlw	208
  6409  09CA  00F4               	movwf	??_LCD8bits_init+1
  6410  09CB  30C9               	movlw	201
  6411  09CC  00F3               	movwf	??_LCD8bits_init
  6412  09CD                     u3717:	
  6413  09CD  0BF3               	decfsz	??_LCD8bits_init,f
  6414  09CE  29CD               	goto	u3717
  6415  09CF  0BF4               	decfsz	??_LCD8bits_init+1,f
  6416  09D0  29CD               	goto	u3717
  6417  09D1  29D2               	nop2
  6418  09D2                     l2127:	
  6419                           
  6420                           ;LCD.c: 22:     LCDcmd(0x38);
  6421  09D2  3038               	movlw	56
  6422  09D3  120A  158A  2033  120A  158A  	fcall	_LCDcmd
  6423  09D8                     l2129:	
  6424                           
  6425                           ;LCD.c: 23:     LCDcmd(0x10);
  6426  09D8  3010               	movlw	16
  6427  09D9  120A  158A  2033  120A  158A  	fcall	_LCDcmd
  6428  09DE                     l2131:	
  6429                           
  6430                           ;LCD.c: 24:     LCDcmd(0x01);
  6431  09DE  3001               	movlw	1
  6432  09DF  120A  158A  2033  120A  158A  	fcall	_LCDcmd
  6433  09E4                     l2133:	
  6434                           
  6435                           ;LCD.c: 25:     LCDcmd(0x06);
  6436  09E4  3006               	movlw	6
  6437  09E5  120A  158A  2033  120A  158A  	fcall	_LCDcmd
  6438  09EA                     l2135:	
  6439                           
  6440                           ;LCD.c: 26:     LCDcmd(0x0C);
  6441  09EA  300C               	movlw	12
  6442  09EB  120A  158A  2033  120A  158A  	fcall	_LCDcmd
  6443  09F0                     l102:	
  6444  09F0  0008               	return
  6445  09F1                     __end_of_LCD8bits_init:	
  6446                           
  6447                           	psect	text18
  6448  0833                     __ptext18:	
  6449 ;; *************** function _LCDcmd *****************
  6450 ;; Defined at:
  6451 ;;		line 30 in file "LCD.c"
  6452 ;; Parameters:    Size  Location     Type
  6453 ;;  cmd             1    wreg     unsigned char 
  6454 ;; Auto vars:     Size  Location     Type
  6455 ;;  cmd             1    2[COMMON] unsigned char 
  6456 ;; Return value:  Size  Location     Type
  6457 ;;                  1    wreg      void 
  6458 ;; Registers used:
  6459 ;;		wreg
  6460 ;; Tracked objects:
  6461 ;;		On entry : 0/0
  6462 ;;		On exit  : 0/0
  6463 ;;		Unchanged: 0/0
  6464 ;; Data sizes:     COMMON   BANK0   BANK1   BANK3   BANK2
  6465 ;;      Params:         0       0       0       0       0
  6466 ;;      Locals:         1       0       0       0       0
  6467 ;;      Temps:          2       0       0       0       0
  6468 ;;      Totals:         3       0       0       0       0
  6469 ;;Total ram usage:        3 bytes
  6470 ;; Hardware stack levels used:    1
  6471 ;; This function calls:
  6472 ;;		Nothing
  6473 ;; This function is called by:
  6474 ;;		_LCD8bits_init
  6475 ;;		_LCDcursorSet
  6476 ;; This function uses a non-reentrant model
  6477 ;;
  6478                           
  6479                           
  6480                           ;psect for function _LCDcmd
  6481  0833                     _LCDcmd:	
  6482                           
  6483                           ;incstack = 0
  6484                           ; Regs used in _LCDcmd: [wreg]
  6485                           ;LCDcmd@cmd stored from wreg
  6486  0833  00F2               	movwf	LCDcmd@cmd
  6487  0834                     l1823:	
  6488                           
  6489                           ;LCD.c: 31:     PORTD = cmd;
  6490  0834  0872               	movf	LCDcmd@cmd,w
  6491  0835  1283               	bcf	3,5	;RP0=0, select bank0
  6492  0836  1303               	bcf	3,6	;RP1=0, select bank0
  6493  0837  0088               	movwf	8	;volatile
  6494  0838                     l1825:	
  6495                           
  6496                           ;LCD.c: 32:     PORTBbits.RB1 = 0;
  6497  0838  1086               	bcf	6,1	;volatile
  6498  0839                     l1827:	
  6499                           
  6500                           ;LCD.c: 33:     PORTBbits.RB0 = 1;
  6501  0839  1406               	bsf	6,0	;volatile
  6502                           
  6503                           ;LCD.c: 34:     _delay((unsigned long)((4)*(4000000/4000.0)));
  6504  083A  3006               	movlw	6
  6505  083B  00F1               	movwf	??_LCDcmd+1
  6506  083C  3030               	movlw	48
  6507  083D  00F0               	movwf	??_LCDcmd
  6508  083E                     u3727:	
  6509  083E  0BF0               	decfsz	??_LCDcmd,f
  6510  083F  283E               	goto	u3727
  6511  0840  0BF1               	decfsz	??_LCDcmd+1,f
  6512  0841  283E               	goto	u3727
  6513  0842  0000               	nop
  6514  0843                     l1829:	
  6515                           
  6516                           ;LCD.c: 35:     PORTBbits.RB0 = 0;
  6517  0843  1283               	bcf	3,5	;RP0=0, select bank0
  6518  0844  1303               	bcf	3,6	;RP1=0, select bank0
  6519  0845  1006               	bcf	6,0	;volatile
  6520  0846                     l105:	
  6521  0846  0008               	return
  6522  0847                     __end_of_LCDcmd:	
  6523                           
  6524                           	psect	text19
  6525  1768                     __ptext19:	
  6526 ;; *************** function _I2C_Master_Write *****************
  6527 ;; Defined at:
  6528 ;;		line 66 in file "I2C.c"
  6529 ;; Parameters:    Size  Location     Type
  6530 ;;  d               2    0[COMMON] unsigned int 
  6531 ;; Auto vars:     Size  Location     Type
  6532 ;;		None
  6533 ;; Return value:  Size  Location     Type
  6534 ;;                  1    wreg      void 
  6535 ;; Registers used:
  6536 ;;		wreg, status,2, status,0, pclath, cstack
  6537 ;; Tracked objects:
  6538 ;;		On entry : 0/0
  6539 ;;		On exit  : 0/0
  6540 ;;		Unchanged: 0/0
  6541 ;; Data sizes:     COMMON   BANK0   BANK1   BANK3   BANK2
  6542 ;;      Params:         2       0       0       0       0
  6543 ;;      Locals:         0       0       0       0       0
  6544 ;;      Temps:          0       0       0       0       0
  6545 ;;      Totals:         2       0       0       0       0
  6546 ;;Total ram usage:        2 bytes
  6547 ;; Hardware stack levels used:    1
  6548 ;; Hardware stack levels required when called:    1
  6549 ;; This function calls:
  6550 ;;		_I2C_Master_Wait
  6551 ;; This function is called by:
  6552 ;;		_main
  6553 ;; This function uses a non-reentrant model
  6554 ;;
  6555                           
  6556                           
  6557                           ;psect for function _I2C_Master_Write
  6558  1768                     _I2C_Master_Write:	
  6559  1768                     l2157:	
  6560                           ;incstack = 0
  6561                           ; Regs used in _I2C_Master_Write: [wreg+status,2+status,0+pclath+cstack]
  6562                           
  6563                           
  6564                           ;I2C.c: 66: void I2C_Master_Write(unsigned d);I2C.c: 67: {;I2C.c: 68:     I2C_Master_Wai
      +                          t();
  6565  1768  160A  118A  2772  160A  118A  	fcall	_I2C_Master_Wait
  6566  176D                     l2159:	
  6567                           
  6568                           ;I2C.c: 69:     SSPBUF = d;
  6569  176D  0870               	movf	I2C_Master_Write@d,w
  6570  176E  1283               	bcf	3,5	;RP0=0, select bank0
  6571  176F  1303               	bcf	3,6	;RP1=0, select bank0
  6572  1770  0093               	movwf	19	;volatile
  6573  1771                     l167:	
  6574  1771  0008               	return
  6575  1772                     __end_of_I2C_Master_Write:	
  6576                           
  6577                           	psect	text20
  6578  175F                     __ptext20:	
  6579 ;; *************** function _I2C_Master_Stop *****************
  6580 ;; Defined at:
  6581 ;;		line 56 in file "I2C.c"
  6582 ;; Parameters:    Size  Location     Type
  6583 ;;		None
  6584 ;; Auto vars:     Size  Location     Type
  6585 ;;		None
  6586 ;; Return value:  Size  Location     Type
  6587 ;;                  1    wreg      void 
  6588 ;; Registers used:
  6589 ;;		wreg, status,2, status,0, pclath, cstack
  6590 ;; Tracked objects:
  6591 ;;		On entry : 0/0
  6592 ;;		On exit  : 0/0
  6593 ;;		Unchanged: 0/0
  6594 ;; Data sizes:     COMMON   BANK0   BANK1   BANK3   BANK2
  6595 ;;      Params:         0       0       0       0       0
  6596 ;;      Locals:         0       0       0       0       0
  6597 ;;      Temps:          0       0       0       0       0
  6598 ;;      Totals:         0       0       0       0       0
  6599 ;;Total ram usage:        0 bytes
  6600 ;; Hardware stack levels used:    1
  6601 ;; Hardware stack levels required when called:    1
  6602 ;; This function calls:
  6603 ;;		_I2C_Master_Wait
  6604 ;; This function is called by:
  6605 ;;		_main
  6606 ;; This function uses a non-reentrant model
  6607 ;;
  6608                           
  6609                           
  6610                           ;psect for function _I2C_Master_Stop
  6611  175F                     _I2C_Master_Stop:	
  6612  175F                     l2161:	
  6613                           ;incstack = 0
  6614                           ; Regs used in _I2C_Master_Stop: [wreg+status,2+status,0+pclath+cstack]
  6615                           
  6616                           
  6617                           ;I2C.c: 58:     I2C_Master_Wait();
  6618  175F  160A  118A  2772  160A  118A  	fcall	_I2C_Master_Wait
  6619  1764                     l2163:	
  6620                           
  6621                           ;I2C.c: 59:     SSPCON2bits.PEN = 1;
  6622  1764  1683               	bsf	3,5	;RP0=1, select bank1
  6623  1765  1303               	bcf	3,6	;RP1=0, select bank1
  6624  1766  1511               	bsf	17,2	;volatile
  6625  1767                     l164:	
  6626  1767  0008               	return
  6627  1768                     __end_of_I2C_Master_Stop:	
  6628                           
  6629                           	psect	text21
  6630  1756                     __ptext21:	
  6631 ;; *************** function _I2C_Master_Start *****************
  6632 ;; Defined at:
  6633 ;;		line 40 in file "I2C.c"
  6634 ;; Parameters:    Size  Location     Type
  6635 ;;		None
  6636 ;; Auto vars:     Size  Location     Type
  6637 ;;		None
  6638 ;; Return value:  Size  Location     Type
  6639 ;;                  1    wreg      void 
  6640 ;; Registers used:
  6641 ;;		wreg, status,2, status,0, pclath, cstack
  6642 ;; Tracked objects:
  6643 ;;		On entry : 0/0
  6644 ;;		On exit  : 0/0
  6645 ;;		Unchanged: 0/0
  6646 ;; Data sizes:     COMMON   BANK0   BANK1   BANK3   BANK2
  6647 ;;      Params:         0       0       0       0       0
  6648 ;;      Locals:         0       0       0       0       0
  6649 ;;      Temps:          0       0       0       0       0
  6650 ;;      Totals:         0       0       0       0       0
  6651 ;;Total ram usage:        0 bytes
  6652 ;; Hardware stack levels used:    1
  6653 ;; Hardware stack levels required when called:    1
  6654 ;; This function calls:
  6655 ;;		_I2C_Master_Wait
  6656 ;; This function is called by:
  6657 ;;		_main
  6658 ;; This function uses a non-reentrant model
  6659 ;;
  6660                           
  6661                           
  6662                           ;psect for function _I2C_Master_Start
  6663  1756                     _I2C_Master_Start:	
  6664  1756                     l2153:	
  6665                           ;incstack = 0
  6666                           ; Regs used in _I2C_Master_Start: [wreg+status,2+status,0+pclath+cstack]
  6667                           
  6668                           
  6669                           ;I2C.c: 42:     I2C_Master_Wait();
  6670  1756  160A  118A  2772  160A  118A  	fcall	_I2C_Master_Wait
  6671  175B                     l2155:	
  6672                           
  6673                           ;I2C.c: 43:     SSPCON2bits.SEN = 1;
  6674  175B  1683               	bsf	3,5	;RP0=1, select bank1
  6675  175C  1303               	bcf	3,6	;RP1=0, select bank1
  6676  175D  1411               	bsf	17,0	;volatile
  6677  175E                     l158:	
  6678  175E  0008               	return
  6679  175F                     __end_of_I2C_Master_Start:	
  6680                           
  6681                           	psect	text22
  6682  08B9                     __ptext22:	
  6683 ;; *************** function _I2C_Master_Read *****************
  6684 ;; Defined at:
  6685 ;;		line 75 in file "I2C.c"
  6686 ;; Parameters:    Size  Location     Type
  6687 ;;  a               2    0[COMMON] unsigned short 
  6688 ;; Auto vars:     Size  Location     Type
  6689 ;;  temp            2    4[COMMON] unsigned short 
  6690 ;; Return value:  Size  Location     Type
  6691 ;;                  2    0[COMMON] unsigned short 
  6692 ;; Registers used:
  6693 ;;		wreg, status,2, status,0, pclath, cstack
  6694 ;; Tracked objects:
  6695 ;;		On entry : 0/0
  6696 ;;		On exit  : 0/0
  6697 ;;		Unchanged: 0/0
  6698 ;; Data sizes:     COMMON   BANK0   BANK1   BANK3   BANK2
  6699 ;;      Params:         2       0       0       0       0
  6700 ;;      Locals:         2       0       0       0       0
  6701 ;;      Temps:          2       0       0       0       0
  6702 ;;      Totals:         6       0       0       0       0
  6703 ;;Total ram usage:        6 bytes
  6704 ;; Hardware stack levels used:    1
  6705 ;; Hardware stack levels required when called:    1
  6706 ;; This function calls:
  6707 ;;		_I2C_Master_Wait
  6708 ;; This function is called by:
  6709 ;;		_main
  6710 ;; This function uses a non-reentrant model
  6711 ;;
  6712                           
  6713                           
  6714                           ;psect for function _I2C_Master_Read
  6715  08B9                     _I2C_Master_Read:	
  6716  08B9                     l2165:	
  6717                           ;incstack = 0
  6718                           ; Regs used in _I2C_Master_Read: [wreg+status,2+status,0+pclath+cstack]
  6719                           
  6720                           
  6721                           ;I2C.c: 75: unsigned short I2C_Master_Read(unsigned short a);I2C.c: 76: {;I2C.c: 77:    
      +                           unsigned short temp;;I2C.c: 78:     I2C_Master_Wait();
  6722  08B9  160A  118A  2772  120A  158A  	fcall	_I2C_Master_Wait
  6723  08BE                     l2167:	
  6724                           
  6725                           ;I2C.c: 79:     SSPCON2bits.RCEN = 1;
  6726  08BE  1683               	bsf	3,5	;RP0=1, select bank1
  6727  08BF  1303               	bcf	3,6	;RP1=0, select bank1
  6728  08C0  1591               	bsf	17,3	;volatile
  6729                           
  6730                           ;I2C.c: 80:     I2C_Master_Wait();
  6731  08C1  160A  118A  2772  120A  158A  	fcall	_I2C_Master_Wait
  6732  08C6                     l2169:	
  6733                           
  6734                           ;I2C.c: 81:     temp = SSPBUF;
  6735  08C6  1283               	bcf	3,5	;RP0=0, select bank0
  6736  08C7  1303               	bcf	3,6	;RP1=0, select bank0
  6737  08C8  0813               	movf	19,w	;volatile
  6738  08C9  00F2               	movwf	??_I2C_Master_Read
  6739  08CA  01F3               	clrf	??_I2C_Master_Read+1
  6740  08CB  0872               	movf	??_I2C_Master_Read,w
  6741  08CC  00F4               	movwf	I2C_Master_Read@temp
  6742  08CD  0873               	movf	??_I2C_Master_Read+1,w
  6743  08CE  00F5               	movwf	I2C_Master_Read@temp+1
  6744  08CF                     l2171:	
  6745                           
  6746                           ;I2C.c: 82:     I2C_Master_Wait();
  6747  08CF  160A  118A  2772  120A  158A  	fcall	_I2C_Master_Wait
  6748  08D4                     l2173:	
  6749                           
  6750                           ;I2C.c: 83:     if(a == 1){
  6751  08D4  0370               	decf	I2C_Master_Read@a,w
  6752  08D5  0471               	iorwf	I2C_Master_Read@a+1,w
  6753  08D6  1D03               	btfss	3,2
  6754  08D7  28D9               	goto	u2611
  6755  08D8  28DA               	goto	u2610
  6756  08D9                     u2611:	
  6757  08D9  28DE               	goto	l170
  6758  08DA                     u2610:	
  6759  08DA                     l2175:	
  6760                           
  6761                           ;I2C.c: 84:         SSPCON2bits.ACKDT = 0;
  6762  08DA  1683               	bsf	3,5	;RP0=1, select bank1
  6763  08DB  1303               	bcf	3,6	;RP1=0, select bank1
  6764  08DC  1291               	bcf	17,5	;volatile
  6765                           
  6766                           ;I2C.c: 85:     }else{
  6767  08DD  28E1               	goto	l171
  6768  08DE                     l170:	
  6769                           
  6770                           ;I2C.c: 86:         SSPCON2bits.ACKDT = 1;
  6771  08DE  1683               	bsf	3,5	;RP0=1, select bank1
  6772  08DF  1303               	bcf	3,6	;RP1=0, select bank1
  6773  08E0  1691               	bsf	17,5	;volatile
  6774  08E1                     l171:	
  6775                           ;I2C.c: 87:     }
  6776                           
  6777                           
  6778                           ;I2C.c: 88:     SSPCON2bits.ACKEN = 1;
  6779  08E1  1611               	bsf	17,4	;volatile
  6780  08E2                     l2177:	
  6781                           
  6782                           ;I2C.c: 89:     return temp;
  6783  08E2  0875               	movf	I2C_Master_Read@temp+1,w
  6784  08E3  00F1               	movwf	?_I2C_Master_Read+1
  6785  08E4  0874               	movf	I2C_Master_Read@temp,w
  6786  08E5  00F0               	movwf	?_I2C_Master_Read
  6787  08E6                     l172:	
  6788  08E6  0008               	return
  6789  08E7                     __end_of_I2C_Master_Read:	
  6790                           
  6791                           	psect	text23
  6792  1772                     __ptext23:	
  6793 ;; *************** function _I2C_Master_Wait *****************
  6794 ;; Defined at:
  6795 ;;		line 33 in file "I2C.c"
  6796 ;; Parameters:    Size  Location     Type
  6797 ;;		None
  6798 ;; Auto vars:     Size  Location     Type
  6799 ;;		None
  6800 ;; Return value:  Size  Location     Type
  6801 ;;                  1    wreg      void 
  6802 ;; Registers used:
  6803 ;;		wreg, status,2
  6804 ;; Tracked objects:
  6805 ;;		On entry : 0/0
  6806 ;;		On exit  : 0/0
  6807 ;;		Unchanged: 0/0
  6808 ;; Data sizes:     COMMON   BANK0   BANK1   BANK3   BANK2
  6809 ;;      Params:         0       0       0       0       0
  6810 ;;      Locals:         0       0       0       0       0
  6811 ;;      Temps:          0       0       0       0       0
  6812 ;;      Totals:         0       0       0       0       0
  6813 ;;Total ram usage:        0 bytes
  6814 ;; Hardware stack levels used:    1
  6815 ;; This function calls:
  6816 ;;		Nothing
  6817 ;; This function is called by:
  6818 ;;		_I2C_Master_Start
  6819 ;;		_I2C_Master_Stop
  6820 ;;		_I2C_Master_Write
  6821 ;;		_I2C_Master_Read
  6822 ;;		_I2C_Master_RepeatedStart
  6823 ;; This function uses a non-reentrant model
  6824 ;;
  6825                           
  6826                           
  6827                           ;psect for function _I2C_Master_Wait
  6828  1772                     _I2C_Master_Wait:	
  6829  1772                     l1839:	
  6830                           ;incstack = 0
  6831                           ; Regs used in _I2C_Master_Wait: [wreg+status,2]
  6832                           
  6833  1772                     l152:	
  6834                           ;I2C.c: 35:     while ((SSPSTAT & 0x04) || (SSPCON2 & 0x1F));
  6835                           
  6836  1772  1683               	bsf	3,5	;RP0=1, select bank1
  6837  1773  1303               	bcf	3,6	;RP1=0, select bank1
  6838  1774  1914               	btfsc	20,2	;volatile
  6839  1775  2F77               	goto	u1901
  6840  1776  2F78               	goto	u1900
  6841  1777                     u1901:	
  6842  1777  2F72               	goto	l152
  6843  1778                     u1900:	
  6844  1778                     l1841:	
  6845  1778  0811               	movf	17,w	;volatile
  6846  1779  391F               	andlw	31
  6847  177A  1D03               	btfss	3,2
  6848  177B  2F7D               	goto	u1911
  6849  177C  2F7E               	goto	u1910
  6850  177D                     u1911:	
  6851  177D  2F72               	goto	l152
  6852  177E                     u1910:	
  6853  177E                     l155:	
  6854  177E  0008               	return
  6855  177F                     __end_of_I2C_Master_Wait:	
  6856                           
  6857                           	psect	text24
  6858  0847                     __ptext24:	
  6859 ;; *************** function _BCD_2_DEC *****************
  6860 ;; Defined at:
  6861 ;;		line 177 in file "main.c"
  6862 ;; Parameters:    Size  Location     Type
  6863 ;;  to_convert      2    6[COMMON] int 
  6864 ;; Auto vars:     Size  Location     Type
  6865 ;;		None
  6866 ;; Return value:  Size  Location     Type
  6867 ;;                  2    6[COMMON] int 
  6868 ;; Registers used:
  6869 ;;		wreg, status,2, status,0, pclath, cstack
  6870 ;; Tracked objects:
  6871 ;;		On entry : 0/0
  6872 ;;		On exit  : 0/0
  6873 ;;		Unchanged: 0/0
  6874 ;; Data sizes:     COMMON   BANK0   BANK1   BANK3   BANK2
  6875 ;;      Params:         2       0       0       0       0
  6876 ;;      Locals:         0       0       0       0       0
  6877 ;;      Temps:          2       0       0       0       0
  6878 ;;      Totals:         4       0       0       0       0
  6879 ;;Total ram usage:        4 bytes
  6880 ;; Hardware stack levels used:    1
  6881 ;; Hardware stack levels required when called:    1
  6882 ;; This function calls:
  6883 ;;		___wmul
  6884 ;; This function is called by:
  6885 ;;		_main
  6886 ;; This function uses a non-reentrant model
  6887 ;;
  6888                           
  6889                           
  6890                           ;psect for function _BCD_2_DEC
  6891  0847                     _BCD_2_DEC:	
  6892  0847                     l2181:	
  6893                           ;incstack = 0
  6894                           ; Regs used in _BCD_2_DEC: [wreg+status,2+status,0+pclath+cstack]
  6895                           
  6896                           
  6897                           ;main.c: 177: int BCD_2_DEC(int to_convert);main.c: 178: {;main.c: 179:    return (to_co
      +                          nvert >> 4) * 10 + (to_convert & 0x0F);
  6898  0847  300F               	movlw	15
  6899  0848  0576               	andwf	BCD_2_DEC@to_convert,w
  6900  0849  00F8               	movwf	??_BCD_2_DEC
  6901  084A  3000               	movlw	0
  6902  084B  0577               	andwf	BCD_2_DEC@to_convert+1,w
  6903  084C  00F9               	movwf	??_BCD_2_DEC+1
  6904  084D  0E76               	swapf	BCD_2_DEC@to_convert,w
  6905  084E  390F               	andlw	15
  6906  084F  00F0               	movwf	___wmul@multiplier
  6907  0850  0E77               	swapf	BCD_2_DEC@to_convert+1,w
  6908  0851  39F0               	andlw	240
  6909  0852  04F0               	iorwf	___wmul@multiplier,f
  6910  0853  0E77               	swapf	BCD_2_DEC@to_convert+1,w
  6911  0854  390F               	andlw	15
  6912  0855  00F1               	movwf	___wmul@multiplier+1
  6913  0856  30F0               	movlw	240
  6914  0857  1DF1               	btfss	___wmul@multiplier+1,3
  6915  0858  3000               	movlw	0
  6916  0859  04F1               	iorwf	___wmul@multiplier+1,f
  6917  085A  300A               	movlw	10
  6918  085B  00F2               	movwf	___wmul@multiplicand
  6919  085C  3000               	movlw	0
  6920  085D  00F3               	movwf	___wmul@multiplicand+1
  6921  085E  160A  118A  27DB  120A  158A  	fcall	___wmul
  6922  0863  0878               	movf	??_BCD_2_DEC,w
  6923  0864  0770               	addwf	?___wmul,w
  6924  0865  00F6               	movwf	?_BCD_2_DEC
  6925  0866  0879               	movf	??_BCD_2_DEC+1,w
  6926  0867  1803               	skipnc
  6927  0868  0A79               	incf	??_BCD_2_DEC+1,w
  6928  0869  0771               	addwf	?___wmul+1,w
  6929  086A  00F7               	movwf	?_BCD_2_DEC+1
  6930  086B                     l88:	
  6931  086B  0008               	return
  6932  086C                     __end_of_BCD_2_DEC:	
  6933                           
  6934                           	psect	text25
  6935  17DB                     __ptext25:	
  6936 ;; *************** function ___wmul *****************
  6937 ;; Defined at:
  6938 ;;		line 15 in file "C:\Program Files (x86)\Microchip\xc8\v2.10\pic\sources\c90\common\Umul16.c"
  6939 ;; Parameters:    Size  Location     Type
  6940 ;;  multiplier      2    0[COMMON] unsigned int 
  6941 ;;  multiplicand    2    2[COMMON] unsigned int 
  6942 ;; Auto vars:     Size  Location     Type
  6943 ;;  product         2    4[COMMON] unsigned int 
  6944 ;; Return value:  Size  Location     Type
  6945 ;;                  2    0[COMMON] unsigned int 
  6946 ;; Registers used:
  6947 ;;		wreg, status,2, status,0
  6948 ;; Tracked objects:
  6949 ;;		On entry : 0/0
  6950 ;;		On exit  : 0/0
  6951 ;;		Unchanged: 0/0
  6952 ;; Data sizes:     COMMON   BANK0   BANK1   BANK3   BANK2
  6953 ;;      Params:         4       0       0       0       0
  6954 ;;      Locals:         2       0       0       0       0
  6955 ;;      Temps:          0       0       0       0       0
  6956 ;;      Totals:         6       0       0       0       0
  6957 ;;Total ram usage:        6 bytes
  6958 ;; Hardware stack levels used:    1
  6959 ;; This function calls:
  6960 ;;		Nothing
  6961 ;; This function is called by:
  6962 ;;		_BCD_2_DEC
  6963 ;; This function uses a non-reentrant model
  6964 ;;
  6965                           
  6966                           
  6967                           ;psect for function ___wmul
  6968  17DB                     ___wmul:	
  6969  17DB                     l1843:	
  6970                           ;incstack = 0
  6971                           ; Regs used in ___wmul: [wreg+status,2+status,0]
  6972                           
  6973  17DB  01F4               	clrf	___wmul@product
  6974  17DC  01F5               	clrf	___wmul@product+1
  6975  17DD                     l1845:	
  6976  17DD  1C70               	btfss	___wmul@multiplier,0
  6977  17DE  2FE0               	goto	u1921
  6978  17DF  2FE1               	goto	u1920
  6979  17E0                     u1921:	
  6980  17E0  2FE7               	goto	l289
  6981  17E1                     u1920:	
  6982  17E1                     l1847:	
  6983  17E1  0872               	movf	___wmul@multiplicand,w
  6984  17E2  07F4               	addwf	___wmul@product,f
  6985  17E3  1803               	skipnc
  6986  17E4  0AF5               	incf	___wmul@product+1,f
  6987  17E5  0873               	movf	___wmul@multiplicand+1,w
  6988  17E6  07F5               	addwf	___wmul@product+1,f
  6989  17E7                     l289:	
  6990  17E7  3001               	movlw	1
  6991  17E8                     u1935:	
  6992  17E8  1003               	clrc
  6993  17E9  0DF2               	rlf	___wmul@multiplicand,f
  6994  17EA  0DF3               	rlf	___wmul@multiplicand+1,f
  6995  17EB  3EFF               	addlw	-1
  6996  17EC  1D03               	skipz
  6997  17ED  2FE8               	goto	u1935
  6998  17EE                     l1849:	
  6999  17EE  3001               	movlw	1
  7000  17EF                     u1945:	
  7001  17EF  1003               	clrc
  7002  17F0  0CF1               	rrf	___wmul@multiplier+1,f
  7003  17F1  0CF0               	rrf	___wmul@multiplier,f
  7004  17F2  3EFF               	addlw	-1
  7005  17F3  1D03               	skipz
  7006  17F4  2FEF               	goto	u1945
  7007  17F5                     l1851:	
  7008  17F5  0870               	movf	___wmul@multiplier,w
  7009  17F6  0471               	iorwf	___wmul@multiplier+1,w
  7010  17F7  1D03               	btfss	3,2
  7011  17F8  2FFA               	goto	u1951
  7012  17F9  2FFB               	goto	u1950
  7013  17FA                     u1951:	
  7014  17FA  2FDD               	goto	l1845
  7015  17FB                     u1950:	
  7016  17FB                     l1853:	
  7017  17FB  0875               	movf	___wmul@product+1,w
  7018  17FC  00F1               	movwf	?___wmul+1
  7019  17FD  0874               	movf	___wmul@product,w
  7020  17FE  00F0               	movwf	?___wmul
  7021  17FF                     l291:	
  7022  17FF  0008               	return
  7023  1800                     __end_of___wmul:	
  7024  007E                     btemp	set	126	;btemp
  7025  007E                     wtemp0	set	126


Data Sizes:
    Strings     25
    Constant    10
    Data        0
    BSS         26
    Persistent  0
    Stack       0

Auto Spaces:
    Space          Size  Autos    Used
    COMMON           14     14      14
    BANK0            80     72      79
    BANK1            80      0      19
    BANK3            96      0       0
    BANK2            96      0       0

Pointer List with Targets:

    sprintf@f	PTR const unsigned char  size(1) Largest target is 3
		 -> STR_8(CODE[3]), STR_7(CODE[3]), STR_6(CODE[3]), STR_5(CODE[3]), 
		 -> STR_4(CODE[3]), 

    sprintf@sp	PTR unsigned char  size(1) Largest target is 3
		 -> decpot1(BANK1[2]), potStr1(BANK1[3]), contStr(BANK0[1]), min1(BANK1[2]), 
		 -> sec1(BANK1[2]), 

    sprintf@ap	PTR void [1] size(1) Largest target is 2
		 -> ?_sprintf(BANK0[2]), 

    LCDisplay@val	PTR unsigned char  size(2) Largest target is 6
		 -> STR_15(CODE[2]), STR_14(CODE[2]), STR_13(CODE[2]), STR_12(CODE[2]), 
		 -> STR_11(CODE[2]), STR_10(CODE[2]), STR_9(CODE[2]), decpot1(BANK1[2]), 
		 -> potStr1(BANK1[3]), contStr(BANK0[1]), min1(BANK1[2]), sec1(BANK1[2]), 
		 -> STR_3(CODE[6]), STR_2(CODE[6]), STR_1(CODE[4]), 


Critical Paths under _main in COMMON

    _main->___xxtofl
    _sprintf->___lwmod
    ___lwmod->___lwdiv
    _I2C_Master_Init->___lldiv
    ___flsub->___xxtofl
    ___flmul->___xxtofl
    _LCDisplay->_LCDwrite
    _LCDcursorSet->_LCDcmd
    _LCD8bits_init->_LCDcmd
    _BCD_2_DEC->_I2C_Master_Read
    _BCD_2_DEC->___wmul

Critical Paths under _main in BANK0

    _main->___fldiv
    _config->_I2C_Master_Init
    ___flsub->___fladd
    ___flmul->___flsub
    ___fldiv->___flmul

Critical Paths under _main in BANK1

    None.

Critical Paths under _main in BANK3

    None.

Critical Paths under _main in BANK2

    None.

Call Graph Tables:

 ---------------------------------------------------------------------------------
 (Depth) Function   	        Calls       Base Space   Used Autos Params    Refs
 ---------------------------------------------------------------------------------
 (0) _main                                                 4     4      0   12683
                                             68 BANK0      4     4      0
                          _BCD_2_DEC
                    _I2C_Master_Read
                   _I2C_Master_Start
                    _I2C_Master_Stop
                   _I2C_Master_Write
                      _LCD8bits_init
                       _LCDcursorSet
                          _LCDisplay
                            ___fldiv
                            ___flmul
                            ___flsub
                            ___fltol
                           ___xxtofl
                             _config
                            _sprintf
 ---------------------------------------------------------------------------------
 (1) _sprintf                                             21    18      3    1647
                                              0 BANK0     13    10      3
                            ___lwdiv
                            ___lwmod
 ---------------------------------------------------------------------------------
 (2) ___lwmod                                              6     2      4     311
                                              8 COMMON     6     2      4
                            ___lwdiv (ARG)
 ---------------------------------------------------------------------------------
 (2) ___lwdiv                                              8     4      4     314
                                              0 COMMON     8     4      4
 ---------------------------------------------------------------------------------
 (1) _config                                               0     0      0     412
                    _I2C_Master_Init
 ---------------------------------------------------------------------------------
 (2) _I2C_Master_Init                                      8     4      4     412
                                              0 BANK0      8     4      4
                            ___lldiv
 ---------------------------------------------------------------------------------
 (3) ___lldiv                                             14     6      8     314
                                              0 COMMON    14     6      8
 ---------------------------------------------------------------------------------
 (1) ___xxtofl                                            14    10      4     474
                                              0 COMMON    14    10      4
 ---------------------------------------------------------------------------------
 (1) ___fltol                                             11     7      4     381
                                              0 COMMON    11     7      4
 ---------------------------------------------------------------------------------
 (1) ___flsub                                              8     0      8    2333
                                              8 BANK0      8     0      8
                            ___fladd
                           ___xxtofl (ARG)
 ---------------------------------------------------------------------------------
 (2) ___fladd                                             20    12      8    2136
                                              0 COMMON    12     4      8
                                              0 BANK0      8     8      0
 ---------------------------------------------------------------------------------
 (1) ___flmul                                             26    18      8    2569
                                             16 BANK0     26    18      8
                          __Umul8_16
                            ___flsub (ARG)
                           ___xxtofl (ARG)
 ---------------------------------------------------------------------------------
 (2) __Umul8_16                                            9     7      2     799
                                              0 COMMON     9     7      2
 ---------------------------------------------------------------------------------
 (1) ___fldiv                                             26    18      8    1273
                                             42 BANK0     26    18      8
                            ___flmul (ARG)
 ---------------------------------------------------------------------------------
 (1) _LCDisplay                                            2     0      2    1511
                                              3 COMMON     2     0      2
                           _LCDwrite
 ---------------------------------------------------------------------------------
 (2) _LCDwrite                                             3     3      0      22
                                              0 COMMON     3     3      0
 ---------------------------------------------------------------------------------
 (1) _LCDcursorSet                                         2     1      1     642
                                              3 COMMON     2     1      1
                             _LCDcmd
 ---------------------------------------------------------------------------------
 (1) _LCD8bits_init                                        2     2      0      22
                                              3 COMMON     2     2      0
                             _LCDcmd
 ---------------------------------------------------------------------------------
 (2) _LCDcmd                                               3     3      0      22
                                              0 COMMON     3     3      0
 ---------------------------------------------------------------------------------
 (1) _I2C_Master_Write                                     2     0      2     554
                                              0 COMMON     2     0      2
                    _I2C_Master_Wait
 ---------------------------------------------------------------------------------
 (1) _I2C_Master_Stop                                      0     0      0       0
                    _I2C_Master_Wait
 ---------------------------------------------------------------------------------
 (1) _I2C_Master_Start                                     0     0      0       0
                    _I2C_Master_Wait
 ---------------------------------------------------------------------------------
 (1) _I2C_Master_Read                                      6     4      2     425
                                              0 COMMON     6     4      2
                    _I2C_Master_Wait
 ---------------------------------------------------------------------------------
 (2) _I2C_Master_Wait                                      0     0      0       0
 ---------------------------------------------------------------------------------
 (1) _BCD_2_DEC                                            4     2      2     440
                                              6 COMMON     4     2      2
                    _I2C_Master_Read (ARG)
                             ___wmul
 ---------------------------------------------------------------------------------
 (2) ___wmul                                               6     2      4     244
                                              0 COMMON     6     2      4
 ---------------------------------------------------------------------------------
 Estimated maximum stack depth 3
 ---------------------------------------------------------------------------------

 Call Graph Graphs:

 _main (ROOT)
   _BCD_2_DEC
     _I2C_Master_Read (ARG)
       _I2C_Master_Wait
     ___wmul (ARG)
   _I2C_Master_Read
     _I2C_Master_Wait
   _I2C_Master_Start
     _I2C_Master_Wait
   _I2C_Master_Stop
     _I2C_Master_Wait
   _I2C_Master_Write
     _I2C_Master_Wait
   _LCD8bits_init
     _LCDcmd
   _LCDcursorSet
     _LCDcmd
   _LCDisplay
     _LCDwrite
   ___fldiv
     ___flmul (ARG)
       __Umul8_16
       ___flsub (ARG)
         ___fladd
         ___xxtofl (ARG)
       ___xxtofl (ARG)
   ___flmul
     __Umul8_16
     ___flsub (ARG)
       ___fladd
       ___xxtofl (ARG)
     ___xxtofl (ARG)
   ___flsub
     ___fladd
     ___xxtofl (ARG)
   ___fltol
   ___xxtofl
   _config
     _I2C_Master_Init
       ___lldiv
   _sprintf
     ___lwdiv
     ___lwmod
       ___lwdiv (ARG)

 Address spaces:
Name               Size   Autos  Total    Cost      Usage
BITCOMMON            E      0       0       0        0.0%
EEDATA             100      0       0       0        0.0%
NULL                 0      0       0       0        0.0%
CODE                 0      0       0       0        0.0%
COMMON               E      E       E       1      100.0%
BITSFR0              0      0       0       1        0.0%
SFR0                 0      0       0       1        0.0%
BITSFR1              0      0       0       2        0.0%
SFR1                 0      0       0       2        0.0%
STACK                0      0       0       2        0.0%
ABS                  0      0      70       3        0.0%
BITBANK0            50      0       0       4        0.0%
BITSFR3              0      0       0       4        0.0%
SFR3                 0      0       0       4        0.0%
BANK0               50     48      4F       5       98.8%
BITSFR2              0      0       0       5        0.0%
SFR2                 0      0       0       5        0.0%
BITBANK1            50      0       0       6        0.0%
BANK1               50      0      13       7       23.8%
BITBANK3            60      0       0       8        0.0%
BANK3               60      0       0       9        0.0%
BITBANK2            60      0       0      10        0.0%
BANK2               60      0       0      11        0.0%
DATA                 0      0      70      12        0.0%


Microchip Technology PIC Macro Assembler V2.10 build 88905656 
Symbol Table                                                                                   Thu Feb 27 10:44:00 2020

             ___fldiv@aexp 0063               ___fldiv@bexp 0062                          pc 0002  
             ___fldiv@sign 005B                __CFG_CP$OFF 0000                         l73 0744  
                       l85 17B6                         l88 086B                         fsr 0004  
      ___wmul@multiplicand 0072        __Umul8_16@word_mpld 0076                        l102 09F0  
                      l120 179A                        l105 0846                        l114 0891  
                      l108 001C                        l152 1772                        l170 08DE  
                      l155 177E                        l171 08E1                        l172 08E6  
                      l164 1767                        l325 0A56                        l149 091E  
                      l158 175E                        l167 1771                        l291 17FF  
                      l603 0F45                        l613 0F8D                        l285 0104  
                      l607 0F6B                        l640 0D67                        l624 0FF1  
                      l616 0FCD                        l289 17E7                        l625 0FFF  
                      l561 099C                        l482 0ABB                        l730 0B60  
                      l722 0B38                        l475 0AD0                        l571 0958  
                      l660 0D4B                        l628 17DA                        l716 0AF3  
                      l485 0AD0                        l662 0D5B                        l654 0CD9  
                      l638 0BE7                        l582 0DCB                        l718 0B8A  
                      l735 08A6                        l737 08B8                        l729 0B54  
                      l690 0459                        l586 0E74                        l595 0FFF  
                      l684 03D1                        l588 0E49                        l678 0465  
                      _GIE 005F               __CFG_CPD$OFF 0000                        _va1 006C  
                      _min 006A                        _sec 006B                        fsr0 0004  
                      indf 0000               ___flmul@aexp 0042               ___flmul@bexp 0043  
             ___flmul@sign 003D               ___flmul@temp 0048               ___flmul@prod 0044  
             __CFG_LVP$OFF 0000               ___fltol@exp1 007A                       l2001 0E6E  
                     l2011 0E9D                       l2003 0E78                       l2101 0895  
                     l2021 0EB6                       l2013 0EA1                       l2005 0E7D  
                     l2103 089C                       l2031 0F1D                       l2023 0EB7  
                     l2015 0EA5                       l2121 09AC                       l2105 08A0  
                     l2041 0F52                       l2033 0F23                       l2025 0EC2  
                     l2017 0EB0                       l2009 0E86                       l2113 179B  
                     l2201 005D                       l2131 09DE                       l2123 09BA  
                     l2107 08AF                       l2051 0F6F                       l2035 0F28  
                     l2019 0EB2                       l2027 0EC7                       l2115 17A9  
                     l2203 0061                       l2133 09E4                       l2125 09C3  
                     l2117 099D                       l2141 178D                       l2301 0BA7  
                     l2109 08B4                       l2053 0F72                       l2045 0F5B  
                     l2029 0EDD                       l2037 0F37                       l2061 0F7F  
                     l2221 0096                       l2205 0065                       l2135 09EA  
                     l2127 09D2                       l2119 09A6                       l2143 1793  
                     l2151 0881                       l2311 0BBF                       l2303 0BAF  
                     l2071 0F92                       l2063 0F80                       l2055 0F74  
                     l2047 0F66                       l2039 0F4D                       l2231 00DA  
                     l2223 009C                       l2215 0070                       l2207 0069  
                     l2153 1756                       l2161 175F                       l2129 09D8  
                     l2137 1780                       l2145 086C                       l2401 0CE3  
                     l2321 0BD4                       l2313 0BC5                       l2305 0BB0  
                     l2081 0FD2                       l2073 0F97                       l2065 0F84  
                     l2057 0F79                       l2049 0F6A                       l2233 00E1  
                     l2225 00A3                       l2209 006E                       l2171 08CF  
                     l2155 175B                       l2163 1764                       l2139 1785  
                     l2147 086D                       l2411 0D21                       l2403 0CF1  
                     l2331 0BFB                       l2323 0BDC                       l2315 0BC9  
                     l2307 0BB2                       l2091 0FE9                       l2083 0FD7  
                     l2075 0FA5                       l2067 0F8A                       l2059 0F7B  
                     l2235 00E5                       l2227 00A7                       l2219 008C  
                     l2181 0847                       l2173 08D4                       l2165 08B9  
                     l2157 1768                       l2149 087B                       l2421 0D51  
                     l2413 0D2F                       l2405 0CF5                       l2333 0BFF  
                     l2325 0BDD                       l2317 0BCA                       l2309 0BBA  
                     l2501 02A8                       l2093 0FEB                       l2085 0FDF  
                     l2077 0FA9                       l2261 0A8B                       l2253 0A6B  
                     l2229 00AC                       l2237 00EE                       l2175 08DA  
                     l2167 08BE                       l2159 176D                       l2423 0D55  
                     l2415 0D3E                       l2407 0D0E                       l2351 0C40  
                     l2343 0C16                       l2319 0BCF                       l2327 0BDF  
                     l2511 0355                       l2503 02C5                       l2431 0105  
                     l2095 0FFA                       l2087 0FE4                       l2079 0FC9  
                     l2263 0A8F                       l2271 0AA9                       l2255 0A80  
                     l2247 0A57                       l2239 0100                       l2191 0032  
                     l2177 08E2                       l2169 08C6                       l2425 0D57  
                     l2417 0D42                       l2409 0D14                       l2361 0C5E  
                     l2353 0C42                       l2345 0C28                       l2329 0BEF  
                     l2337 0C08                       l2521 03A1                       l2513 037D  
                     l2505 02F2                       l2441 011C                       l2433 010C  
                     l2097 0FFE                       l2089 0FE5                       l2281 0AC5  
                     l2257 0A81                       l2249 0A62                       l2601 0B58  
                     l1801 0A3E                       l2193 0037                       l2185 0020  
                     l2419 0D4A                       l2355 0C47                       l2363 0C67  
                     l2371 0C8C                       l2347 0C30                       l2339 0C0D  
                     l2291 0B92                       l2099 0893                       l2531 03B6  
                     l2523 03A2                       l2515 0386                       l2507 0302  
                     l2451 0138                       l2443 0121                       l2435 0112  
                     l2283 17B7                       l2259 0A89                       l2611 0B82  
                     l2603 0B62                       l1803 0A3F                       l1811 08E7  
                     l2187 0025                       l2381 0CA9                       l2373 0C92  
                     l2365 0C79                       l2357 0C59                       l2349 0C38  
                     l2293 0B98                       l2541 03DB                       l2533 03BA  
                     l2525 03AB                       l2517 0394                       l2509 032F  
                     l2461 014D                       l2453 013E                       l2445 0129  
                     l2437 0116                       l2285 17BB                       l2277 0AB0  
                     l2269 0A97                       l2605 0B78                       l1805 0A48  
                     l1821 091D                       l1813 08EB                       l1901 0954  
                     l2197 0038                       l2189 002B                       l2701 0707  
                     l2621 048B                       l1823 0834                       l1831 000A  
                     l2391 0CBE                       l2383 0CAA                       l2375 0C9A  
                     l2367 0C7A                       l2359 0C5D                       l2295 0B9C  
                     l2551 0419                       l2543 03E9                       l2535 03CE  
                     l2519 039D                       l2527 03B1                       l2471 0169  
                     l2463 0155                       l2455 0142                       l2447 012B  
                     l2439 0117                       l1911 0D79                       l2279 0AC0  
                     l2607 0B7D                       l1807 0A4E                       l1815 08EE  
                     l2199 0055                       l2711 074D                       l2703 0710  
                     l2631 04BA                       l2623 0497                       l2615 0466  
                     l1841 1778                       l1825 0838                       l1833 000E  
                     l2393 0CC2                       l2385 0CB3                       l2377 0C9C  
                     l2369 0C88                       l2297 0B9D                       l2289 0B8B  
                     l2561 044D                       l2553 0424                       l2545 03ED  
                     l2529 03B5                       l2481 01AC                       l2465 0157  
                     l2457 0143                       l2449 0133                       l1921 0D8D  
                     l1913 0D7A                       l1905 0D68                       l2609 0B81  
                     l1817 091B                       l2721 0789                       l2713 0759  
                     l2705 0719                       l2641 04DE                       l2633 04C3  
                     l2625 04A0                       l2617 0478                       l1851 17F5  
                     l1843 17DB                       l1827 0839                       l1835 000F  
                     l2395 0CD6                       l2379 0CA5                       l2387 0CB9  
                     l2299 0BA2                       l2563 0451                       l2555 0433  
                     l2547 0406                       l2539 03D6                       l2491 0235  
                     l2483 01C8                       l2475 0172                       l2467 015F  
                     l2459 0148                       l1931 0DA3                       l1915 0D7F  
                     l1923 0D8F                       l1907 0D6F                       l2571 0AD2  
                     l1819 091C                       l2731 07C2                       l2723 0791  
                     l2715 0761                       l2707 0728                       l2651 051F  
                     l2643 04F5                       l2635 04CB                       l2627 04AC  
                     l2619 0482                       l1853 17FB                       l1845 17DD  
                     l1829 0843                       l1837 0019                       l2389 0CBD  
                     l2565 0452                       l2557 043D                       l2549 040C  
                     l2493 0245                       l2485 01F4                       l2477 0182  
                     l2469 0164                       l1941 0DB8                       l1933 0DA9  
                     l1925 0D97                       l1917 0D84                       l1909 0D75  
                     l2573 0AD7                       l1861 0961                       l2733 07CA  
                     l2725 07A4                       l2717 0774                       l2709 073B  
                     l2661 053F                       l2653 0524                       l2645 04FA  
                     l2637 04D0                       l2629 04B5                       l1847 17E1  
                     l1839 1772                       l2399 0CDE                       l2567 045D  
                     l2559 043F                       l2495 0262                       l2487 0210  
                     l2479 018F                       l1951 0DD5                       l1943 0DC0  
                     l1935 0DAD                       l1927 0D9C                       l1919 0D8C  
                     l2591 0B21                       l2583 0B04                       l2575 0ADB  
                     l1791 0A04                       l1871 0984                       l1863 0964  
                     l2735 07DD                       l2727 07AD                       l2719 077D  
                     l2671 057D                       l2663 0549                       l2655 0529  
                     l2647 04FF                       l2639 04D5                       l1849 17EE  
                     l2497 0272                       l2489 022C                       l1961 0DE9  
                     l1953 0DD9                       l1945 0DC1                       l1937 0DAE  
                     l1929 0DA2                       l2593 0B2F                       l2585 0B09  
                     l2577 0AEB                       l1793 0A11                       l1873 098A  
                     l1865 096B                       l1857 0959                       l2761 004A  
                     l2729 07B9                       l2681 05A8                       l2673 058B  
                     l2665 055C                       l2657 0532                       l2649 0508  
                     l2499 028F                       l1971 0DFD                       l1963 0DED  
                     l1955 0DDD                       l1939 0DB3                       l1947 0DC3  
                     l2595 0B3F                       l2587 0B16                       l2579 0AFB  
                     l1795 0A15                       l1787 09F1                       l1875 098B  
                     l1867 096F                       l1859 095B                       l1891 0933  
                     l1883 091F                       l2691 064D                       l2683 05B6  
                     l2675 0590                       l2667 056F                       l2659 053A  
                     l1981 0E11                       l1973 0E01                       l1965 0DF1  
                     l1957 0DE1                       l1949 0DD1                       l2597 0B4A  
                     l2589 0B1D                       l1797 0A1E                       l1789 0A01  
                     l1877 0992                       l1869 0973                       l1893 0937  
                     l1885 0925                       l2693 06C5                       l2685 05BB  
                     l2677 059A                       l2669 0574                       l1991 0E58  
                     l1975 0E05                       l1967 0DF5                       l1959 0DE5  
                     l1983 0E15                       l2599 0B4E                       l1799 0A30  
                     l1879 0998                       l1895 0941                       l1887 0928  
                     l2695 06D8                       l2687 05C5                       l2679 059F  
                     l1993 0E5A                       l1985 0E16                       l1977 0E09  
                     l1969 0DF9                       l1897 0947                       l1889 092F  
                     l2697 06E8                       l2689 05F7                       l1995 0E5E  
                     l1987 0E2D                       l1979 0E0D                       l1899 094E  
                     l2699 0700                       l1997 0E5F                       l1989 0E4D  
                     l1999 0E6A                       STR_1 0826                       STR_2 0820  
                     STR_3 081A                       STR_4 082A                       STR_5 082A  
                     STR_6 082A                       STR_7 082A                       STR_8 082A  
                     STR_9 082D                       u2000 0984                       u2001 0983  
                     u2100 0D7F                       u2020 0998                       u2101 0D7E  
                     u2021 0997                       u2005 0980                       u2110 0D84  
                     u2030 0925                       u2111 0D83                       u2015 098C  
                     u2031 0924                       u3000 0CD6                       u2200 0E37  
                     u2120 0DA2                       u3001 0CD5                       u2121 0DA1  
                     u3010 0CDD                       u2210 0E4D                       u2130 0DAD  
                     u2050 0937                       u3011 0CDC                       u2211 0E4C  
                     u2131 0DAC                       u2051 0936                       u3020 0CE3  
                     u3100 0121                       u2300 0EB6                       u2220 0E5E  
                     u2140 0DB3                       u2060 0941                       u3021 0CE2  
                     u3101 0120                       u2301 0EB5                       u2221 0E5D  
                     u2141 0DB2                       u2061 0940                       u2045 0929  
                     u3030 0CF5                       u3110 0142                       u2150 0DB8  
                     u3031 0CF4                       u3111 0141                       u2151 0DB7  
                     u3040 0D04                       u3120 0148                       u2400 0F6F  
                     u2320 0EDD                       u2240 0E74                       u2160 0DD1  
                     u2080 0954                       u3121 0147                       u2401 0F6E  
                     u2321 0EDC                       u2241 0E73                       u2161 0DD0  
                     u2081 0953                       u2065 093D                       u3050 0D21  
                     u3130 014D                       u2410 0F79                       u2250 0E78  
                     u2170 0DD5                       u2090 0D79                       u3051 0D20  
                     u3211 0254                       u3131 014C                       u2411 0F78  
                     u2331 0EF6                       u2323 0ED9                       u2315 0EBB  
                     u2251 0E77                       u2235 0E63                       u2171 0DD4  
                     u2091 0D78                       u2075 0948                       u3060 0D3E  
                     u3212 025B                       u3140 0164                       u2500 0FD2  
                     u2420 0F7F                       u2340 0F0A                       u2332 0EF7  
                     u2260 0E7D                       u2180 0E2D                       u3061 0D3D  
                     u3045 0CFF                       u3301 036F                       u3221 0281  
                     u3213 0262                       u3205 022E                       u3141 0163  
                     u2501 0FD1                       u2421 0F7E                       u2341 0F0B  
                     u2333 0EFC                       u2261 0E7C                       u2181 0E2C  
                     u3070 0D55                       u3302 0376                       u3222 0288  
                     u3150 0169                       u2510 0FD7                       u2430 0F84  
                     u2350 0F28                       u2342 0F10                       u2334 0EFD  
                     u2190 0E36                       u3071 0D54                       u3055 0D1D  
                     u3303 037D                       u3223 028F                       u3151 0168  
                     u2511 0FD6                       u2431 0F83                       u2351 0F27  
                     u2343 0F11                       u2335 0F02                       u2271 0E8F  
                     u2191 0E34                       u2600 0891                       u3400 03ED  
                     u3080 0116                       u2520 0FE4                       u2440 0F8A  
                     u2360 0F4D                       u2336 0F03                       u2280 0EA1  
                     u2272 0E96                       u2601 0890                       u3065 0D3A  
                     u3401 03EC                       u3241 02B7                       u3161 01BA  
                     u3081 0115                       u2521 0FE3                       u2441 0F89  
                     u2361 0F4C                       u2281 0EA0                       u2273 0E9D  
                     u2185 0E29                       u2610 08DA                       u3410 03FC  
                     u3330 03A1                       u3242 02BE                       u3162 01C1  
                     u3090 011C                       u2530 0FE9                       u2450 0F91  
                     u2370 0F52                       u2290 0EA5                       u2611 08D9  
                     u3331 03A0                       u3315 037F                       u3251 02E4  
                     u3243 02C5                       u3235 0291                       u3171 01D6  
                     u3163 01C8                       u3091 011B                       u2531 0FE8  
                     u2451 0F90                       u2371 0F51                       u2291 0EA4  
                     u1900 1778                       u3420 0419                       u3252 02EB  
                     u3172 01DD                       u2540 0FFE                       u2460 0F97  
                     u2700 0A79                       u1820 0A01                       u2620 002B  
                     u1901 1777                       u3421 0418                       u3325 0396  
                     u3261 0311                       u3253 02F2                       u3181 0202  
                     u3173 01E4                       u2541 0FFD                       u2461 0F96  
                     u1821 0A00                       u2621 002A                       u1910 177E  
                     u2550 08A0                       u3430 0433                       u3350 03B5  
                     u3270 033B                       u3262 0318                       u3182 0209  
                     u2470 0FA9                       u2390 0F6A                       u2710 0A8F  
                     u3510 0B3E                       u2630 0065                       u1911 177D  
                     u2551 089F                       u3431 0432                       u3415 03F7  
                     u3351 03B4                       u3263 031F                       u3191 021E  
                     u3183 0210                       u2471 0FA8                       u2391 0F69  
                     u2711 0A8E                       u3511 0B3D                       u2631 0064  
                     u1920 17E1                       u2800 0BA2                       u3440 0451  
                     u3360 03BA                       u3192 0225                       u2480 0FBA  
                     u2720 0A96                       u1840 0A15                       u2640 008B  
                     u3600 0761                       u1921 17E0                       u2801 0BA1  
                     u3441 0450                       u3425 0415                       u3361 03B9  
                     u3345 03A4                       u3281 0347                       u3193 022C  
                     u2385 0F5F                       u2721 0A95                       u2705 0A74  
                     u3505 0B30                       u1841 0A14                       u2641 008A  
                     u3601 0760                       u2810 0BA7                       u2570 08B4  
                     u3370 03CE                       u3290 0363                       u3282 034E  
                     u2490 0FC9                       u3530 0B4E                       u3450 0AD7  
                     u2650 0096                       u3610 0791                       u2811 0BA6  
                     u2571 08B3                       u3435 042F                       u3371 03CD  
                     u3283 0355                       u3275 0336                       u2491 0FC8  
                     u3531 0B4D                       u3451 0AD6                       u1835 0A06  
                     u2651 0095                       u3611 0790                       u2580 1785  
                     u2900 0C5D                       u2820 0BC9                       u3380 03D5  
                     u2740 0AA8                       u3540 0B54                       u3460 0ADB  
                     u1860 0A30                       u2660 009C                       u3620 07CA  
                     u2581 1784                       u2901 0C5C                       u2821 0BC8  
                     u2565 08A7                       u3381 03D4                       u2485 0FB5  
                     u2741 0AA7                       u3541 0B53                       u3525 0B43  
                     u3461 0ADA                       u1861 0A2F                       u2661 009B  
                     u2645 0087                       u3621 07C9                       u1950 17FB  
                     u2590 1793                       u2830 0BCF                       u3390 03DB  
                     u2750 0AAF                       u3550 0B58                       u3470 0AFB  
                     u2670 00EE                       u1951 17FA                       u1935 17E8  
                     u2591 1792                       u2831 0BCE                       u3391 03DA  
                     u3295 035E                       u2751 0AAE                       u2735 0A98  
                     u3551 0B57                       u3471 0AFA                       u1855 0A17  
                     u2671 00ED                       u2920 0C79                       u2840 0BD4  
                     u3560 0B6D                       u1880 0A4E                       u1960 0961  
                     u2680 0100                       u1945 17EF                       u2921 0C78  
                     u2841 0BD3                       u1881 0A4D                       u1865 0A2C  
                     u1961 0960                       u2681 00FF                       u2930 0C92  
                     u2850 0BEF                       u2770 0AC0                       u2690 0A62  
                     u3570 0B7D                       u3490 0B1C                       u1890 08FE  
                     u3707 09BE                       u2931 0C91                       u2915 0C60  
                     u2851 0BEE                       u2771 0ABF                       u2691 0A61  
                     u3571 0B7C                       u3491 0B1B                       u1875 0A40  
                     _PEIE 005E                       u2940 0C9A                       u2860 0C0D  
                     u2780 0AC5                       u3580 0B81                       u1980 0973  
                     u3717 09CD                       u2941 0C99                       u2925 0C75  
                     u2861 0C0C                       u2781 0AC4                       u2765 0AB2  
                     u3581 0B80                       u3565 0B68                       u3485 0B0E  
                     u1981 0972                       u3637 047E                       u2870 0C47  
                     u2790 0B9C                       u3590 0728                       u3727 083E  
                     u2871 0C46                       u2791 0B9B                       u1895 08F9  
                     u1975 0965                       u3591 0727                       u3647 0545  
                     u2960 0CA9                       u2961 0CA8                       u3657 0596  
                     u2955 0C9E                       u1995 0974                       u3595 0724  
                     u3667 05C1                       u2980 0CBD                       u3677 0014  
                     u2981 0CBC                       u2885 0C49                       u2990 0CC2  
                     u3687 09A1                       u2991 0CC1                       u2975 0CAC  
                     u2895 0C52                       u3697 09B0               __CFG_WRT$OFF 0000  
                     _dec1 00A8                       _min1 00AD                       _int1 0068  
                     _sec1 00AF                       _cont 006D                       _main 0466  
                     _pot1 00A4                       btemp 007E                       start 0000  
            __CFG_IESO$OFF 0000            ___fldiv@new_exp 005C         __size_of_LCDisplay 0026  
         ?_I2C_Master_Init 0020           ?_I2C_Master_Read 0070           ?_I2C_Master_Wait 0070  
         ?_I2C_Master_Stop 0070              ___fltol@sign1 0079            __end_of___fladd 1000  
                    ?_main 0070            __end_of___fldiv 0D68                      STR_10 082F  
                    STR_11 0831                      STR_12 082F                      STR_13 082F  
                    STR_14 0828                      STR_15 082F              __CFG_WDTE$OFF 0000  
          __end_of___flmul 0466            __end_of___flsub 17DB            __end_of___fltol 0AD1  
                    _ANSEL 0188            __end_of___lldiv 0A57            __end_of___lwdiv 099D  
          __end_of___lwmod 0959           __end_of_LCDwrite 001D                      _PORTA 0005  
                    _PORTB 0006                      _PORTC 0007                      _PORTD 0008  
                    _TRISB 0086                      _TRISD 0088                      _SSPIE 0463  
                    _SSPIF 0063             __CFG_FCMEN$OFF 0000          __end_of_BCD_2_DEC 086C  
          __end_of_dpowers 081A             __CFG_BOREN$OFF 0000                      pclath 000A  
                    status 0003                      wtemp0 007E            __end_of_sprintf 0105  
           __CFG_MCLRE$OFF 0000            __initialization 07EA               __end_of_main 07EA  
            ?_LCDcursorSet 0073                     ??_main 0064          ?_I2C_Master_Start 0070  
        ?_I2C_Master_Write 0070         ??_I2C_Master_Start 0070         ??_I2C_Master_Write 0072  
        __end_of_LCDisplay 0892                     _ANSELH 0189                     _LCDcmd 0833  
                   _SSPADD 0093                     _TRISC3 043B                     _TRISC4 043C  
                   _SSPCON 0014                     _SSPBUF 0013           __end_of___xxtofl 0B8B  
           __CFG_PWRTE$OFF 0000                  ??___fladd 0020                     ___wmul 17DB  
                ??___fldiv 0052                  ??___flmul 0038                  ??___flsub 007E  
                ??___fltol 0074                  ??___lldiv 0078                  ??___lwdiv 0074  
                ??___lwmod 007C                     _config 179B             ??_LCDcursorSet 0074  
       __size_of__Umul8_16 0027                  ??_sprintf 0023               ___xxtofl@arg 007A  
             ___xxtofl@exp 0079               ___xxtofl@val 0070    __end_of__initialization 07FC  
               ___fltol@f1 0070                  ?_LCDwrite 0070             __pcstackCOMMON 0070  
                LCDcmd@cmd 0072      __end_of_LCD8bits_init 09F1                 __pbssBANK0 0068  
               __pbssBANK1 00A0                    ?_LCDcmd 0070                 ??_LCDwrite 0070  
        __end_of__Umul8_16 08B9                 __pmaintext 0466                    ?___wmul 0070  
                  ?_config 0070                  ?___xxtofl 0070                    _SSPCON2 0091  
                  _SSPSTAT 0094                 __stringtab 0800                  _BCD_2_DEC 0847  
          __size_of_LCDcmd 0014       __end_of_LCDcursorSet 179B               LCDisplay@val 0073  
                  ___fladd 0D68                    ___fldiv 0B8B                    ___flmul 0105  
                  ___flsub 17B7                    ___fltol 0A57                    ___lldiv 09F1  
          __size_of___wmul 0025                    ___lwdiv 0959                    ___lwmod 091F  
          __size_of_config 001C                    _decpot1 00B1                    __ptext1 001D  
                  __ptext2 091F                    __ptext3 0959                    __ptext4 179B  
                  __ptext5 08E7                    __ptext6 09F1                    __ptext7 0AD1  
                  __ptext8 0A57                    __ptext9 17B7                    _contStr 006E  
                  _dpowers 0810                 ??___xxtofl 0074   __size_of_I2C_Master_Init 0038  
 __size_of_I2C_Master_Read 002E                    _potStr1 00AA   __size_of_I2C_Master_Wait 000D  
 __size_of_I2C_Master_Stop 0009                    _sprintf 001D                    clrloop0 174F  
     end_of_initialization 07FC                 ?_BCD_2_DEC 0076                  _LCDisplay 086C  
__size_of_I2C_Master_Start 0009  __size_of_I2C_Master_Write 000A            ___lldiv@divisor 0070  
          ___lldiv@counter 007D           I2C_Master_Init@c 0020           I2C_Master_Read@a 0070  
                _PORTBbits 0006                ___fladd@grs 007B               LCDwrite@dato 0072  
            ___xxtofl@sign 0078                  _TRISCbits 0087                ___fldiv@grs 005E  
              ___fldiv@rem 0057                ___flmul@grs 003E                 ?_LCDisplay 0073  
           __end_of_LCDcmd 0847        BCD_2_DEC@to_convert 0076          __size_of_LCDwrite 0014  
           __end_of___wmul 1800             __end_of_config 17B7        start_initialization 07EA  
    __size_of_LCDcursorSet 001C                   ??_LCDcmd 0070                ??_BCD_2_DEC 0078  
        ??_I2C_Master_Init 0024          ??_I2C_Master_Read 0072          ??_I2C_Master_Wait 0070  
        ??_I2C_Master_Stop 0070   __CFG_FOSC$INTRC_NOCLKOUT 0000                   ??___wmul 0074  
                __Umul8_16 0892                   ??_config 007E               _LCDcursorSet 177F  
                ___fladd@a 0074                  ___fladd@b 0070                  ___fldiv@a 004A  
                ___fldiv@b 004E                  ___flmul@a 0034                  ___flmul@b 0030  
                ___flsub@a 0028                  ___flsub@b 002C                  ___latbits 0002  
            __pcstackBANK0 0020          __size_of___xxtofl 00BA                sprintf@flag 0027  
              ??_LCDisplay 0075                sprintf@prec 0028           _I2C_Master_Start 1756  
         _I2C_Master_Write 1768           ___lwdiv@dividend 0072                   ?___fladd 0070  
                 ?___fldiv 004A                   ?___flmul 0030                   ?___flsub 0028  
                 ?___fltol 0070                   ?___lldiv 0070                 ?__Umul8_16 0070  
                 ?___lwdiv 0070                   ?___lwmod 0078     __size_of_LCD8bits_init 0054  
                __pstrings 0800           ___lwdiv@quotient 0075                   ?_sprintf 0020  
           ___wmul@product 0074                  clear_ram0 174E                   _LCDwrite 0009  
              __stringbase 080F          ___wmul@multiplier 0070        I2C_Master_Read@temp 0074  
            _LCD8bits_init 099D                ??__Umul8_16 0072           __size_of___fladd 0298  
         __size_of___fldiv 01DD           __size_of___flmul 0361           __size_of___flsub 0024  
         __size_of___fltol 007A           __size_of___lldiv 0066           __size_of___lwdiv 0044  
         __size_of___lwmod 003A         __end_of__stringtab 0810                 sprintf@val 0029  
          _I2C_Master_Init 08E7            _I2C_Master_Read 08B9                   ___xxtofl 0AD1  
          _I2C_Master_Wait 1772            _I2C_Master_Stop 175F                   _dectemp1 00A0  
          ___lwdiv@divisor 0070            ___lwdiv@counter 0077                   __ptext10 0D68  
                 __ptext11 0105                   __ptext20 175F                   __ptext12 0892  
                 __ptext21 1756                   __ptext13 0B8B                   __ptext22 08B9  
                 __ptext14 086C                   __ptext23 1772                   __ptext15 0009  
                 __ptext24 0847                   __ptext16 177F                   __ptext25 17DB  
                 __ptext17 099D                   __ptext18 0833                   __ptext19 1768  
        __CFG_BOR4V$BOR40V 0000             ?_LCD8bits_init 0070           __size_of_sprintf 00E8  
            __size_of_main 0384   __end_of_I2C_Master_Start 175F   __end_of_I2C_Master_Write 1772  
                sprintf@ap 0026                  sprintf@sp 002B           ___lwmod@dividend 007A  
         ___lldiv@dividend 0074                  stringcode 080A    __end_of_I2C_Master_Init 091F  
  __end_of_I2C_Master_Read 08E7    __end_of_I2C_Master_Wait 177F    __end_of_I2C_Master_Stop 1768  
   __Umul8_16@multiplicand 0070                   sprintf@c 002C                   sprintf@f 0020  
         ___lldiv@quotient 0079          I2C_Master_Write@d 0070            ___lwmod@divisor 0078  
          ___lwmod@counter 007D         LCDcursorSet@column 0073                   stringdir 080A  
                 stringtab 0800            ??_LCD8bits_init 0073                _SSPCON2bits 0091  
            ___fladd@signs 0078               ___fladd@aexp 0079               ___fladd@bexp 007A  
     __Umul8_16@multiplier 0078            LCDcursorSet@row 0074          __Umul8_16@product 0074  
       __size_of_BCD_2_DEC 0025  
