

Microchip MPLAB XC8 Assembler V2.10 build 88905656 
                                                                                               Wed Feb 26 19:46:10 2020

Microchip MPLAB XC8 C Compiler v2.10 (Free license) build 20190730164152 Og1 
     1                           	processor	16F887
     2                           	opt	pw 120
     3                           	opt	flic
     4                           	psect	strings,global,class=STRING,delta=2
     5                           	psect	cinit,global,class=CODE,merge=1,delta=2
     6                           	psect	bssBANK0,global,class=BANK0,space=1,delta=1
     7                           	psect	bssBANK1,global,class=BANK1,space=1,delta=1
     8                           	psect	clrtext,global,class=CODE,delta=2
     9                           	psect	cstackCOMMON,global,class=COMMON,space=1,delta=1
    10                           	psect	cstackBANK0,global,class=BANK0,space=1,delta=1
    11                           	psect	maintext,global,class=CODE,split=1,delta=2
    12                           	psect	text1,local,class=CODE,merge=1,delta=2
    13                           	psect	text2,local,class=CODE,merge=1,delta=2,group=1
    14                           	psect	text3,local,class=CODE,merge=1,delta=2,group=1
    15                           	psect	text4,local,class=CODE,merge=1,delta=2
    16                           	psect	text5,local,class=CODE,merge=1,delta=2
    17                           	psect	text6,local,class=CODE,merge=1,delta=2,group=1
    18                           	psect	text7,local,class=CODE,merge=1,delta=2,group=1
    19                           	psect	text8,local,class=CODE,merge=1,delta=2,group=1
    20                           	psect	text9,local,class=CODE,merge=1,delta=2,group=1
    21                           	psect	text10,local,class=CODE,merge=1,delta=2,group=1
    22                           	psect	text11,local,class=CODE,merge=1,delta=2,group=1
    23                           	psect	text12,local,class=CODE,merge=1,delta=2,group=1
    24                           	psect	text13,local,class=CODE,merge=1,delta=2,group=1
    25                           	psect	text14,local,class=CODE,merge=1,delta=2
    26                           	psect	text15,local,class=CODE,merge=1,delta=2
    27                           	psect	text16,local,class=CODE,merge=1,delta=2
    28                           	psect	text17,local,class=CODE,merge=1,delta=2
    29                           	psect	text18,local,class=CODE,merge=1,delta=2
    30                           	psect	text19,local,class=CODE,merge=1,delta=2
    31                           	psect	text20,local,class=CODE,merge=1,delta=2
    32                           	psect	text21,local,class=CODE,merge=1,delta=2
    33                           	psect	text22,local,class=CODE,merge=1,delta=2
    34                           	psect	text23,local,class=CODE,merge=1,delta=2
    35                           	psect	text24,local,class=CODE,merge=1,delta=2
    36                           	psect	text25,local,class=CODE,merge=1,delta=2,group=1
    37                           	dabs	1,0x7E,2
    38  0000                     
    39                           ; Version 2.10
    40                           ; Generated 31/07/2019 GMT
    41                           ; 
    42                           ; Copyright © 2019, Microchip Technology Inc. and its subsidiaries ("Microchip")
    43                           ; All rights reserved.
    44                           ; 
    45                           ; This software is developed by Microchip Technology Inc. and its subsidiaries ("Microch
      +                          ip").
    46                           ; 
    47                           ; Redistribution and use in source and binary forms, with or without modification, are
    48                           ; permitted provided that the following conditions are met:
    49                           ; 
    50                           ;     1. Redistributions of source code must retain the above copyright notice, this lis
      +                          t of
    51                           ;        conditions and the following disclaimer.
    52                           ; 
    53                           ;     2. Redistributions in binary form must reproduce the above copyright notice, this 
      +                          list
    54                           ;        of conditions and the following disclaimer in the documentation and/or other
    55                           ;        materials provided with the distribution.
    56                           ; 
    57                           ;     3. Microchip's name may not be used to endorse or promote products derived from th
      +                          is
    58                           ;        software without specific prior written permission.
    59                           ; 
    60                           ; THIS SOFTWARE IS PROVIDED BY MICROCHIP "AS IS" AND ANY EXPRESS OR IMPLIED WARRANTIES,
    61                           ; INCLUDING, BUT NOT LIMITED TO, THE IMPLIED WARRANTIES OF MERCHANTABILITY AND FITNESS F
      +                          OR
    62                           ; PURPOSE ARE DISCLAIMED.  IN NO EVENT SHALL MICROCHIP BE LIABLE FOR ANY DIRECT, INDIREC
      +                          T,
    63                           ; INCIDENTAL, SPECIAL, EXEMPLARY, OR CONSEQUENTIAL DAMAGES (INCLUDING BUT NOT LIMITED TO
    64                           ; PROCUREMENT OF SUBSTITUTE GOODS OR SERVICES; LOSS OF USE, DATA OR PROFITS; OR BUSINESS
    65                           ; INTERRUPTION) HOWSOEVER CAUSED AND ON ANY THEORY OF LIABILITY, WHETHER IN CONTRACT, ST
      +                          RICT
    66                           ; LIABILITY, OR TORT (INCLUDING NEGLIGENCE OR OTHERWISE) ARISING IN ANY WAY OUT OF THE U
      +                          SE OF
    67                           ; THIS SOFTWARE, EVEN IF ADVISED OF THE POSSIBILITY OF SUCH DAMAGE.
    68                           ; 
    69                           ; 
    70                           ; Code-generator required, PIC16F887 Definitions
    71                           ; 
    72                           ; SFR Addresses
    73  0000                     	;# 
    74  0001                     	;# 
    75  0002                     	;# 
    76  0003                     	;# 
    77  0004                     	;# 
    78  0005                     	;# 
    79  0006                     	;# 
    80  0007                     	;# 
    81  0008                     	;# 
    82  0009                     	;# 
    83  000A                     	;# 
    84  000B                     	;# 
    85  000C                     	;# 
    86  000D                     	;# 
    87  000E                     	;# 
    88  000E                     	;# 
    89  000F                     	;# 
    90  0010                     	;# 
    91  0011                     	;# 
    92  0012                     	;# 
    93  0013                     	;# 
    94  0014                     	;# 
    95  0015                     	;# 
    96  0015                     	;# 
    97  0016                     	;# 
    98  0017                     	;# 
    99  0018                     	;# 
   100  0019                     	;# 
   101  001A                     	;# 
   102  001B                     	;# 
   103  001B                     	;# 
   104  001C                     	;# 
   105  001D                     	;# 
   106  001E                     	;# 
   107  001F                     	;# 
   108  0081                     	;# 
   109  0085                     	;# 
   110  0086                     	;# 
   111  0087                     	;# 
   112  0088                     	;# 
   113  0089                     	;# 
   114  008C                     	;# 
   115  008D                     	;# 
   116  008E                     	;# 
   117  008F                     	;# 
   118  0090                     	;# 
   119  0091                     	;# 
   120  0092                     	;# 
   121  0093                     	;# 
   122  0093                     	;# 
   123  0093                     	;# 
   124  0094                     	;# 
   125  0095                     	;# 
   126  0096                     	;# 
   127  0097                     	;# 
   128  0098                     	;# 
   129  0099                     	;# 
   130  009A                     	;# 
   131  009B                     	;# 
   132  009C                     	;# 
   133  009D                     	;# 
   134  009E                     	;# 
   135  009F                     	;# 
   136  0105                     	;# 
   137  0107                     	;# 
   138  0108                     	;# 
   139  0109                     	;# 
   140  010C                     	;# 
   141  010C                     	;# 
   142  010D                     	;# 
   143  010E                     	;# 
   144  010F                     	;# 
   145  0185                     	;# 
   146  0187                     	;# 
   147  0188                     	;# 
   148  0189                     	;# 
   149  018C                     	;# 
   150  018D                     	;# 
   151  0000                     	;# 
   152  0001                     	;# 
   153  0002                     	;# 
   154  0003                     	;# 
   155  0004                     	;# 
   156  0005                     	;# 
   157  0006                     	;# 
   158  0007                     	;# 
   159  0008                     	;# 
   160  0009                     	;# 
   161  000A                     	;# 
   162  000B                     	;# 
   163  000C                     	;# 
   164  000D                     	;# 
   165  000E                     	;# 
   166  000E                     	;# 
   167  000F                     	;# 
   168  0010                     	;# 
   169  0011                     	;# 
   170  0012                     	;# 
   171  0013                     	;# 
   172  0014                     	;# 
   173  0015                     	;# 
   174  0015                     	;# 
   175  0016                     	;# 
   176  0017                     	;# 
   177  0018                     	;# 
   178  0019                     	;# 
   179  001A                     	;# 
   180  001B                     	;# 
   181  001B                     	;# 
   182  001C                     	;# 
   183  001D                     	;# 
   184  001E                     	;# 
   185  001F                     	;# 
   186  0081                     	;# 
   187  0085                     	;# 
   188  0086                     	;# 
   189  0087                     	;# 
   190  0088                     	;# 
   191  0089                     	;# 
   192  008C                     	;# 
   193  008D                     	;# 
   194  008E                     	;# 
   195  008F                     	;# 
   196  0090                     	;# 
   197  0091                     	;# 
   198  0092                     	;# 
   199  0093                     	;# 
   200  0093                     	;# 
   201  0093                     	;# 
   202  0094                     	;# 
   203  0095                     	;# 
   204  0096                     	;# 
   205  0097                     	;# 
   206  0098                     	;# 
   207  0099                     	;# 
   208  009A                     	;# 
   209  009B                     	;# 
   210  009C                     	;# 
   211  009D                     	;# 
   212  009E                     	;# 
   213  009F                     	;# 
   214  0105                     	;# 
   215  0107                     	;# 
   216  0108                     	;# 
   217  0109                     	;# 
   218  010C                     	;# 
   219  010C                     	;# 
   220  010D                     	;# 
   221  010E                     	;# 
   222  010F                     	;# 
   223  0185                     	;# 
   224  0187                     	;# 
   225  0188                     	;# 
   226  0189                     	;# 
   227  018C                     	;# 
   228  018D                     	;# 
   229  0000                     	;# 
   230  0001                     	;# 
   231  0002                     	;# 
   232  0003                     	;# 
   233  0004                     	;# 
   234  0005                     	;# 
   235  0006                     	;# 
   236  0007                     	;# 
   237  0008                     	;# 
   238  0009                     	;# 
   239  000A                     	;# 
   240  000B                     	;# 
   241  000C                     	;# 
   242  000D                     	;# 
   243  000E                     	;# 
   244  000E                     	;# 
   245  000F                     	;# 
   246  0010                     	;# 
   247  0011                     	;# 
   248  0012                     	;# 
   249  0013                     	;# 
   250  0014                     	;# 
   251  0015                     	;# 
   252  0015                     	;# 
   253  0016                     	;# 
   254  0017                     	;# 
   255  0018                     	;# 
   256  0019                     	;# 
   257  001A                     	;# 
   258  001B                     	;# 
   259  001B                     	;# 
   260  001C                     	;# 
   261  001D                     	;# 
   262  001E                     	;# 
   263  001F                     	;# 
   264  0081                     	;# 
   265  0085                     	;# 
   266  0086                     	;# 
   267  0087                     	;# 
   268  0088                     	;# 
   269  0089                     	;# 
   270  008C                     	;# 
   271  008D                     	;# 
   272  008E                     	;# 
   273  008F                     	;# 
   274  0090                     	;# 
   275  0091                     	;# 
   276  0092                     	;# 
   277  0093                     	;# 
   278  0093                     	;# 
   279  0093                     	;# 
   280  0094                     	;# 
   281  0095                     	;# 
   282  0096                     	;# 
   283  0097                     	;# 
   284  0098                     	;# 
   285  0099                     	;# 
   286  009A                     	;# 
   287  009B                     	;# 
   288  009C                     	;# 
   289  009D                     	;# 
   290  009E                     	;# 
   291  009F                     	;# 
   292  0105                     	;# 
   293  0107                     	;# 
   294  0108                     	;# 
   295  0109                     	;# 
   296  010C                     	;# 
   297  010C                     	;# 
   298  010D                     	;# 
   299  010E                     	;# 
   300  010F                     	;# 
   301  0185                     	;# 
   302  0187                     	;# 
   303  0188                     	;# 
   304  0189                     	;# 
   305  018C                     	;# 
   306  018D                     	;# 
   307  0000                     	;# 
   308  0001                     	;# 
   309  0002                     	;# 
   310  0003                     	;# 
   311  0004                     	;# 
   312  0005                     	;# 
   313  0006                     	;# 
   314  0007                     	;# 
   315  0008                     	;# 
   316  0009                     	;# 
   317  000A                     	;# 
   318  000B                     	;# 
   319  000C                     	;# 
   320  000D                     	;# 
   321  000E                     	;# 
   322  000E                     	;# 
   323  000F                     	;# 
   324  0010                     	;# 
   325  0011                     	;# 
   326  0012                     	;# 
   327  0013                     	;# 
   328  0014                     	;# 
   329  0015                     	;# 
   330  0015                     	;# 
   331  0016                     	;# 
   332  0017                     	;# 
   333  0018                     	;# 
   334  0019                     	;# 
   335  001A                     	;# 
   336  001B                     	;# 
   337  001B                     	;# 
   338  001C                     	;# 
   339  001D                     	;# 
   340  001E                     	;# 
   341  001F                     	;# 
   342  0081                     	;# 
   343  0085                     	;# 
   344  0086                     	;# 
   345  0087                     	;# 
   346  0088                     	;# 
   347  0089                     	;# 
   348  008C                     	;# 
   349  008D                     	;# 
   350  008E                     	;# 
   351  008F                     	;# 
   352  0090                     	;# 
   353  0091                     	;# 
   354  0092                     	;# 
   355  0093                     	;# 
   356  0093                     	;# 
   357  0093                     	;# 
   358  0094                     	;# 
   359  0095                     	;# 
   360  0096                     	;# 
   361  0097                     	;# 
   362  0098                     	;# 
   363  0099                     	;# 
   364  009A                     	;# 
   365  009B                     	;# 
   366  009C                     	;# 
   367  009D                     	;# 
   368  009E                     	;# 
   369  009F                     	;# 
   370  0105                     	;# 
   371  0107                     	;# 
   372  0108                     	;# 
   373  0109                     	;# 
   374  010C                     	;# 
   375  010C                     	;# 
   376  010D                     	;# 
   377  010E                     	;# 
   378  010F                     	;# 
   379  0185                     	;# 
   380  0187                     	;# 
   381  0188                     	;# 
   382  0189                     	;# 
   383  018C                     	;# 
   384  018D                     	;# 
   385                           
   386                           	psect	strings
   387  0800                     __pstrings:	
   388  0800                     stringtab:	
   389  0800                     __stringtab:	
   390                           
   391                           ;	String table - string pointers are 1 byte each
   392  0800  1BFF               	btfsc	btemp+1,7
   393  0801  280A               	ljmp	stringcode
   394  0802  1383               	bcf	3,7
   395  0803  187F               	btfsc	btemp+1,0
   396  0804  1783               	bsf	3,7
   397  0805  0800               	movf	0,w
   398  0806  0A84               	incf	4,f
   399  0807  1903               	skipnz
   400  0808  0AFF               	incf	btemp+1,f
   401  0809  0008               	return
   402  080A                     stringcode:	
   403  080A                     stringdir:	
   404  080A  3008               	movlw	high stringdir
   405  080B  008A               	movwf	10
   406  080C  0804               	movf	4,w
   407  080D  0A84               	incf	4,f
   408  080E  0782               	addwf	2,f
   409  080F                     __stringbase:	
   410  080F  3400               	retlw	0
   411  0810                     __end_of__stringtab:	
   412  0810                     _dpowers:	
   413  0810  3401               	retlw	1
   414  0811  3400               	retlw	0
   415  0812  340A               	retlw	10
   416  0813  3400               	retlw	0
   417  0814  3464               	retlw	100
   418  0815  3400               	retlw	0
   419  0816  34E8               	retlw	232
   420  0817  3403               	retlw	3
   421  0818  3410               	retlw	16
   422  0819  3427               	retlw	39
   423  081A                     __end_of_dpowers:	
   424  0013                     _SSPBUF	set	19
   425  0014                     _SSPCON	set	20
   426  0006                     _PORTBbits	set	6
   427  0008                     _PORTD	set	8
   428  0007                     _PORTC	set	7
   429  0006                     _PORTB	set	6
   430  0005                     _PORTA	set	5
   431  0063                     _SSPIF	set	99
   432  005E                     _PEIE	set	94
   433  005F                     _GIE	set	95
   434  0091                     _SSPCON2bits	set	145
   435  0087                     _TRISCbits	set	135
   436  0094                     _SSPSTAT	set	148
   437  0093                     _SSPADD	set	147
   438  0091                     _SSPCON2	set	145
   439  0088                     _TRISD	set	136
   440  0086                     _TRISB	set	134
   441  0463                     _SSPIE	set	1123
   442  043C                     _TRISC4	set	1084
   443  043B                     _TRISC3	set	1083
   444  0188                     _ANSELbits	set	392
   445  0188                     _ANSEL	set	392
   446  0189                     _ANSELH	set	393
   447  081A                     STR_3:	
   448  081A  3454               	retlw	84	;'T'
   449  081B  3449               	retlw	73	;'I'
   450  081C  344D               	retlw	77	;'M'
   451  081D  3445               	retlw	69	;'E'
   452  081E  343A               	retlw	58	;':'
   453  081F  3400               	retlw	0
   454  0820                     STR_2:	
   455  0820  3443               	retlw	67	;'C'
   456  0821  344F               	retlw	79	;'O'
   457  0822  344E               	retlw	78	;'N'
   458  0823  3454               	retlw	84	;'T'
   459  0824  343A               	retlw	58	;':'
   460  0825  3400               	retlw	0
   461  0826                     STR_1:	
   462  0826  3453               	retlw	83	;'S'
   463  0827  3431               	retlw	49	;'1'
   464  0828  343A               	retlw	58	;':'
   465  0829  3400               	retlw	0
   466  082A                     STR_4:	
   467  082A  3425               	retlw	37	;'%'
   468  082B  3464               	retlw	100	;'d'
   469  082C  3400               	retlw	0
   470  082D                     STR_9:	
   471  082D  342E               	retlw	46	;'.'
   472  082E  3400               	retlw	0
   473  082F                     STR_10:	
   474  082F  3430               	retlw	48	;'0'
   475  0830  3400               	retlw	0
   476  0831                     STR_11:	
   477  0831  3456               	retlw	86	;'V'
   478  0832  3400               	retlw	0
   479  082F                     
   480                           ; #config settings
   481  0000                     
   482                           	psect	cinit
   483  07EA                     start_initialization:	
   484  07EA                     __initialization:	
   485                           
   486                           ; Clear objects allocated to BANK0
   487  07EA  1283               	bcf	3,5	;RP0=0, select bank0
   488  07EB  1303               	bcf	3,6	;RP1=0, select bank0
   489  07EC  01E8               	clrf	__pbssBANK0& (0+127)
   490  07ED  01E9               	clrf	(__pbssBANK0+1)& (0+127)
   491  07EE  01EA               	clrf	(__pbssBANK0+2)& (0+127)
   492  07EF  01EB               	clrf	(__pbssBANK0+3)& (0+127)
   493  07F0  01EC               	clrf	(__pbssBANK0+4)& (0+127)
   494  07F1  01ED               	clrf	(__pbssBANK0+5)& (0+127)
   495  07F2  01EE               	clrf	(__pbssBANK0+6)& (0+127)
   496                           
   497                           ; Clear objects allocated to BANK1
   498  07F3  1383               	bcf	3,7	;select IRP bank0
   499  07F4  30A0               	movlw	low __pbssBANK1
   500  07F5  0084               	movwf	4
   501  07F6  30B3               	movlw	low (__pbssBANK1+19)
   502  07F7  160A  118A  274C  120A  118A  	fcall	clear_ram0
   503  07FC                     end_of_initialization:	
   504                           ;End of C runtime variable initialization code
   505                           
   506  07FC                     __end_of__initialization:	
   507  07FC  0183               	clrf	3
   508  07FD  120A  118A  2C66   	ljmp	_main	;jump to C main() function
   509                           
   510                           	psect	bssBANK0
   511  0068                     __pbssBANK0:	
   512  0068                     _int1:	
   513  0068                     	ds	2
   514  006A                     _min:	
   515  006A                     	ds	1
   516  006B                     _sec:	
   517  006B                     	ds	1
   518  006C                     _va1:	
   519  006C                     	ds	1
   520  006D                     _cont:	
   521  006D                     	ds	1
   522  006E                     _contStr:	
   523  006E                     	ds	1
   524                           
   525                           	psect	bssBANK1
   526  00A0                     __pbssBANK1:	
   527  00A0                     _dectemp1:	
   528  00A0                     	ds	4
   529  00A4                     _pot1:	
   530  00A4                     	ds	4
   531  00A8                     _dec1:	
   532  00A8                     	ds	2
   533  00AA                     _potStr1:	
   534  00AA                     	ds	3
   535  00AD                     _min1:	
   536  00AD                     	ds	2
   537  00AF                     _sec1:	
   538  00AF                     	ds	2
   539  00B1                     _decpot1:	
   540  00B1                     	ds	2
   541                           
   542                           	psect	clrtext
   543  174C                     clear_ram0:	
   544                           ;	Called with FSR containing the base address, and
   545                           ;	W with the last address+1
   546                           
   547  174C  0064               	clrwdt	;clear the watchdog before getting into this loop
   548  174D                     clrloop0:	
   549  174D  0180               	clrf	0	;clear RAM location pointed to by FSR
   550  174E  0A84               	incf	4,f	;increment pointer
   551  174F  0604               	xorwf	4,w	;XOR with final address
   552  1750  1903               	btfsc	3,2	;have we reached the end yet?
   553  1751  3400               	retlw	0	;all done for this memory range, return
   554  1752  0604               	xorwf	4,w	;XOR again to restore value
   555  1753  2F4D               	goto	clrloop0	;do the next byte
   556                           
   557                           	psect	cstackCOMMON
   558  0070                     __pcstackCOMMON:	
   559  0070                     ?_config:	
   560  0070                     ?_LCD8bits_init:	
   561                           ; 1 bytes @ 0x0
   562                           
   563  0070                     ?_I2C_Master_Start:	
   564                           ; 1 bytes @ 0x0
   565                           
   566  0070                     ??_I2C_Master_Start:	
   567                           ; 1 bytes @ 0x0
   568                           
   569  0070                     ?_I2C_Master_Write:	
   570                           ; 1 bytes @ 0x0
   571                           
   572  0070                     ?_I2C_Master_Stop:	
   573                           ; 1 bytes @ 0x0
   574                           
   575  0070                     ??_I2C_Master_Stop:	
   576                           ; 1 bytes @ 0x0
   577                           
   578  0070                     ?_LCDcmd:	
   579                           ; 1 bytes @ 0x0
   580                           
   581  0070                     ??_LCDcmd:	
   582                           ; 1 bytes @ 0x0
   583                           
   584  0070                     ?_main:	
   585                           ; 1 bytes @ 0x0
   586                           
   587  0070                     ?_LCDwrite:	
   588                           ; 1 bytes @ 0x0
   589                           
   590  0070                     ??_LCDwrite:	
   591                           ; 1 bytes @ 0x0
   592                           
   593  0070                     ?_I2C_Master_Wait:	
   594                           ; 1 bytes @ 0x0
   595                           
   596  0070                     ??_I2C_Master_Wait:	
   597                           ; 1 bytes @ 0x0
   598                           
   599  0070                     ?_I2C_Master_Read:	
   600                           ; 1 bytes @ 0x0
   601                           
   602  0070                     ?__Umul8_16:	
   603                           ; 2 bytes @ 0x0
   604                           
   605  0070                     ?___wmul:	
   606                           ; 2 bytes @ 0x0
   607                           
   608  0070                     ?___lwdiv:	
   609                           ; 2 bytes @ 0x0
   610                           
   611  0070                     ?___lldiv:	
   612                           ; 2 bytes @ 0x0
   613                           
   614  0070                     ?___fltol:	
   615                           ; 4 bytes @ 0x0
   616                           
   617  0070                     ?___fladd:	
   618                           ; 4 bytes @ 0x0
   619                           
   620  0070                     ?___xxtofl:	
   621                           ; 4 bytes @ 0x0
   622                           
   623  0070                     __Umul8_16@multiplicand:	
   624                           ; 4 bytes @ 0x0
   625                           
   626  0070                     I2C_Master_Write@d:	
   627                           ; 1 bytes @ 0x0
   628                           
   629  0070                     I2C_Master_Read@a:	
   630                           ; 2 bytes @ 0x0
   631                           
   632  0070                     ___wmul@multiplier:	
   633                           ; 2 bytes @ 0x0
   634                           
   635  0070                     ___lwdiv@divisor:	
   636                           ; 2 bytes @ 0x0
   637                           
   638  0070                     ___lldiv@divisor:	
   639                           ; 2 bytes @ 0x0
   640                           
   641  0070                     ___fltol@f1:	
   642                           ; 4 bytes @ 0x0
   643                           
   644  0070                     ___fladd@b:	
   645                           ; 4 bytes @ 0x0
   646                           
   647  0070                     ___xxtofl@val:	
   648                           ; 4 bytes @ 0x0
   649                           
   650                           
   651                           ; 4 bytes @ 0x0
   652  0070                     	ds	2
   653  0072                     ??_I2C_Master_Write:	
   654  0072                     ??_I2C_Master_Read:	
   655                           ; 1 bytes @ 0x2
   656                           
   657  0072                     ??__Umul8_16:	
   658                           ; 1 bytes @ 0x2
   659                           
   660  0072                     LCDcmd@cmd:	
   661                           ; 1 bytes @ 0x2
   662                           
   663  0072                     LCDwrite@dato:	
   664                           ; 1 bytes @ 0x2
   665                           
   666  0072                     ___wmul@multiplicand:	
   667                           ; 1 bytes @ 0x2
   668                           
   669  0072                     ___lwdiv@dividend:	
   670                           ; 2 bytes @ 0x2
   671                           
   672                           
   673                           ; 2 bytes @ 0x2
   674  0072                     	ds	1
   675  0073                     ??_LCD8bits_init:	
   676  0073                     ?_LCDcursorSet:	
   677                           ; 1 bytes @ 0x3
   678                           
   679  0073                     ?_LCDisplay:	
   680                           ; 1 bytes @ 0x3
   681                           
   682  0073                     LCDcursorSet@column:	
   683                           ; 1 bytes @ 0x3
   684                           
   685  0073                     LCDisplay@val:	
   686                           ; 1 bytes @ 0x3
   687                           
   688                           
   689                           ; 2 bytes @ 0x3
   690  0073                     	ds	1
   691  0074                     ??_LCDcursorSet:	
   692  0074                     ??___wmul:	
   693                           ; 1 bytes @ 0x4
   694                           
   695  0074                     ??___fltol:	
   696                           ; 1 bytes @ 0x4
   697                           
   698  0074                     ??___lwdiv:	
   699                           ; 1 bytes @ 0x4
   700                           
   701  0074                     ??___xxtofl:	
   702                           ; 1 bytes @ 0x4
   703                           
   704  0074                     LCDcursorSet@row:	
   705                           ; 1 bytes @ 0x4
   706                           
   707  0074                     I2C_Master_Read@temp:	
   708                           ; 1 bytes @ 0x4
   709                           
   710  0074                     ___wmul@product:	
   711                           ; 2 bytes @ 0x4
   712                           
   713  0074                     __Umul8_16@product:	
   714                           ; 2 bytes @ 0x4
   715                           
   716  0074                     ___lldiv@dividend:	
   717                           ; 2 bytes @ 0x4
   718                           
   719  0074                     ___fladd@a:	
   720                           ; 4 bytes @ 0x4
   721                           
   722                           
   723                           ; 4 bytes @ 0x4
   724  0074                     	ds	1
   725  0075                     ??_LCDisplay:	
   726  0075                     ___lwdiv@quotient:	
   727                           ; 1 bytes @ 0x5
   728                           
   729                           
   730                           ; 2 bytes @ 0x5
   731  0075                     	ds	1
   732  0076                     ?_BCD_2_DEC:	
   733  0076                     BCD_2_DEC@to_convert:	
   734                           ; 2 bytes @ 0x6
   735                           
   736  0076                     __Umul8_16@word_mpld:	
   737                           ; 2 bytes @ 0x6
   738                           
   739                           
   740                           ; 2 bytes @ 0x6
   741  0076                     	ds	1
   742  0077                     ___lwdiv@counter:	
   743                           
   744                           ; 1 bytes @ 0x7
   745  0077                     	ds	1
   746  0078                     ??_BCD_2_DEC:	
   747  0078                     ??___lldiv:	
   748                           ; 1 bytes @ 0x8
   749                           
   750  0078                     ?___lwmod:	
   751                           ; 1 bytes @ 0x8
   752                           
   753  0078                     ___fladd@signs:	
   754                           ; 2 bytes @ 0x8
   755                           
   756  0078                     ___xxtofl@sign:	
   757                           ; 1 bytes @ 0x8
   758                           
   759  0078                     __Umul8_16@multiplier:	
   760                           ; 1 bytes @ 0x8
   761                           
   762  0078                     ___lwmod@divisor:	
   763                           ; 1 bytes @ 0x8
   764                           
   765                           
   766                           ; 2 bytes @ 0x8
   767  0078                     	ds	1
   768  0079                     ___fltol@sign1:	
   769  0079                     ___fladd@aexp:	
   770                           ; 1 bytes @ 0x9
   771                           
   772  0079                     ___xxtofl@exp:	
   773                           ; 1 bytes @ 0x9
   774                           
   775  0079                     ___lldiv@quotient:	
   776                           ; 1 bytes @ 0x9
   777                           
   778                           
   779                           ; 4 bytes @ 0x9
   780  0079                     	ds	1
   781  007A                     ___fltol@exp1:	
   782  007A                     ___fladd@bexp:	
   783                           ; 1 bytes @ 0xA
   784                           
   785  007A                     ___lwmod@dividend:	
   786                           ; 1 bytes @ 0xA
   787                           
   788  007A                     ___xxtofl@arg:	
   789                           ; 2 bytes @ 0xA
   790                           
   791                           
   792                           ; 4 bytes @ 0xA
   793  007A                     	ds	1
   794  007B                     ___fladd@grs:	
   795                           
   796                           ; 1 bytes @ 0xB
   797  007B                     	ds	1
   798  007C                     ??___lwmod:	
   799                           
   800                           ; 1 bytes @ 0xC
   801  007C                     	ds	1
   802  007D                     ___lldiv@counter:	
   803  007D                     ___lwmod@counter:	
   804                           ; 1 bytes @ 0xD
   805                           
   806                           
   807                           ; 1 bytes @ 0xD
   808  007D                     	ds	1
   809  007E                     ??_config:	
   810  007E                     ??___flsub:	
   811                           ; 1 bytes @ 0xE
   812                           
   813                           
   814                           	psect	cstackBANK0
   815  0020                     __pcstackBANK0:	
   816                           ; 1 bytes @ 0xE
   817                           
   818  0020                     ?_I2C_Master_Init:	
   819  0020                     ??___fladd:	
   820                           ; 1 bytes @ 0x0
   821                           
   822  0020                     ?_sprintf:	
   823                           ; 1 bytes @ 0x0
   824                           
   825  0020                     sprintf@f:	
   826                           ; 2 bytes @ 0x0
   827                           
   828  0020                     I2C_Master_Init@c:	
   829                           ; 1 bytes @ 0x0
   830                           
   831                           
   832                           ; 4 bytes @ 0x0
   833  0020                     	ds	3
   834  0023                     ??_sprintf:	
   835                           
   836                           ; 1 bytes @ 0x3
   837  0023                     	ds	1
   838  0024                     ??_I2C_Master_Init:	
   839                           
   840                           ; 1 bytes @ 0x4
   841  0024                     	ds	2
   842  0026                     sprintf@ap:	
   843                           
   844                           ; 1 bytes @ 0x6
   845  0026                     	ds	1
   846  0027                     sprintf@flag:	
   847                           
   848                           ; 1 bytes @ 0x7
   849  0027                     	ds	1
   850  0028                     ?___flsub:	
   851  0028                     sprintf@prec:	
   852                           ; 4 bytes @ 0x8
   853                           
   854  0028                     ___flsub@a:	
   855                           ; 1 bytes @ 0x8
   856                           
   857                           
   858                           ; 4 bytes @ 0x8
   859  0028                     	ds	1
   860  0029                     sprintf@val:	
   861                           
   862                           ; 2 bytes @ 0x9
   863  0029                     	ds	2
   864  002B                     sprintf@sp:	
   865                           
   866                           ; 1 bytes @ 0xB
   867  002B                     	ds	1
   868  002C                     sprintf@c:	
   869  002C                     ___flsub@b:	
   870                           ; 1 bytes @ 0xC
   871                           
   872                           
   873                           ; 4 bytes @ 0xC
   874  002C                     	ds	4
   875  0030                     ?___flmul:	
   876  0030                     ___flmul@b:	
   877                           ; 4 bytes @ 0x10
   878                           
   879                           
   880                           ; 4 bytes @ 0x10
   881  0030                     	ds	4
   882  0034                     ___flmul@a:	
   883                           
   884                           ; 4 bytes @ 0x14
   885  0034                     	ds	4
   886  0038                     ??___flmul:	
   887                           
   888                           ; 1 bytes @ 0x18
   889  0038                     	ds	5
   890  003D                     ___flmul@sign:	
   891                           
   892                           ; 1 bytes @ 0x1D
   893  003D                     	ds	1
   894  003E                     ___flmul@grs:	
   895                           
   896                           ; 4 bytes @ 0x1E
   897  003E                     	ds	4
   898  0042                     ___flmul@aexp:	
   899                           
   900                           ; 1 bytes @ 0x22
   901  0042                     	ds	1
   902  0043                     ___flmul@bexp:	
   903                           
   904                           ; 1 bytes @ 0x23
   905  0043                     	ds	1
   906  0044                     ___flmul@prod:	
   907                           
   908                           ; 4 bytes @ 0x24
   909  0044                     	ds	4
   910  0048                     ___flmul@temp:	
   911                           
   912                           ; 2 bytes @ 0x28
   913  0048                     	ds	2
   914  004A                     ?___fldiv:	
   915  004A                     ___fldiv@a:	
   916                           ; 4 bytes @ 0x2A
   917                           
   918                           
   919                           ; 4 bytes @ 0x2A
   920  004A                     	ds	4
   921  004E                     ___fldiv@b:	
   922                           
   923                           ; 4 bytes @ 0x2E
   924  004E                     	ds	4
   925  0052                     ??___fldiv:	
   926                           
   927                           ; 1 bytes @ 0x32
   928  0052                     	ds	5
   929  0057                     ___fldiv@rem:	
   930                           
   931                           ; 4 bytes @ 0x37
   932  0057                     	ds	4
   933  005B                     ___fldiv@sign:	
   934                           
   935                           ; 1 bytes @ 0x3B
   936  005B                     	ds	1
   937  005C                     ___fldiv@new_exp:	
   938                           
   939                           ; 2 bytes @ 0x3C
   940  005C                     	ds	2
   941  005E                     ___fldiv@grs:	
   942                           
   943                           ; 4 bytes @ 0x3E
   944  005E                     	ds	4
   945  0062                     ___fldiv@bexp:	
   946                           
   947                           ; 1 bytes @ 0x42
   948  0062                     	ds	1
   949  0063                     ___fldiv@aexp:	
   950                           
   951                           ; 1 bytes @ 0x43
   952  0063                     	ds	1
   953  0064                     ??_main:	
   954                           
   955                           ; 1 bytes @ 0x44
   956  0064                     	ds	4
   957                           
   958                           	psect	maintext
   959  0466                     __pmaintext:	
   960 ;;
   961 ;;Main: autosize = 0, tempsize = 4, incstack = 0, save=0
   962 ;;
   963 ;; *************** function _main *****************
   964 ;; Defined at:
   965 ;;		line 58 in file "main.c"
   966 ;; Parameters:    Size  Location     Type
   967 ;;		None
   968 ;; Auto vars:     Size  Location     Type
   969 ;;		None
   970 ;; Return value:  Size  Location     Type
   971 ;;                  1    wreg      void 
   972 ;; Registers used:
   973 ;;		wreg, fsr0l, fsr0h, status,2, status,0, btemp+1, pclath, cstack
   974 ;; Tracked objects:
   975 ;;		On entry : B00/0
   976 ;;		On exit  : 0/0
   977 ;;		Unchanged: 0/0
   978 ;; Data sizes:     COMMON   BANK0   BANK1   BANK3   BANK2
   979 ;;      Params:         0       0       0       0       0
   980 ;;      Locals:         0       0       0       0       0
   981 ;;      Temps:          0       4       0       0       0
   982 ;;      Totals:         0       4       0       0       0
   983 ;;Total ram usage:        4 bytes
   984 ;; Hardware stack levels required when called:    3
   985 ;; This function calls:
   986 ;;		_BCD_2_DEC
   987 ;;		_I2C_Master_Read
   988 ;;		_I2C_Master_Start
   989 ;;		_I2C_Master_Stop
   990 ;;		_I2C_Master_Write
   991 ;;		_LCD8bits_init
   992 ;;		_LCDcursorSet
   993 ;;		_LCDisplay
   994 ;;		___fldiv
   995 ;;		___flmul
   996 ;;		___flsub
   997 ;;		___fltol
   998 ;;		___xxtofl
   999 ;;		_config
  1000 ;;		_sprintf
  1001 ;; This function is called by:
  1002 ;;		Startup code after reset
  1003 ;; This function uses a non-reentrant model
  1004 ;;
  1005                           
  1006                           
  1007                           ;psect for function _main
  1008  0466                     _main:	
  1009  0466                     l2625:	
  1010                           ;incstack = 0
  1011                           ; Regs used in _main: [wreg-fsr0h+status,2+status,0+btemp+1+pclath+cstack]
  1012                           
  1013                           
  1014                           ;main.c: 59:     config();
  1015  0466  160A  118A  2799  120A  118A  	fcall	_config
  1016                           
  1017                           ;main.c: 60:     LCD8bits_init();
  1018  046B  120A  158A  219D  120A  118A  	fcall	_LCD8bits_init
  1019                           
  1020                           ;main.c: 61:     LCDcursorSet(1,1);
  1021  0470  01F3               	clrf	LCDcursorSet@column
  1022  0471  0AF3               	incf	LCDcursorSet@column,f
  1023  0472  3001               	movlw	1
  1024  0473  160A  118A  277D  120A  118A  	fcall	_LCDcursorSet
  1025  0478                     l2627:	
  1026                           
  1027                           ;main.c: 62:     _delay((unsigned long)((2)*(4000000/4000.0)));
  1028  0478  3003               	movlw	3
  1029  0479  1283               	bcf	3,5	;RP0=0, select bank0
  1030  047A  1303               	bcf	3,6	;RP1=0, select bank0
  1031  047B  00E5               	movwf	??_main+1
  1032  047C  3097               	movlw	151
  1033  047D  00E4               	movwf	??_main
  1034  047E                     u3637:	
  1035  047E  0BE4               	decfsz	??_main,f
  1036  047F  2C7E               	goto	u3637
  1037  0480  0BE5               	decfsz	??_main+1,f
  1038  0481  2C7E               	goto	u3637
  1039  0482                     l2629:	
  1040                           
  1041                           ;main.c: 63:     LCDisplay("S1:");
  1042  0482  3017               	movlw	(low ((STR_1-__stringbase)| (0+32768)))& (0+255)
  1043  0483  00F3               	movwf	LCDisplay@val
  1044  0484  3080               	movlw	128
  1045  0485  00F4               	movwf	LCDisplay@val+1
  1046  0486  120A  158A  206C  120A  118A  	fcall	_LCDisplay
  1047  048B                     l2631:	
  1048                           
  1049                           ;main.c: 64:     LCDcursorSet(1,5);
  1050  048B  3005               	movlw	5
  1051  048C  1283               	bcf	3,5	;RP0=0, select bank0
  1052  048D  1303               	bcf	3,6	;RP1=0, select bank0
  1053  048E  00E4               	movwf	??_main
  1054  048F  0864               	movf	??_main,w
  1055  0490  00F3               	movwf	LCDcursorSet@column
  1056  0491  3001               	movlw	1
  1057  0492  160A  118A  277D  120A  118A  	fcall	_LCDcursorSet
  1058  0497                     l2633:	
  1059                           
  1060                           ;main.c: 65:     LCDisplay("CONT:");
  1061  0497  3011               	movlw	(low ((STR_2-__stringbase)| (0+32768)))& (0+255)
  1062  0498  00F3               	movwf	LCDisplay@val
  1063  0499  3080               	movlw	128
  1064  049A  00F4               	movwf	LCDisplay@val+1
  1065  049B  120A  158A  206C  120A  118A  	fcall	_LCDisplay
  1066  04A0                     l2635:	
  1067                           
  1068                           ;main.c: 66:     LCDcursorSet(1,11);
  1069  04A0  300B               	movlw	11
  1070  04A1  1283               	bcf	3,5	;RP0=0, select bank0
  1071  04A2  1303               	bcf	3,6	;RP1=0, select bank0
  1072  04A3  00E4               	movwf	??_main
  1073  04A4  0864               	movf	??_main,w
  1074  04A5  00F3               	movwf	LCDcursorSet@column
  1075  04A6  3001               	movlw	1
  1076  04A7  160A  118A  277D  120A  118A  	fcall	_LCDcursorSet
  1077  04AC                     l2637:	
  1078                           
  1079                           ;main.c: 67:     LCDisplay("TIME:");
  1080  04AC  300B               	movlw	(low ((STR_3-__stringbase)| (0+32768)))& (0+255)
  1081  04AD  00F3               	movwf	LCDisplay@val
  1082  04AE  3080               	movlw	128
  1083  04AF  00F4               	movwf	LCDisplay@val+1
  1084  04B0  120A  158A  206C  120A  118A  	fcall	_LCDisplay
  1085  04B5                     l2639:	
  1086                           
  1087                           ;main.c: 71:         I2C_Master_Start();
  1088  04B5  160A  118A  2754  120A  118A  	fcall	_I2C_Master_Start
  1089  04BA                     l2641:	
  1090                           
  1091                           ;main.c: 72:         I2C_Master_Write(0xD0);
  1092  04BA  30D0               	movlw	208
  1093  04BB  00F0               	movwf	I2C_Master_Write@d
  1094  04BC  3000               	movlw	0
  1095  04BD  00F1               	movwf	I2C_Master_Write@d+1
  1096  04BE  160A  118A  2766  120A  118A  	fcall	_I2C_Master_Write
  1097  04C3                     l2643:	
  1098                           
  1099                           ;main.c: 73:         I2C_Master_Write(0);
  1100  04C3  3000               	movlw	0
  1101  04C4  00F0               	movwf	I2C_Master_Write@d
  1102  04C5  00F1               	movwf	I2C_Master_Write@d+1
  1103  04C6  160A  118A  2766  120A  118A  	fcall	_I2C_Master_Write
  1104  04CB                     l2645:	
  1105                           
  1106                           ;main.c: 74:         I2C_Master_Stop();
  1107  04CB  160A  118A  275D  120A  118A  	fcall	_I2C_Master_Stop
  1108  04D0                     l2647:	
  1109                           
  1110                           ;main.c: 76:         I2C_Master_Start();
  1111  04D0  160A  118A  2754  120A  118A  	fcall	_I2C_Master_Start
  1112  04D5                     l2649:	
  1113                           
  1114                           ;main.c: 77:         I2C_Master_Write(0xD1);
  1115  04D5  30D1               	movlw	209
  1116  04D6  00F0               	movwf	I2C_Master_Write@d
  1117  04D7  3000               	movlw	0
  1118  04D8  00F1               	movwf	I2C_Master_Write@d+1
  1119  04D9  160A  118A  2766  120A  118A  	fcall	_I2C_Master_Write
  1120  04DE                     l2651:	
  1121                           
  1122                           ;main.c: 78:         sec = BCD_2_DEC(I2C_Master_Read(0));
  1123  04DE  3000               	movlw	0
  1124  04DF  00F0               	movwf	I2C_Master_Read@a
  1125  04E0  00F1               	movwf	I2C_Master_Read@a+1
  1126  04E1  120A  158A  20B9  120A  118A  	fcall	_I2C_Master_Read
  1127  04E6  0871               	movf	?_I2C_Master_Read+1,w
  1128  04E7  00F7               	movwf	BCD_2_DEC@to_convert+1
  1129  04E8  0870               	movf	?_I2C_Master_Read,w
  1130  04E9  00F6               	movwf	BCD_2_DEC@to_convert
  1131  04EA  120A  158A  2047  120A  118A  	fcall	_BCD_2_DEC
  1132  04EF  0876               	movf	?_BCD_2_DEC,w
  1133  04F0  1283               	bcf	3,5	;RP0=0, select bank0
  1134  04F1  1303               	bcf	3,6	;RP1=0, select bank0
  1135  04F2  00E4               	movwf	??_main
  1136  04F3  0864               	movf	??_main,w
  1137  04F4  00EB               	movwf	_sec
  1138  04F5                     l2653:	
  1139                           
  1140                           ;main.c: 79:         I2C_Master_Stop();
  1141  04F5  160A  118A  275D  120A  118A  	fcall	_I2C_Master_Stop
  1142  04FA                     l2655:	
  1143                           
  1144                           ;main.c: 81:         I2C_Master_Start();
  1145  04FA  160A  118A  2754  120A  118A  	fcall	_I2C_Master_Start
  1146  04FF                     l2657:	
  1147                           
  1148                           ;main.c: 82:         I2C_Master_Write(0xD1);
  1149  04FF  30D1               	movlw	209
  1150  0500  00F0               	movwf	I2C_Master_Write@d
  1151  0501  3000               	movlw	0
  1152  0502  00F1               	movwf	I2C_Master_Write@d+1
  1153  0503  160A  118A  2766  120A  118A  	fcall	_I2C_Master_Write
  1154  0508                     l2659:	
  1155                           
  1156                           ;main.c: 83:         min = BCD_2_DEC(I2C_Master_Read(0));
  1157  0508  3000               	movlw	0
  1158  0509  00F0               	movwf	I2C_Master_Read@a
  1159  050A  00F1               	movwf	I2C_Master_Read@a+1
  1160  050B  120A  158A  20B9  120A  118A  	fcall	_I2C_Master_Read
  1161  0510  0871               	movf	?_I2C_Master_Read+1,w
  1162  0511  00F7               	movwf	BCD_2_DEC@to_convert+1
  1163  0512  0870               	movf	?_I2C_Master_Read,w
  1164  0513  00F6               	movwf	BCD_2_DEC@to_convert
  1165  0514  120A  158A  2047  120A  118A  	fcall	_BCD_2_DEC
  1166  0519  0876               	movf	?_BCD_2_DEC,w
  1167  051A  1283               	bcf	3,5	;RP0=0, select bank0
  1168  051B  1303               	bcf	3,6	;RP1=0, select bank0
  1169  051C  00E4               	movwf	??_main
  1170  051D  0864               	movf	??_main,w
  1171  051E  00EA               	movwf	_min
  1172  051F                     l2661:	
  1173                           
  1174                           ;main.c: 84:         I2C_Master_Stop();
  1175  051F  160A  118A  275D  120A  118A  	fcall	_I2C_Master_Stop
  1176  0524                     l2663:	
  1177                           
  1178                           ;main.c: 87:         I2C_Master_Start();
  1179  0524  160A  118A  2754  120A  118A  	fcall	_I2C_Master_Start
  1180  0529                     l2665:	
  1181                           
  1182                           ;main.c: 88:         I2C_Master_Write(0xD1);
  1183  0529  30D1               	movlw	209
  1184  052A  00F0               	movwf	I2C_Master_Write@d
  1185  052B  3000               	movlw	0
  1186  052C  00F1               	movwf	I2C_Master_Write@d+1
  1187  052D  160A  118A  2766  120A  118A  	fcall	_I2C_Master_Write
  1188  0532                     l2667:	
  1189                           
  1190                           ;main.c: 89:         I2C_Master_Read(0);
  1191  0532  3000               	movlw	0
  1192  0533  00F0               	movwf	I2C_Master_Read@a
  1193  0534  00F1               	movwf	I2C_Master_Read@a+1
  1194  0535  120A  158A  20B9  120A  118A  	fcall	_I2C_Master_Read
  1195  053A                     l2669:	
  1196                           
  1197                           ;main.c: 90:         I2C_Master_Stop();
  1198  053A  160A  118A  275D  120A  118A  	fcall	_I2C_Master_Stop
  1199  053F                     l2671:	
  1200                           
  1201                           ;main.c: 91:         _delay((unsigned long)((10)*(4000000/4000.0)));
  1202  053F  300D               	movlw	13
  1203  0540  1283               	bcf	3,5	;RP0=0, select bank0
  1204  0541  1303               	bcf	3,6	;RP1=0, select bank0
  1205  0542  00E5               	movwf	??_main+1
  1206  0543  30FB               	movlw	251
  1207  0544  00E4               	movwf	??_main
  1208  0545                     u3647:	
  1209  0545  0BE4               	decfsz	??_main,f
  1210  0546  2D45               	goto	u3647
  1211  0547  0BE5               	decfsz	??_main+1,f
  1212  0548  2D45               	goto	u3647
  1213  0549                     l2673:	
  1214                           
  1215                           ;main.c: 93:         sprintf(sec1, "%d",sec);
  1216  0549  301B               	movlw	(low ((STR_4-__stringbase)| (0+32768)))& (0+255)
  1217  054A  1283               	bcf	3,5	;RP0=0, select bank0
  1218  054B  1303               	bcf	3,6	;RP1=0, select bank0
  1219  054C  00E4               	movwf	??_main
  1220  054D  0864               	movf	??_main,w
  1221  054E  00A0               	movwf	sprintf@f
  1222  054F  086B               	movf	_sec,w
  1223  0550  00E5               	movwf	??_main+1
  1224  0551  01E6               	clrf	??_main+2
  1225  0552  0865               	movf	??_main+1,w
  1226  0553  00A1               	movwf	?_sprintf+1
  1227  0554  0866               	movf	??_main+2,w
  1228  0555  00A2               	movwf	?_sprintf+2
  1229  0556  30AF               	movlw	(low (_sec1| 0))& (0+255)
  1230  0557  120A  118A  201D  120A  118A  	fcall	_sprintf
  1231  055C                     l2675:	
  1232                           
  1233                           ;main.c: 94:         sprintf(min1, "%d",min);
  1234  055C  301B               	movlw	(low ((STR_4-__stringbase)| (0+32768)))& (0+255)
  1235  055D  1283               	bcf	3,5	;RP0=0, select bank0
  1236  055E  1303               	bcf	3,6	;RP1=0, select bank0
  1237  055F  00E4               	movwf	??_main
  1238  0560  0864               	movf	??_main,w
  1239  0561  00A0               	movwf	sprintf@f
  1240  0562  086A               	movf	_min,w
  1241  0563  00E5               	movwf	??_main+1
  1242  0564  01E6               	clrf	??_main+2
  1243  0565  0865               	movf	??_main+1,w
  1244  0566  00A1               	movwf	?_sprintf+1
  1245  0567  0866               	movf	??_main+2,w
  1246  0568  00A2               	movwf	?_sprintf+2
  1247  0569  30AD               	movlw	(low (_min1| 0))& (0+255)
  1248  056A  120A  118A  201D  120A  118A  	fcall	_sprintf
  1249  056F                     l2677:	
  1250                           
  1251                           ;main.c: 97:         I2C_Master_Start();
  1252  056F  160A  118A  2754  120A  118A  	fcall	_I2C_Master_Start
  1253  0574                     l2679:	
  1254                           
  1255                           ;main.c: 98:         I2C_Master_Write(0x51);
  1256  0574  3051               	movlw	81
  1257  0575  00F0               	movwf	I2C_Master_Write@d
  1258  0576  3000               	movlw	0
  1259  0577  00F1               	movwf	I2C_Master_Write@d+1
  1260  0578  160A  118A  2766  120A  118A  	fcall	_I2C_Master_Write
  1261  057D                     l2681:	
  1262                           
  1263                           ;main.c: 99:         va1 = I2C_Master_Read(0);
  1264  057D  3000               	movlw	0
  1265  057E  00F0               	movwf	I2C_Master_Read@a
  1266  057F  00F1               	movwf	I2C_Master_Read@a+1
  1267  0580  120A  158A  20B9  120A  118A  	fcall	_I2C_Master_Read
  1268  0585  0870               	movf	?_I2C_Master_Read,w
  1269  0586  1283               	bcf	3,5	;RP0=0, select bank0
  1270  0587  1303               	bcf	3,6	;RP1=0, select bank0
  1271  0588  00E4               	movwf	??_main
  1272  0589  0864               	movf	??_main,w
  1273  058A  00EC               	movwf	_va1
  1274  058B                     l2683:	
  1275                           
  1276                           ;main.c: 100:         I2C_Master_Stop();
  1277  058B  160A  118A  275D  120A  118A  	fcall	_I2C_Master_Stop
  1278  0590                     l2685:	
  1279                           
  1280                           ;main.c: 101:         _delay((unsigned long)((10)*(4000000/4000.0)));
  1281  0590  300D               	movlw	13
  1282  0591  1283               	bcf	3,5	;RP0=0, select bank0
  1283  0592  1303               	bcf	3,6	;RP1=0, select bank0
  1284  0593  00E5               	movwf	??_main+1
  1285  0594  30FB               	movlw	251
  1286  0595  00E4               	movwf	??_main
  1287  0596                     u3657:	
  1288  0596  0BE4               	decfsz	??_main,f
  1289  0597  2D96               	goto	u3657
  1290  0598  0BE5               	decfsz	??_main+1,f
  1291  0599  2D96               	goto	u3657
  1292  059A                     l2687:	
  1293                           
  1294                           ;main.c: 104:         I2C_Master_Start();
  1295  059A  160A  118A  2754  120A  118A  	fcall	_I2C_Master_Start
  1296  059F                     l2689:	
  1297                           
  1298                           ;main.c: 105:         I2C_Master_Write(0x41);
  1299  059F  3041               	movlw	65
  1300  05A0  00F0               	movwf	I2C_Master_Write@d
  1301  05A1  3000               	movlw	0
  1302  05A2  00F1               	movwf	I2C_Master_Write@d+1
  1303  05A3  160A  118A  2766  120A  118A  	fcall	_I2C_Master_Write
  1304  05A8                     l2691:	
  1305                           
  1306                           ;main.c: 106:         cont = I2C_Master_Read(0);
  1307  05A8  3000               	movlw	0
  1308  05A9  00F0               	movwf	I2C_Master_Read@a
  1309  05AA  00F1               	movwf	I2C_Master_Read@a+1
  1310  05AB  120A  158A  20B9  120A  118A  	fcall	_I2C_Master_Read
  1311  05B0  0870               	movf	?_I2C_Master_Read,w
  1312  05B1  1283               	bcf	3,5	;RP0=0, select bank0
  1313  05B2  1303               	bcf	3,6	;RP1=0, select bank0
  1314  05B3  00E4               	movwf	??_main
  1315  05B4  0864               	movf	??_main,w
  1316  05B5  00ED               	movwf	_cont
  1317  05B6                     l2693:	
  1318                           
  1319                           ;main.c: 107:         I2C_Master_Stop();
  1320  05B6  160A  118A  275D  120A  118A  	fcall	_I2C_Master_Stop
  1321  05BB                     l2695:	
  1322                           
  1323                           ;main.c: 108:         _delay((unsigned long)((10)*(4000000/4000.0)));
  1324  05BB  300D               	movlw	13
  1325  05BC  1283               	bcf	3,5	;RP0=0, select bank0
  1326  05BD  1303               	bcf	3,6	;RP1=0, select bank0
  1327  05BE  00E5               	movwf	??_main+1
  1328  05BF  30FB               	movlw	251
  1329  05C0  00E4               	movwf	??_main
  1330  05C1                     u3667:	
  1331  05C1  0BE4               	decfsz	??_main,f
  1332  05C2  2DC1               	goto	u3667
  1333  05C3  0BE5               	decfsz	??_main+1,f
  1334  05C4  2DC1               	goto	u3667
  1335  05C5                     l2697:	
  1336                           
  1337                           ;main.c: 111:         sprintf(contStr, "%d",cont);
  1338  05C5  301B               	movlw	(low ((STR_4-__stringbase)| (0+32768)))& (0+255)
  1339  05C6  1283               	bcf	3,5	;RP0=0, select bank0
  1340  05C7  1303               	bcf	3,6	;RP1=0, select bank0
  1341  05C8  00E4               	movwf	??_main
  1342  05C9  0864               	movf	??_main,w
  1343  05CA  00A0               	movwf	sprintf@f
  1344  05CB  086D               	movf	_cont,w
  1345  05CC  00E5               	movwf	??_main+1
  1346  05CD  01E6               	clrf	??_main+2
  1347  05CE  0865               	movf	??_main+1,w
  1348  05CF  00A1               	movwf	?_sprintf+1
  1349  05D0  0866               	movf	??_main+2,w
  1350  05D1  00A2               	movwf	?_sprintf+2
  1351  05D2  306E               	movlw	(low (_contStr| 0))& (0+255)
  1352  05D3  120A  118A  201D  120A  118A  	fcall	_sprintf
  1353                           
  1354                           ;main.c: 113:         pot1 = va1;
  1355  05D8  1283               	bcf	3,5	;RP0=0, select bank0
  1356  05D9  1303               	bcf	3,6	;RP1=0, select bank0
  1357  05DA  086C               	movf	_va1,w
  1358  05DB  00E4               	movwf	??_main
  1359  05DC  01E5               	clrf	??_main+1
  1360  05DD  01E6               	clrf	??_main+2
  1361  05DE  01E7               	clrf	??_main+3
  1362  05DF  0867               	movf	??_main+3,w
  1363  05E0  00F3               	movwf	___xxtofl@val+3
  1364  05E1  0866               	movf	??_main+2,w
  1365  05E2  00F2               	movwf	___xxtofl@val+2
  1366  05E3  0865               	movf	??_main+1,w
  1367  05E4  00F1               	movwf	___xxtofl@val+1
  1368  05E5  0864               	movf	??_main,w
  1369  05E6  00F0               	movwf	___xxtofl@val
  1370  05E7  3000               	movlw	0
  1371  05E8  120A  158A  22D1  120A  118A  	fcall	___xxtofl
  1372  05ED  0873               	movf	?___xxtofl+3,w
  1373  05EE  1683               	bsf	3,5	;RP0=1, select bank1
  1374  05EF  1303               	bcf	3,6	;RP1=0, select bank1
  1375  05F0  00A7               	movwf	(_pot1+3)^(0+128)
  1376  05F1  0872               	movf	?___xxtofl+2,w
  1377  05F2  00A6               	movwf	(_pot1+2)^(0+128)
  1378  05F3  0871               	movf	?___xxtofl+1,w
  1379  05F4  00A5               	movwf	(_pot1+1)^(0+128)
  1380  05F5  0870               	movf	?___xxtofl,w
  1381  05F6  00A4               	movwf	_pot1^(0+128)
  1382  05F7                     l2699:	
  1383                           
  1384                           ;main.c: 114:         pot1 = pot1 * 5/255;
  1385  05F7  3043               	movlw	67
  1386  05F8  1283               	bcf	3,5	;RP0=0, select bank0
  1387  05F9  1303               	bcf	3,6	;RP1=0, select bank0
  1388  05FA  00CD               	movwf	___fldiv@a+3
  1389  05FB  307F               	movlw	127
  1390  05FC  00CC               	movwf	___fldiv@a+2
  1391  05FD  3000               	movlw	0
  1392  05FE  00CB               	movwf	___fldiv@a+1
  1393  05FF  3000               	movlw	0
  1394  0600  00CA               	movwf	___fldiv@a
  1395  0601  3040               	movlw	64
  1396  0602  00B3               	movwf	___flmul@b+3
  1397  0603  30A0               	movlw	160
  1398  0604  00B2               	movwf	___flmul@b+2
  1399  0605  3000               	movlw	0
  1400  0606  00B1               	movwf	___flmul@b+1
  1401  0607  3000               	movlw	0
  1402  0608  00B0               	movwf	___flmul@b
  1403  0609  1683               	bsf	3,5	;RP0=1, select bank1
  1404  060A  1303               	bcf	3,6	;RP1=0, select bank1
  1405  060B  0827               	movf	(_pot1+3)^(0+128),w
  1406  060C  1283               	bcf	3,5	;RP0=0, select bank0
  1407  060D  1303               	bcf	3,6	;RP1=0, select bank0
  1408  060E  00B7               	movwf	___flmul@a+3
  1409  060F  1683               	bsf	3,5	;RP0=1, select bank1
  1410  0610  1303               	bcf	3,6	;RP1=0, select bank1
  1411  0611  0826               	movf	(_pot1+2)^(0+128),w
  1412  0612  1283               	bcf	3,5	;RP0=0, select bank0
  1413  0613  1303               	bcf	3,6	;RP1=0, select bank0
  1414  0614  00B6               	movwf	___flmul@a+2
  1415  0615  1683               	bsf	3,5	;RP0=1, select bank1
  1416  0616  1303               	bcf	3,6	;RP1=0, select bank1
  1417  0617  0825               	movf	(_pot1+1)^(0+128),w
  1418  0618  1283               	bcf	3,5	;RP0=0, select bank0
  1419  0619  1303               	bcf	3,6	;RP1=0, select bank0
  1420  061A  00B5               	movwf	___flmul@a+1
  1421  061B  1683               	bsf	3,5	;RP0=1, select bank1
  1422  061C  1303               	bcf	3,6	;RP1=0, select bank1
  1423  061D  0824               	movf	_pot1^(0+128),w
  1424  061E  1283               	bcf	3,5	;RP0=0, select bank0
  1425  061F  1303               	bcf	3,6	;RP1=0, select bank0
  1426  0620  00B4               	movwf	___flmul@a
  1427  0621  120A  118A  2105  120A  118A  	fcall	___flmul
  1428  0626  1283               	bcf	3,5	;RP0=0, select bank0
  1429  0627  1303               	bcf	3,6	;RP1=0, select bank0
  1430  0628  0833               	movf	?___flmul+3,w
  1431  0629  00D1               	movwf	___fldiv@b+3
  1432  062A  0832               	movf	?___flmul+2,w
  1433  062B  00D0               	movwf	___fldiv@b+2
  1434  062C  0831               	movf	?___flmul+1,w
  1435  062D  00CF               	movwf	___fldiv@b+1
  1436  062E  0830               	movf	?___flmul,w
  1437  062F  00CE               	movwf	___fldiv@b
  1438  0630  120A  158A  238B  120A  118A  	fcall	___fldiv
  1439  0635  1283               	bcf	3,5	;RP0=0, select bank0
  1440  0636  1303               	bcf	3,6	;RP1=0, select bank0
  1441  0637  084D               	movf	?___fldiv+3,w
  1442  0638  1683               	bsf	3,5	;RP0=1, select bank1
  1443  0639  1303               	bcf	3,6	;RP1=0, select bank1
  1444  063A  00A7               	movwf	(_pot1+3)^(0+128)
  1445  063B  1283               	bcf	3,5	;RP0=0, select bank0
  1446  063C  1303               	bcf	3,6	;RP1=0, select bank0
  1447  063D  084C               	movf	?___fldiv+2,w
  1448  063E  1683               	bsf	3,5	;RP0=1, select bank1
  1449  063F  1303               	bcf	3,6	;RP1=0, select bank1
  1450  0640  00A6               	movwf	(_pot1+2)^(0+128)
  1451  0641  1283               	bcf	3,5	;RP0=0, select bank0
  1452  0642  1303               	bcf	3,6	;RP1=0, select bank0
  1453  0643  084B               	movf	?___fldiv+1,w
  1454  0644  1683               	bsf	3,5	;RP0=1, select bank1
  1455  0645  1303               	bcf	3,6	;RP1=0, select bank1
  1456  0646  00A5               	movwf	(_pot1+1)^(0+128)
  1457  0647  1283               	bcf	3,5	;RP0=0, select bank0
  1458  0648  1303               	bcf	3,6	;RP1=0, select bank0
  1459  0649  084A               	movf	?___fldiv,w
  1460  064A  1683               	bsf	3,5	;RP0=1, select bank1
  1461  064B  1303               	bcf	3,6	;RP1=0, select bank1
  1462  064C  00A4               	movwf	_pot1^(0+128)
  1463  064D                     l2701:	
  1464                           
  1465                           ;main.c: 115:         int1 = pot1;
  1466  064D  0827               	movf	(_pot1+3)^(0+128),w
  1467  064E  00F3               	movwf	___fltol@f1+3
  1468  064F  0826               	movf	(_pot1+2)^(0+128),w
  1469  0650  00F2               	movwf	___fltol@f1+2
  1470  0651  0825               	movf	(_pot1+1)^(0+128),w
  1471  0652  00F1               	movwf	___fltol@f1+1
  1472  0653  0824               	movf	_pot1^(0+128),w
  1473  0654  00F0               	movwf	___fltol@f1
  1474  0655  120A  158A  2257  120A  118A  	fcall	___fltol
  1475  065A  0871               	movf	?___fltol+1,w
  1476  065B  1283               	bcf	3,5	;RP0=0, select bank0
  1477  065C  1303               	bcf	3,6	;RP1=0, select bank0
  1478  065D  00E9               	movwf	_int1+1
  1479  065E  0870               	movf	?___fltol,w
  1480  065F  00E8               	movwf	_int1
  1481                           
  1482                           ;main.c: 116:         dectemp1 = (pot1 - int1)*100;
  1483  0660  3042               	movlw	66
  1484  0661  00B3               	movwf	___flmul@b+3
  1485  0662  30C8               	movlw	200
  1486  0663  00B2               	movwf	___flmul@b+2
  1487  0664  3000               	movlw	0
  1488  0665  00B1               	movwf	___flmul@b+1
  1489  0666  3000               	movlw	0
  1490  0667  00B0               	movwf	___flmul@b
  1491  0668  0868               	movf	_int1,w
  1492  0669  00F0               	movwf	___xxtofl@val
  1493  066A  0869               	movf	_int1+1,w
  1494  066B  00F1               	movwf	___xxtofl@val+1
  1495  066C  3000               	movlw	0
  1496  066D  1BF1               	btfsc	___xxtofl@val+1,7
  1497  066E  30FF               	movlw	255
  1498  066F  00F2               	movwf	___xxtofl@val+2
  1499  0670  00F3               	movwf	___xxtofl@val+3
  1500  0671  3001               	movlw	1
  1501  0672  120A  158A  22D1  120A  118A  	fcall	___xxtofl
  1502  0677  0873               	movf	?___xxtofl+3,w
  1503  0678  1283               	bcf	3,5	;RP0=0, select bank0
  1504  0679  1303               	bcf	3,6	;RP1=0, select bank0
  1505  067A  00AB               	movwf	___flsub@a+3
  1506  067B  0872               	movf	?___xxtofl+2,w
  1507  067C  00AA               	movwf	___flsub@a+2
  1508  067D  0871               	movf	?___xxtofl+1,w
  1509  067E  00A9               	movwf	___flsub@a+1
  1510  067F  0870               	movf	?___xxtofl,w
  1511  0680  00A8               	movwf	___flsub@a
  1512  0681  1683               	bsf	3,5	;RP0=1, select bank1
  1513  0682  1303               	bcf	3,6	;RP1=0, select bank1
  1514  0683  0827               	movf	(_pot1+3)^(0+128),w
  1515  0684  1283               	bcf	3,5	;RP0=0, select bank0
  1516  0685  1303               	bcf	3,6	;RP1=0, select bank0
  1517  0686  00AF               	movwf	___flsub@b+3
  1518  0687  1683               	bsf	3,5	;RP0=1, select bank1
  1519  0688  1303               	bcf	3,6	;RP1=0, select bank1
  1520  0689  0826               	movf	(_pot1+2)^(0+128),w
  1521  068A  1283               	bcf	3,5	;RP0=0, select bank0
  1522  068B  1303               	bcf	3,6	;RP1=0, select bank0
  1523  068C  00AE               	movwf	___flsub@b+2
  1524  068D  1683               	bsf	3,5	;RP0=1, select bank1
  1525  068E  1303               	bcf	3,6	;RP1=0, select bank1
  1526  068F  0825               	movf	(_pot1+1)^(0+128),w
  1527  0690  1283               	bcf	3,5	;RP0=0, select bank0
  1528  0691  1303               	bcf	3,6	;RP1=0, select bank0
  1529  0692  00AD               	movwf	___flsub@b+1
  1530  0693  1683               	bsf	3,5	;RP0=1, select bank1
  1531  0694  1303               	bcf	3,6	;RP1=0, select bank1
  1532  0695  0824               	movf	_pot1^(0+128),w
  1533  0696  1283               	bcf	3,5	;RP0=0, select bank0
  1534  0697  1303               	bcf	3,6	;RP1=0, select bank0
  1535  0698  00AC               	movwf	___flsub@b
  1536  0699  160A  118A  27B7  120A  118A  	fcall	___flsub
  1537  069E  1283               	bcf	3,5	;RP0=0, select bank0
  1538  069F  1303               	bcf	3,6	;RP1=0, select bank0
  1539  06A0  082B               	movf	?___flsub+3,w
  1540  06A1  00B7               	movwf	___flmul@a+3
  1541  06A2  082A               	movf	?___flsub+2,w
  1542  06A3  00B6               	movwf	___flmul@a+2
  1543  06A4  0829               	movf	?___flsub+1,w
  1544  06A5  00B5               	movwf	___flmul@a+1
  1545  06A6  0828               	movf	?___flsub,w
  1546  06A7  00B4               	movwf	___flmul@a
  1547  06A8  120A  118A  2105  120A  118A  	fcall	___flmul
  1548  06AD  1283               	bcf	3,5	;RP0=0, select bank0
  1549  06AE  1303               	bcf	3,6	;RP1=0, select bank0
  1550  06AF  0833               	movf	?___flmul+3,w
  1551  06B0  1683               	bsf	3,5	;RP0=1, select bank1
  1552  06B1  1303               	bcf	3,6	;RP1=0, select bank1
  1553  06B2  00A3               	movwf	(_dectemp1+3)^(0+128)
  1554  06B3  1283               	bcf	3,5	;RP0=0, select bank0
  1555  06B4  1303               	bcf	3,6	;RP1=0, select bank0
  1556  06B5  0832               	movf	?___flmul+2,w
  1557  06B6  1683               	bsf	3,5	;RP0=1, select bank1
  1558  06B7  1303               	bcf	3,6	;RP1=0, select bank1
  1559  06B8  00A2               	movwf	(_dectemp1+2)^(0+128)
  1560  06B9  1283               	bcf	3,5	;RP0=0, select bank0
  1561  06BA  1303               	bcf	3,6	;RP1=0, select bank0
  1562  06BB  0831               	movf	?___flmul+1,w
  1563  06BC  1683               	bsf	3,5	;RP0=1, select bank1
  1564  06BD  1303               	bcf	3,6	;RP1=0, select bank1
  1565  06BE  00A1               	movwf	(_dectemp1+1)^(0+128)
  1566  06BF  1283               	bcf	3,5	;RP0=0, select bank0
  1567  06C0  1303               	bcf	3,6	;RP1=0, select bank0
  1568  06C1  0830               	movf	?___flmul,w
  1569  06C2  1683               	bsf	3,5	;RP0=1, select bank1
  1570  06C3  1303               	bcf	3,6	;RP1=0, select bank1
  1571  06C4  00A0               	movwf	_dectemp1^(0+128)
  1572  06C5                     l2703:	
  1573                           
  1574                           ;main.c: 117:         dec1 = dectemp1;
  1575  06C5  0823               	movf	(_dectemp1+3)^(0+128),w
  1576  06C6  00F3               	movwf	___fltol@f1+3
  1577  06C7  0822               	movf	(_dectemp1+2)^(0+128),w
  1578  06C8  00F2               	movwf	___fltol@f1+2
  1579  06C9  0821               	movf	(_dectemp1+1)^(0+128),w
  1580  06CA  00F1               	movwf	___fltol@f1+1
  1581  06CB  0820               	movf	_dectemp1^(0+128),w
  1582  06CC  00F0               	movwf	___fltol@f1
  1583  06CD  120A  158A  2257  120A  118A  	fcall	___fltol
  1584  06D2  0871               	movf	?___fltol+1,w
  1585  06D3  1683               	bsf	3,5	;RP0=1, select bank1
  1586  06D4  1303               	bcf	3,6	;RP1=0, select bank1
  1587  06D5  00A9               	movwf	(_dec1+1)^(0+128)
  1588  06D6  0870               	movf	?___fltol,w
  1589  06D7  00A8               	movwf	_dec1^(0+128)
  1590  06D8                     l2705:	
  1591                           
  1592                           ;main.c: 118:         sprintf(potStr1, "%d",int1);
  1593  06D8  301B               	movlw	(low ((STR_4-__stringbase)| (0+32768)))& (0+255)
  1594  06D9  1283               	bcf	3,5	;RP0=0, select bank0
  1595  06DA  1303               	bcf	3,6	;RP1=0, select bank0
  1596  06DB  00E4               	movwf	??_main
  1597  06DC  0864               	movf	??_main,w
  1598  06DD  00A0               	movwf	sprintf@f
  1599  06DE  0869               	movf	_int1+1,w
  1600  06DF  00A2               	movwf	?_sprintf+2
  1601  06E0  0868               	movf	_int1,w
  1602  06E1  00A1               	movwf	?_sprintf+1
  1603  06E2  30AA               	movlw	(low (_potStr1| 0))& (0+255)
  1604  06E3  120A  118A  201D  120A  118A  	fcall	_sprintf
  1605  06E8                     l2707:	
  1606                           
  1607                           ;main.c: 119:         sprintf(decpot1, "%d",dec1);
  1608  06E8  301B               	movlw	(low ((STR_4-__stringbase)| (0+32768)))& (0+255)
  1609  06E9  1283               	bcf	3,5	;RP0=0, select bank0
  1610  06EA  1303               	bcf	3,6	;RP1=0, select bank0
  1611  06EB  00E4               	movwf	??_main
  1612  06EC  0864               	movf	??_main,w
  1613  06ED  00A0               	movwf	sprintf@f
  1614  06EE  1683               	bsf	3,5	;RP0=1, select bank1
  1615  06EF  1303               	bcf	3,6	;RP1=0, select bank1
  1616  06F0  0829               	movf	(_dec1+1)^(0+128),w
  1617  06F1  1283               	bcf	3,5	;RP0=0, select bank0
  1618  06F2  1303               	bcf	3,6	;RP1=0, select bank0
  1619  06F3  00A2               	movwf	?_sprintf+2
  1620  06F4  1683               	bsf	3,5	;RP0=1, select bank1
  1621  06F5  1303               	bcf	3,6	;RP1=0, select bank1
  1622  06F6  0828               	movf	_dec1^(0+128),w
  1623  06F7  1283               	bcf	3,5	;RP0=0, select bank0
  1624  06F8  1303               	bcf	3,6	;RP1=0, select bank0
  1625  06F9  00A1               	movwf	?_sprintf+1
  1626  06FA  30B1               	movlw	(low (_decpot1| 0))& (0+255)
  1627  06FB  120A  118A  201D  120A  118A  	fcall	_sprintf
  1628  0700                     l2709:	
  1629                           
  1630                           ;main.c: 121:         LCDcursorSet(2,0);
  1631  0700  01F3               	clrf	LCDcursorSet@column
  1632  0701  3002               	movlw	2
  1633  0702  160A  118A  277D  120A  118A  	fcall	_LCDcursorSet
  1634  0707                     l2711:	
  1635                           
  1636                           ;main.c: 122:         LCDisplay(potStr1);
  1637  0707  30AA               	movlw	(low (_potStr1| 0))& (0+255)
  1638  0708  00F3               	movwf	LCDisplay@val
  1639  0709  3000               	movlw	0
  1640  070A  00F4               	movwf	LCDisplay@val+1
  1641  070B  120A  158A  206C  120A  118A  	fcall	_LCDisplay
  1642  0710                     l2713:	
  1643                           
  1644                           ;main.c: 123:         LCDisplay(".");
  1645  0710  301E               	movlw	(low ((STR_9-__stringbase)| (0+32768)))& (0+255)
  1646  0711  00F3               	movwf	LCDisplay@val
  1647  0712  3080               	movlw	128
  1648  0713  00F4               	movwf	LCDisplay@val+1
  1649  0714  120A  158A  206C  120A  118A  	fcall	_LCDisplay
  1650  0719                     l2715:	
  1651                           
  1652                           ;main.c: 124:         if (dec1<10){
  1653  0719  1683               	bsf	3,5	;RP0=1, select bank1
  1654  071A  1303               	bcf	3,6	;RP1=0, select bank1
  1655  071B  0829               	movf	(_dec1+1)^(0+128),w
  1656  071C  3A80               	xorlw	128
  1657  071D  00FF               	movwf	btemp+1
  1658  071E  3080               	movlw	128
  1659  071F  027F               	subwf	btemp+1,w
  1660  0720  1D03               	skipz
  1661  0721  2F24               	goto	u3595
  1662  0722  300A               	movlw	10
  1663  0723  0228               	subwf	_dec1^(0+128),w
  1664  0724                     u3595:	
  1665  0724  1803               	skipnc
  1666  0725  2F27               	goto	u3591
  1667  0726  2F28               	goto	u3590
  1668  0727                     u3591:	
  1669  0727  2F3B               	goto	l2719
  1670  0728                     u3590:	
  1671  0728                     l2717:	
  1672                           
  1673                           ;main.c: 125:             LCDisplay("0");
  1674  0728  3020               	movlw	(low ((STR_10-__stringbase)| (0+32768)))& (0+255)
  1675  0729  00F3               	movwf	LCDisplay@val
  1676  072A  3080               	movlw	128
  1677  072B  00F4               	movwf	LCDisplay@val+1
  1678  072C  120A  158A  206C  120A  118A  	fcall	_LCDisplay
  1679                           
  1680                           ;main.c: 126:             LCDisplay(decpot1);
  1681  0731  30B1               	movlw	(low (_decpot1| 0))& (0+255)
  1682  0732  00F3               	movwf	LCDisplay@val
  1683  0733  3000               	movlw	0
  1684  0734  00F4               	movwf	LCDisplay@val+1
  1685  0735  120A  158A  206C  120A  118A  	fcall	_LCDisplay
  1686                           
  1687                           ;main.c: 127:         }else{
  1688  073A  2F44               	goto	l75
  1689  073B                     l2719:	
  1690                           
  1691                           ;main.c: 128:             LCDisplay(decpot1);
  1692  073B  30B1               	movlw	(low (_decpot1| 0))& (0+255)
  1693  073C  00F3               	movwf	LCDisplay@val
  1694  073D  3000               	movlw	0
  1695  073E  00F4               	movwf	LCDisplay@val+1
  1696  073F  120A  158A  206C  120A  118A  	fcall	_LCDisplay
  1697  0744                     l75:	
  1698                           ;main.c: 129:         }
  1699                           
  1700                           
  1701                           ;main.c: 130:         LCDisplay("V");
  1702  0744  3022               	movlw	(low ((STR_11-__stringbase)| (0+32768)))& (0+255)
  1703  0745  00F3               	movwf	LCDisplay@val
  1704  0746  3080               	movlw	128
  1705  0747  00F4               	movwf	LCDisplay@val+1
  1706  0748  120A  158A  206C  120A  118A  	fcall	_LCDisplay
  1707  074D                     l2721:	
  1708                           
  1709                           ;main.c: 131:         LCDcursorSet(2,7);
  1710  074D  3007               	movlw	7
  1711  074E  1283               	bcf	3,5	;RP0=0, select bank0
  1712  074F  1303               	bcf	3,6	;RP1=0, select bank0
  1713  0750  00E4               	movwf	??_main
  1714  0751  0864               	movf	??_main,w
  1715  0752  00F3               	movwf	LCDcursorSet@column
  1716  0753  3002               	movlw	2
  1717  0754  160A  118A  277D  120A  118A  	fcall	_LCDcursorSet
  1718  0759                     l2723:	
  1719                           
  1720                           ;main.c: 132:         if (cont <= 9){
  1721  0759  300A               	movlw	10
  1722  075A  1283               	bcf	3,5	;RP0=0, select bank0
  1723  075B  1303               	bcf	3,6	;RP1=0, select bank0
  1724  075C  026D               	subwf	_cont,w
  1725  075D  1803               	skipnc
  1726  075E  2F60               	goto	u3601
  1727  075F  2F61               	goto	u3600
  1728  0760                     u3601:	
  1729  0760  2F74               	goto	l2727
  1730  0761                     u3600:	
  1731  0761                     l2725:	
  1732                           
  1733                           ;main.c: 133:             LCDisplay("0");
  1734  0761  3020               	movlw	(low ((STR_10-__stringbase)| (0+32768)))& (0+255)
  1735  0762  00F3               	movwf	LCDisplay@val
  1736  0763  3080               	movlw	128
  1737  0764  00F4               	movwf	LCDisplay@val+1
  1738  0765  120A  158A  206C  120A  118A  	fcall	_LCDisplay
  1739                           
  1740                           ;main.c: 134:             LCDisplay(contStr);
  1741  076A  306E               	movlw	(low (_contStr| 0))& (0+255)
  1742  076B  00F3               	movwf	LCDisplay@val
  1743  076C  3000               	movlw	0
  1744  076D  00F4               	movwf	LCDisplay@val+1
  1745  076E  120A  158A  206C  120A  118A  	fcall	_LCDisplay
  1746                           
  1747                           ;main.c: 135:         }else{
  1748  0773  2F7D               	goto	l2729
  1749  0774                     l2727:	
  1750                           
  1751                           ;main.c: 136:             LCDisplay(contStr);
  1752  0774  306E               	movlw	(low (_contStr| 0))& (0+255)
  1753  0775  00F3               	movwf	LCDisplay@val
  1754  0776  3000               	movlw	0
  1755  0777  00F4               	movwf	LCDisplay@val+1
  1756  0778  120A  158A  206C  120A  118A  	fcall	_LCDisplay
  1757  077D                     l2729:	
  1758                           
  1759                           ;main.c: 140:         LCDcursorSet(2,11);
  1760  077D  300B               	movlw	11
  1761  077E  1283               	bcf	3,5	;RP0=0, select bank0
  1762  077F  1303               	bcf	3,6	;RP1=0, select bank0
  1763  0780  00E4               	movwf	??_main
  1764  0781  0864               	movf	??_main,w
  1765  0782  00F3               	movwf	LCDcursorSet@column
  1766  0783  3002               	movlw	2
  1767  0784  160A  118A  277D  120A  118A  	fcall	_LCDcursorSet
  1768  0789                     l2731:	
  1769                           
  1770                           ;main.c: 141:         if(min < 10){
  1771  0789  300A               	movlw	10
  1772  078A  1283               	bcf	3,5	;RP0=0, select bank0
  1773  078B  1303               	bcf	3,6	;RP1=0, select bank0
  1774  078C  026A               	subwf	_min,w
  1775  078D  1803               	skipnc
  1776  078E  2F90               	goto	u3611
  1777  078F  2F91               	goto	u3610
  1778  0790                     u3611:	
  1779  0790  2FA4               	goto	l2735
  1780  0791                     u3610:	
  1781  0791                     l2733:	
  1782                           
  1783                           ;main.c: 142:             LCDisplay("0");
  1784  0791  3020               	movlw	(low ((STR_10-__stringbase)| (0+32768)))& (0+255)
  1785  0792  00F3               	movwf	LCDisplay@val
  1786  0793  3080               	movlw	128
  1787  0794  00F4               	movwf	LCDisplay@val+1
  1788  0795  120A  158A  206C  120A  118A  	fcall	_LCDisplay
  1789                           
  1790                           ;main.c: 143:             LCDisplay(min1);
  1791  079A  30AD               	movlw	(low (_min1| 0))& (0+255)
  1792  079B  00F3               	movwf	LCDisplay@val
  1793  079C  3000               	movlw	0
  1794  079D  00F4               	movwf	LCDisplay@val+1
  1795  079E  120A  158A  206C  120A  118A  	fcall	_LCDisplay
  1796                           
  1797                           ;main.c: 144:         }else{
  1798  07A3  2FAD               	goto	l2737
  1799  07A4                     l2735:	
  1800                           
  1801                           ;main.c: 145:             LCDisplay(min1);
  1802  07A4  30AD               	movlw	(low (_min1| 0))& (0+255)
  1803  07A5  00F3               	movwf	LCDisplay@val
  1804  07A6  3000               	movlw	0
  1805  07A7  00F4               	movwf	LCDisplay@val+1
  1806  07A8  120A  158A  206C  120A  118A  	fcall	_LCDisplay
  1807  07AD                     l2737:	
  1808                           
  1809                           ;main.c: 147:         LCDcursorSet(2,13);
  1810  07AD  300D               	movlw	13
  1811  07AE  1283               	bcf	3,5	;RP0=0, select bank0
  1812  07AF  1303               	bcf	3,6	;RP1=0, select bank0
  1813  07B0  00E4               	movwf	??_main
  1814  07B1  0864               	movf	??_main,w
  1815  07B2  00F3               	movwf	LCDcursorSet@column
  1816  07B3  3002               	movlw	2
  1817  07B4  160A  118A  277D  120A  118A  	fcall	_LCDcursorSet
  1818  07B9                     l2739:	
  1819                           
  1820                           ;main.c: 148:         LCDisplay(":");
  1821  07B9  3019               	movlw	(low (((STR_1+2)-__stringbase)| (0+32768)))& (0+255)
  1822  07BA  00F3               	movwf	LCDisplay@val
  1823  07BB  3080               	movlw	128
  1824  07BC  00F4               	movwf	LCDisplay@val+1
  1825  07BD  120A  158A  206C  120A  118A  	fcall	_LCDisplay
  1826  07C2                     l2741:	
  1827                           
  1828                           ;main.c: 149:         if(sec < 10){
  1829  07C2  300A               	movlw	10
  1830  07C3  1283               	bcf	3,5	;RP0=0, select bank0
  1831  07C4  1303               	bcf	3,6	;RP1=0, select bank0
  1832  07C5  026B               	subwf	_sec,w
  1833  07C6  1803               	skipnc
  1834  07C7  2FC9               	goto	u3621
  1835  07C8  2FCA               	goto	u3620
  1836  07C9                     u3621:	
  1837  07C9  2FDD               	goto	l2745
  1838  07CA                     u3620:	
  1839  07CA                     l2743:	
  1840                           
  1841                           ;main.c: 150:             LCDisplay("0");
  1842  07CA  3020               	movlw	(low ((STR_10-__stringbase)| (0+32768)))& (0+255)
  1843  07CB  00F3               	movwf	LCDisplay@val
  1844  07CC  3080               	movlw	128
  1845  07CD  00F4               	movwf	LCDisplay@val+1
  1846  07CE  120A  158A  206C  120A  118A  	fcall	_LCDisplay
  1847                           
  1848                           ;main.c: 151:             LCDisplay(sec1);
  1849  07D3  30AF               	movlw	(low (_sec1| 0))& (0+255)
  1850  07D4  00F3               	movwf	LCDisplay@val
  1851  07D5  3000               	movlw	0
  1852  07D6  00F4               	movwf	LCDisplay@val+1
  1853  07D7  120A  158A  206C  120A  118A  	fcall	_LCDisplay
  1854                           
  1855                           ;main.c: 152:         }else{
  1856  07DC  2CB5               	goto	l2639
  1857  07DD                     l2745:	
  1858                           
  1859                           ;main.c: 153:             LCDisplay(sec1);
  1860  07DD  30AF               	movlw	(low (_sec1| 0))& (0+255)
  1861  07DE  00F3               	movwf	LCDisplay@val
  1862  07DF  3000               	movlw	0
  1863  07E0  00F4               	movwf	LCDisplay@val+1
  1864  07E1  120A  158A  206C  120A  118A  	fcall	_LCDisplay
  1865  07E6  2CB5               	goto	l2639
  1866  07E7  120A  118A  2800   	ljmp	start
  1867  07EA                     __end_of_main:	
  1868                           
  1869                           	psect	text1
  1870  001D                     __ptext1:	
  1871 ;; *************** function _sprintf *****************
  1872 ;; Defined at:
  1873 ;;		line 505 in file "C:\Program Files (x86)\Microchip\xc8\v2.10\pic\sources\c90\common\doprnt.c"
  1874 ;; Parameters:    Size  Location     Type
  1875 ;;  sp              1    wreg     PTR unsigned char 
  1876 ;;		 -> decpot1(2), potStr1(3), contStr(1), min1(2), 
  1877 ;;		 -> sec1(2), 
  1878 ;;  f               1    0[BANK0 ] PTR const unsigned char 
  1879 ;;		 -> STR_8(3), STR_7(3), STR_6(3), STR_5(3), 
  1880 ;;		 -> STR_4(3), 
  1881 ;; Auto vars:     Size  Location     Type
  1882 ;;  sp              1   11[BANK0 ] PTR unsigned char 
  1883 ;;		 -> decpot1(2), potStr1(3), contStr(1), min1(2), 
  1884 ;;		 -> sec1(2), 
  1885 ;;  tmpval          4    0        struct .
  1886 ;;  val             2    9[BANK0 ] unsigned int 
  1887 ;;  cp              2    0        PTR const unsigned char 
  1888 ;;  len             2    0        unsigned int 
  1889 ;;  c               1   12[BANK0 ] unsigned char 
  1890 ;;  prec            1    8[BANK0 ] char 
  1891 ;;  flag            1    7[BANK0 ] unsigned char 
  1892 ;;  ap              1    6[BANK0 ] PTR void [1]
  1893 ;;		 -> ?_sprintf(2), 
  1894 ;; Return value:  Size  Location     Type
  1895 ;;                  2    0[BANK0 ] int 
  1896 ;; Registers used:
  1897 ;;		wreg, fsr0l, fsr0h, status,2, status,0, btemp+1, pclath, cstack
  1898 ;; Tracked objects:
  1899 ;;		On entry : 0/0
  1900 ;;		On exit  : 0/0
  1901 ;;		Unchanged: 0/0
  1902 ;; Data sizes:     COMMON   BANK0   BANK1   BANK3   BANK2
  1903 ;;      Params:         0       3       0       0       0
  1904 ;;      Locals:         0       7       0       0       0
  1905 ;;      Temps:          0       3       0       0       0
  1906 ;;      Totals:         0      13       0       0       0
  1907 ;;Total ram usage:       13 bytes
  1908 ;; Hardware stack levels used:    1
  1909 ;; Hardware stack levels required when called:    1
  1910 ;; This function calls:
  1911 ;;		___lwdiv
  1912 ;;		___lwmod
  1913 ;; This function is called by:
  1914 ;;		_main
  1915 ;; This function uses a non-reentrant model
  1916 ;;
  1917                           
  1918                           
  1919                           ;psect for function _sprintf
  1920  001D                     _sprintf:	
  1921                           
  1922                           ;incstack = 0
  1923                           ; Regs used in _sprintf: [wreg-fsr0h+status,2+status,0+btemp+1+pclath+cstack]
  1924                           ;sprintf@sp stored from wreg
  1925  001D  1283               	bcf	3,5	;RP0=0, select bank0
  1926  001E  1303               	bcf	3,6	;RP1=0, select bank0
  1927  001F  00AB               	movwf	sprintf@sp
  1928  0020                     l2195:	
  1929                           
  1930                           ;C:\Program Files (x86)\Microchip\xc8\v2.10\pic\sources\c90\common\doprnt.c: 505: sprint
      +                          f(char * sp, const char * f, ...);C:\Program Files (x86)\Microchip\xc8\v2.10\pic\sources
      +                          \c90\common\doprnt.c: 506: {;C:\Program Files (x86)\Microchip\xc8\v2.10\pic\sources\c90\
      +                          common\doprnt.c: 507:  va_list ap;;C:\Program Files (x86)\Microchip\xc8\v2.10\pic\source
      +                          s\c90\common\doprnt.c: 512:  char c;;C:\Program Files (x86)\Microchip\xc8\v2.10\pic\sour
      +                          ces\c90\common\doprnt.c: 521:  signed char prec;;C:\Program Files (x86)\Microchip\xc8\v2
      +                          .10\pic\sources\c90\common\doprnt.c: 525:  unsigned char flag;
  1931  0020  3021               	movlw	(low ((?_sprintf| 0+1)))& (0+255)
  1932  0021  00A3               	movwf	??_sprintf
  1933  0022  0823               	movf	??_sprintf,w
  1934  0023  00A6               	movwf	sprintf@ap
  1935                           
  1936                           ;C:\Program Files (x86)\Microchip\xc8\v2.10\pic\sources\c90\common\doprnt.c: 553:  while
      +                          ((c = *f++)) {
  1937  0024  28EE               	goto	l2247
  1938  0025                     l2197:	
  1939                           
  1940                           ;C:\Program Files (x86)\Microchip\xc8\v2.10\pic\sources\c90\common\doprnt.c: 555:   if(c
      +                           != '%')
  1941  0025  3025               	movlw	37
  1942  0026  062C               	xorwf	sprintf@c,w
  1943  0027  1903               	btfsc	3,2
  1944  0028  282A               	goto	u2621
  1945  0029  282B               	goto	u2620
  1946  002A                     u2621:	
  1947  002A  2837               	goto	l2203
  1948  002B                     u2620:	
  1949  002B                     l2199:	
  1950                           
  1951                           ;C:\Program Files (x86)\Microchip\xc8\v2.10\pic\sources\c90\common\doprnt.c: 557:   {;C:
      +                          \Program Files (x86)\Microchip\xc8\v2.10\pic\sources\c90\common\doprnt.c: 558:    ((*sp+
      +                          + = (c)));
  1952  002B  082C               	movf	sprintf@c,w
  1953  002C  00A3               	movwf	??_sprintf
  1954  002D  082B               	movf	sprintf@sp,w
  1955  002E  0084               	movwf	4
  1956  002F  0823               	movf	??_sprintf,w
  1957  0030  1383               	bcf	3,7	;select IRP bank0
  1958  0031  0080               	movwf	0
  1959  0032                     l2201:	
  1960  0032  3001               	movlw	1
  1961  0033  00A3               	movwf	??_sprintf
  1962  0034  0823               	movf	??_sprintf,w
  1963  0035  07AB               	addwf	sprintf@sp,f
  1964                           
  1965                           ;C:\Program Files (x86)\Microchip\xc8\v2.10\pic\sources\c90\common\doprnt.c: 559:    con
      +                          tinue;
  1966  0036  28EE               	goto	l2247
  1967  0037                     l2203:	
  1968                           
  1969                           ;C:\Program Files (x86)\Microchip\xc8\v2.10\pic\sources\c90\common\doprnt.c: 565:   flag
      +                           = 0;
  1970  0037  01A7               	clrf	sprintf@flag
  1971  0038                     l2207:	
  1972                           ;C:\Program Files (x86)\Microchip\xc8\v2.10\pic\sources\c90\common\doprnt.c: 661:   swit
      +                          ch(c = *f++) {
  1973                           
  1974  0038  3001               	movlw	1
  1975  0039  07A0               	addwf	sprintf@f,f
  1976  003A  30FF               	movlw	-1
  1977  003B  0720               	addwf	sprintf@f,w
  1978  003C  0084               	movwf	4
  1979  003D  120A  158A  200A  120A  118A  	fcall	stringdir
  1980  0042  00AC               	movwf	sprintf@c
  1981  0043  00A3               	movwf	??_sprintf
  1982  0044  01A4               	clrf	??_sprintf+1
  1983                           
  1984                           ; Switch on 2 bytes has been partitioned into a top level switch of size 1, and 1 sub-sw
      +                          itches
  1985                           ; Switch size 1, requested type "simple"
  1986                           ; Number of cases is 1, Range of values is 0 to 0
  1987                           ; switch strategies available:
  1988                           ; Name         Instructions Cycles
  1989                           ; simple_byte            4     3 (average)
  1990                           ; direct_byte           11     8 (fixed)
  1991                           ; jumptable            260     6 (fixed)
  1992                           ;	Chosen strategy is simple_byte
  1993  0045  0824               	movf	??_sprintf+1,w
  1994  0046  3A00               	xorlw	0	; case 0
  1995  0047  1903               	skipnz
  1996  0048  284A               	goto	l2771
  1997  0049  28EE               	goto	l2247
  1998  004A                     l2771:	
  1999                           
  2000                           ; Switch size 1, requested type "simple"
  2001                           ; Number of cases is 3, Range of values is 0 to 105
  2002                           ; switch strategies available:
  2003                           ; Name         Instructions Cycles
  2004                           ; simple_byte           10     6 (average)
  2005                           ; jumptable            260     6 (fixed)
  2006                           ;	Chosen strategy is simple_byte
  2007  004A  0823               	movf	??_sprintf,w
  2008  004B  3A00               	xorlw	0	; case 0
  2009  004C  1903               	skipnz
  2010  004D  2900               	goto	l2249
  2011  004E  3A64               	xorlw	100	; case 100
  2012  004F  1903               	skipnz
  2013  0050  2855               	goto	l2209
  2014  0051  3A0D               	xorlw	13	; case 105
  2015  0052  1903               	skipnz
  2016  0053  2855               	goto	l2209
  2017  0054  28EE               	goto	l2247
  2018  0055                     l2209:	
  2019                           
  2020                           ;C:\Program Files (x86)\Microchip\xc8\v2.10\pic\sources\c90\common\doprnt.c: 1279:   {;C
      +                          :\Program Files (x86)\Microchip\xc8\v2.10\pic\sources\c90\common\doprnt.c: 1285:     val
      +                           = (unsigned int)(*(int *)__va_arg((*(int **)ap), (int)0));
  2021  0055  0826               	movf	sprintf@ap,w
  2022  0056  0084               	movwf	4
  2023  0057  1383               	bcf	3,7	;select IRP bank0
  2024  0058  0800               	movf	0,w
  2025  0059  00A9               	movwf	sprintf@val
  2026  005A  0A84               	incf	4,f
  2027  005B  0800               	movf	0,w
  2028  005C  00AA               	movwf	sprintf@val+1
  2029  005D                     l2211:	
  2030  005D  3002               	movlw	2
  2031  005E  00A3               	movwf	??_sprintf
  2032  005F  0823               	movf	??_sprintf,w
  2033  0060  07A6               	addwf	sprintf@ap,f
  2034  0061                     l2213:	
  2035                           
  2036                           ;C:\Program Files (x86)\Microchip\xc8\v2.10\pic\sources\c90\common\doprnt.c: 1287:    if
      +                          ((int)val < 0) {
  2037  0061  1FAA               	btfss	sprintf@val+1,7
  2038  0062  2864               	goto	u2631
  2039  0063  2865               	goto	u2630
  2040  0064                     u2631:	
  2041  0064  286E               	goto	l2219
  2042  0065                     u2630:	
  2043  0065                     l2215:	
  2044                           
  2045                           ;C:\Program Files (x86)\Microchip\xc8\v2.10\pic\sources\c90\common\doprnt.c: 1288:     f
      +                          lag |= 0x03;
  2046  0065  3003               	movlw	3
  2047  0066  00A3               	movwf	??_sprintf
  2048  0067  0823               	movf	??_sprintf,w
  2049  0068  04A7               	iorwf	sprintf@flag,f
  2050  0069                     l2217:	
  2051                           
  2052                           ;C:\Program Files (x86)\Microchip\xc8\v2.10\pic\sources\c90\common\doprnt.c: 1289:     v
      +                          al = -val;
  2053  0069  09A9               	comf	sprintf@val,f
  2054  006A  09AA               	comf	sprintf@val+1,f
  2055  006B  0AA9               	incf	sprintf@val,f
  2056  006C  1903               	skipnz
  2057  006D  0AAA               	incf	sprintf@val+1,f
  2058  006E                     l2219:	
  2059                           
  2060                           ;C:\Program Files (x86)\Microchip\xc8\v2.10\pic\sources\c90\common\doprnt.c: 1292:   };C
      +                          :\Program Files (x86)\Microchip\xc8\v2.10\pic\sources\c90\common\doprnt.c: 1331:    for(
      +                          c = 1 ; c != sizeof dpowers/sizeof dpowers[0] ; c++)
  2061  006E  01AC               	clrf	sprintf@c
  2062  006F  0AAC               	incf	sprintf@c,f
  2063  0070                     l2225:	
  2064                           
  2065                           ;C:\Program Files (x86)\Microchip\xc8\v2.10\pic\sources\c90\common\doprnt.c: 1332:     i
      +                          f(val < dpowers[c])
  2066  0070  082C               	movf	sprintf@c,w
  2067  0071  00A3               	movwf	??_sprintf
  2068  0072  0723               	addwf	??_sprintf,w
  2069  0073  3E01               	addlw	low ((_dpowers-__stringbase)| (0+32768))
  2070  0074  0084               	movwf	4
  2071  0075  120A  158A  200A  120A  118A  	fcall	stringdir
  2072  007A  00A4               	movwf	??_sprintf+1
  2073  007B  120A  158A  200A  120A  118A  	fcall	stringdir
  2074  0080  00A5               	movwf	??_sprintf+2
  2075  0081  0825               	movf	??_sprintf+2,w
  2076  0082  022A               	subwf	sprintf@val+1,w
  2077  0083  1D03               	skipz
  2078  0084  2887               	goto	u2645
  2079  0085  0824               	movf	??_sprintf+1,w
  2080  0086  0229               	subwf	sprintf@val,w
  2081  0087                     u2645:	
  2082  0087  1803               	skipnc
  2083  0088  288A               	goto	u2641
  2084  0089  288B               	goto	u2640
  2085  008A                     u2641:	
  2086  008A  288C               	goto	l2229
  2087  008B                     u2640:	
  2088  008B  2896               	goto	l2231
  2089  008C                     l2229:	
  2090  008C  3001               	movlw	1
  2091  008D  00A3               	movwf	??_sprintf
  2092  008E  0823               	movf	??_sprintf,w
  2093  008F  07AC               	addwf	sprintf@c,f
  2094  0090  3005               	movlw	5
  2095  0091  062C               	xorwf	sprintf@c,w
  2096  0092  1D03               	btfss	3,2
  2097  0093  2895               	goto	u2651
  2098  0094  2896               	goto	u2650
  2099  0095                     u2651:	
  2100  0095  2870               	goto	l2225
  2101  0096                     u2650:	
  2102  0096                     l2231:	
  2103                           
  2104                           ;C:\Program Files (x86)\Microchip\xc8\v2.10\pic\sources\c90\common\doprnt.c: 1448:   {;C
      +                          :\Program Files (x86)\Microchip\xc8\v2.10\pic\sources\c90\common\doprnt.c: 1464:    if(f
      +                          lag & 0x03)
  2105  0096  0827               	movf	sprintf@flag,w
  2106  0097  3903               	andlw	3
  2107  0098  1903               	btfsc	3,2
  2108  0099  289B               	goto	u2661
  2109  009A  289C               	goto	u2660
  2110  009B                     u2661:	
  2111  009B  28A7               	goto	l2237
  2112  009C                     u2660:	
  2113  009C                     l2233:	
  2114                           
  2115                           ;C:\Program Files (x86)\Microchip\xc8\v2.10\pic\sources\c90\common\doprnt.c: 1465:     (
      +                          (*sp++ = ('-')));
  2116  009C  302D               	movlw	45
  2117  009D  00A3               	movwf	??_sprintf
  2118  009E  082B               	movf	sprintf@sp,w
  2119  009F  0084               	movwf	4
  2120  00A0  0823               	movf	??_sprintf,w
  2121  00A1  1383               	bcf	3,7	;select IRP bank0
  2122  00A2  0080               	movwf	0
  2123  00A3                     l2235:	
  2124  00A3  3001               	movlw	1
  2125  00A4  00A3               	movwf	??_sprintf
  2126  00A5  0823               	movf	??_sprintf,w
  2127  00A6  07AB               	addwf	sprintf@sp,f
  2128  00A7                     l2237:	
  2129                           
  2130                           ;C:\Program Files (x86)\Microchip\xc8\v2.10\pic\sources\c90\common\doprnt.c: 1495:   };C
      +                          :\Program Files (x86)\Microchip\xc8\v2.10\pic\sources\c90\common\doprnt.c: 1498:   prec 
      +                          = c;
  2131  00A7  082C               	movf	sprintf@c,w
  2132  00A8  00A3               	movwf	??_sprintf
  2133  00A9  0823               	movf	??_sprintf,w
  2134  00AA  00A8               	movwf	sprintf@prec
  2135                           
  2136                           ;C:\Program Files (x86)\Microchip\xc8\v2.10\pic\sources\c90\common\doprnt.c: 1500:   whi
      +                          le(prec--) {
  2137  00AB  28E5               	goto	l2245
  2138  00AC                     l2239:	
  2139                           
  2140                           ;C:\Program Files (x86)\Microchip\xc8\v2.10\pic\sources\c90\common\doprnt.c: 1504:    {;
      +                          C:\Program Files (x86)\Microchip\xc8\v2.10\pic\sources\c90\common\doprnt.c: 1515:     c 
      +                          = (val / dpowers[(unsigned char)prec]) % 10 + '0';
  2141  00AC  300A               	movlw	10
  2142  00AD  00F8               	movwf	___lwmod@divisor
  2143  00AE  3000               	movlw	0
  2144  00AF  00F9               	movwf	___lwmod@divisor+1
  2145  00B0  0828               	movf	sprintf@prec,w
  2146  00B1  00A3               	movwf	??_sprintf
  2147  00B2  0723               	addwf	??_sprintf,w
  2148  00B3  3E01               	addlw	low ((_dpowers-__stringbase)| (0+32768))
  2149  00B4  0084               	movwf	4
  2150  00B5  120A  158A  200A  120A  118A  	fcall	stringdir
  2151  00BA  00F0               	movwf	___lwdiv@divisor
  2152  00BB  120A  158A  200A  120A  118A  	fcall	stringdir
  2153  00C0  00F1               	movwf	___lwdiv@divisor+1
  2154  00C1  082A               	movf	sprintf@val+1,w
  2155  00C2  00F3               	movwf	___lwdiv@dividend+1
  2156  00C3  0829               	movf	sprintf@val,w
  2157  00C4  00F2               	movwf	___lwdiv@dividend
  2158  00C5  120A  158A  2159  120A  118A  	fcall	___lwdiv
  2159  00CA  0871               	movf	?___lwdiv+1,w
  2160  00CB  00FB               	movwf	___lwmod@dividend+1
  2161  00CC  0870               	movf	?___lwdiv,w
  2162  00CD  00FA               	movwf	___lwmod@dividend
  2163  00CE  120A  158A  211F  120A  118A  	fcall	___lwmod
  2164  00D3  0878               	movf	?___lwmod,w
  2165  00D4  3E30               	addlw	48
  2166  00D5  1283               	bcf	3,5	;RP0=0, select bank0
  2167  00D6  1303               	bcf	3,6	;RP1=0, select bank0
  2168  00D7  00A4               	movwf	??_sprintf+1
  2169  00D8  0824               	movf	??_sprintf+1,w
  2170  00D9  00AC               	movwf	sprintf@c
  2171  00DA                     l2241:	
  2172                           
  2173                           ;C:\Program Files (x86)\Microchip\xc8\v2.10\pic\sources\c90\common\doprnt.c: 1549:    };
      +                          C:\Program Files (x86)\Microchip\xc8\v2.10\pic\sources\c90\common\doprnt.c: 1550:    ((*
      +                          sp++ = (c)));
  2174  00DA  082C               	movf	sprintf@c,w
  2175  00DB  00A3               	movwf	??_sprintf
  2176  00DC  082B               	movf	sprintf@sp,w
  2177  00DD  0084               	movwf	4
  2178  00DE  0823               	movf	??_sprintf,w
  2179  00DF  1383               	bcf	3,7	;select IRP bank0
  2180  00E0  0080               	movwf	0
  2181  00E1                     l2243:	
  2182  00E1  3001               	movlw	1
  2183  00E2  00A3               	movwf	??_sprintf
  2184  00E3  0823               	movf	??_sprintf,w
  2185  00E4  07AB               	addwf	sprintf@sp,f
  2186  00E5                     l2245:	
  2187                           
  2188                           ;C:\Program Files (x86)\Microchip\xc8\v2.10\pic\sources\c90\common\doprnt.c: 1500:   whi
      +                          le(prec--) {
  2189  00E5  30FF               	movlw	255
  2190  00E6  00A3               	movwf	??_sprintf
  2191  00E7  0823               	movf	??_sprintf,w
  2192  00E8  07A8               	addwf	sprintf@prec,f
  2193  00E9  0A28               	incf	sprintf@prec,w
  2194  00EA  1D03               	btfss	3,2
  2195  00EB  28ED               	goto	u2671
  2196  00EC  28EE               	goto	u2670
  2197  00ED                     u2671:	
  2198  00ED  28AC               	goto	l2239
  2199  00EE                     u2670:	
  2200  00EE                     l2247:	
  2201                           
  2202                           ;C:\Program Files (x86)\Microchip\xc8\v2.10\pic\sources\c90\common\doprnt.c: 553:  while
      +                          ((c = *f++)) {
  2203  00EE  3001               	movlw	1
  2204  00EF  07A0               	addwf	sprintf@f,f
  2205  00F0  30FF               	movlw	-1
  2206  00F1  0720               	addwf	sprintf@f,w
  2207  00F2  0084               	movwf	4
  2208  00F3  120A  158A  200A  120A  118A  	fcall	stringdir
  2209  00F8  00A3               	movwf	??_sprintf
  2210  00F9  0823               	movf	??_sprintf,w
  2211  00FA  00AC               	movwf	sprintf@c
  2212  00FB  082C               	movf	sprintf@c,w
  2213  00FC  1D03               	btfss	3,2
  2214  00FD  28FF               	goto	u2681
  2215  00FE  2900               	goto	u2680
  2216  00FF                     u2681:	
  2217  00FF  2825               	goto	l2197
  2218  0100                     u2680:	
  2219  0100                     l2249:	
  2220                           
  2221                           ;C:\Program Files (x86)\Microchip\xc8\v2.10\pic\sources\c90\common\doprnt.c: 1564:  *sp 
      +                          = 0;
  2222  0100  082B               	movf	sprintf@sp,w
  2223  0101  0084               	movwf	4
  2224  0102  1383               	bcf	3,7	;select IRP bank0
  2225  0103  0180               	clrf	0
  2226  0104                     l287:	
  2227  0104  0008               	return
  2228  0105                     __end_of_sprintf:	
  2229                           
  2230                           	psect	text2
  2231  091F                     __ptext2:	
  2232 ;; *************** function ___lwmod *****************
  2233 ;; Defined at:
  2234 ;;		line 5 in file "C:\Program Files (x86)\Microchip\xc8\v2.10\pic\sources\c90\common\lwmod.c"
  2235 ;; Parameters:    Size  Location     Type
  2236 ;;  divisor         2    8[COMMON] unsigned int 
  2237 ;;  dividend        2   10[COMMON] unsigned int 
  2238 ;; Auto vars:     Size  Location     Type
  2239 ;;  counter         1   13[COMMON] unsigned char 
  2240 ;; Return value:  Size  Location     Type
  2241 ;;                  2    8[COMMON] unsigned int 
  2242 ;; Registers used:
  2243 ;;		wreg, status,2, status,0
  2244 ;; Tracked objects:
  2245 ;;		On entry : 0/0
  2246 ;;		On exit  : 0/0
  2247 ;;		Unchanged: 0/0
  2248 ;; Data sizes:     COMMON   BANK0   BANK1   BANK3   BANK2
  2249 ;;      Params:         4       0       0       0       0
  2250 ;;      Locals:         1       0       0       0       0
  2251 ;;      Temps:          1       0       0       0       0
  2252 ;;      Totals:         6       0       0       0       0
  2253 ;;Total ram usage:        6 bytes
  2254 ;; Hardware stack levels used:    1
  2255 ;; This function calls:
  2256 ;;		Nothing
  2257 ;; This function is called by:
  2258 ;;		_sprintf
  2259 ;; This function uses a non-reentrant model
  2260 ;;
  2261                           
  2262                           
  2263                           ;psect for function ___lwmod
  2264  091F                     ___lwmod:	
  2265  091F                     l1889:	
  2266                           ;incstack = 0
  2267                           ; Regs used in ___lwmod: [wreg+status,2+status,0]
  2268                           
  2269  091F  0878               	movf	___lwmod@divisor,w
  2270  0920  0479               	iorwf	___lwmod@divisor+1,w
  2271  0921  1903               	btfsc	3,2
  2272  0922  2924               	goto	u2031
  2273  0923  2925               	goto	u2030
  2274  0924                     u2031:	
  2275  0924  2954               	goto	l1907
  2276  0925                     u2030:	
  2277  0925                     l1891:	
  2278  0925  01FD               	clrf	___lwmod@counter
  2279  0926  0AFD               	incf	___lwmod@counter,f
  2280  0927  2933               	goto	l1897
  2281  0928                     l1893:	
  2282  0928  3001               	movlw	1
  2283  0929                     u2045:	
  2284  0929  1003               	clrc
  2285  092A  0DF8               	rlf	___lwmod@divisor,f
  2286  092B  0DF9               	rlf	___lwmod@divisor+1,f
  2287  092C  3EFF               	addlw	-1
  2288  092D  1D03               	skipz
  2289  092E  2929               	goto	u2045
  2290  092F                     l1895:	
  2291  092F  3001               	movlw	1
  2292  0930  00FC               	movwf	??___lwmod
  2293  0931  087C               	movf	??___lwmod,w
  2294  0932  07FD               	addwf	___lwmod@counter,f
  2295  0933                     l1897:	
  2296  0933  1FF9               	btfss	___lwmod@divisor+1,7
  2297  0934  2936               	goto	u2051
  2298  0935  2937               	goto	u2050
  2299  0936                     u2051:	
  2300  0936  2928               	goto	l1893
  2301  0937                     u2050:	
  2302  0937                     l1899:	
  2303  0937  0879               	movf	___lwmod@divisor+1,w
  2304  0938  027B               	subwf	___lwmod@dividend+1,w
  2305  0939  1D03               	skipz
  2306  093A  293D               	goto	u2065
  2307  093B  0878               	movf	___lwmod@divisor,w
  2308  093C  027A               	subwf	___lwmod@dividend,w
  2309  093D                     u2065:	
  2310  093D  1C03               	skipc
  2311  093E  2940               	goto	u2061
  2312  093F  2941               	goto	u2060
  2313  0940                     u2061:	
  2314  0940  2947               	goto	l1903
  2315  0941                     u2060:	
  2316  0941                     l1901:	
  2317  0941  0878               	movf	___lwmod@divisor,w
  2318  0942  02FA               	subwf	___lwmod@dividend,f
  2319  0943  0879               	movf	___lwmod@divisor+1,w
  2320  0944  1C03               	skipc
  2321  0945  03FB               	decf	___lwmod@dividend+1,f
  2322  0946  02FB               	subwf	___lwmod@dividend+1,f
  2323  0947                     l1903:	
  2324  0947  3001               	movlw	1
  2325  0948                     u2075:	
  2326  0948  1003               	clrc
  2327  0949  0CF9               	rrf	___lwmod@divisor+1,f
  2328  094A  0CF8               	rrf	___lwmod@divisor,f
  2329  094B  3EFF               	addlw	-1
  2330  094C  1D03               	skipz
  2331  094D  2948               	goto	u2075
  2332  094E                     l1905:	
  2333  094E  3001               	movlw	1
  2334  094F  02FD               	subwf	___lwmod@counter,f
  2335  0950  1D03               	btfss	3,2
  2336  0951  2953               	goto	u2081
  2337  0952  2954               	goto	u2080
  2338  0953                     u2081:	
  2339  0953  2937               	goto	l1899
  2340  0954                     u2080:	
  2341  0954                     l1907:	
  2342  0954  087B               	movf	___lwmod@dividend+1,w
  2343  0955  00F9               	movwf	?___lwmod+1
  2344  0956  087A               	movf	___lwmod@dividend,w
  2345  0957  00F8               	movwf	?___lwmod
  2346  0958                     l573:	
  2347  0958  0008               	return
  2348  0959                     __end_of___lwmod:	
  2349                           
  2350                           	psect	text3
  2351  0959                     __ptext3:	
  2352 ;; *************** function ___lwdiv *****************
  2353 ;; Defined at:
  2354 ;;		line 5 in file "C:\Program Files (x86)\Microchip\xc8\v2.10\pic\sources\c90\common\lwdiv.c"
  2355 ;; Parameters:    Size  Location     Type
  2356 ;;  divisor         2    0[COMMON] unsigned int 
  2357 ;;  dividend        2    2[COMMON] unsigned int 
  2358 ;; Auto vars:     Size  Location     Type
  2359 ;;  quotient        2    5[COMMON] unsigned int 
  2360 ;;  counter         1    7[COMMON] unsigned char 
  2361 ;; Return value:  Size  Location     Type
  2362 ;;                  2    0[COMMON] unsigned int 
  2363 ;; Registers used:
  2364 ;;		wreg, status,2, status,0
  2365 ;; Tracked objects:
  2366 ;;		On entry : 0/0
  2367 ;;		On exit  : 0/0
  2368 ;;		Unchanged: 0/0
  2369 ;; Data sizes:     COMMON   BANK0   BANK1   BANK3   BANK2
  2370 ;;      Params:         4       0       0       0       0
  2371 ;;      Locals:         3       0       0       0       0
  2372 ;;      Temps:          1       0       0       0       0
  2373 ;;      Totals:         8       0       0       0       0
  2374 ;;Total ram usage:        8 bytes
  2375 ;; Hardware stack levels used:    1
  2376 ;; This function calls:
  2377 ;;		Nothing
  2378 ;; This function is called by:
  2379 ;;		_sprintf
  2380 ;; This function uses a non-reentrant model
  2381 ;;
  2382                           
  2383                           
  2384                           ;psect for function ___lwdiv
  2385  0959                     ___lwdiv:	
  2386  0959                     l1863:	
  2387                           ;incstack = 0
  2388                           ; Regs used in ___lwdiv: [wreg+status,2+status,0]
  2389                           
  2390  0959  01F5               	clrf	___lwdiv@quotient
  2391  095A  01F6               	clrf	___lwdiv@quotient+1
  2392  095B                     l1865:	
  2393  095B  0870               	movf	___lwdiv@divisor,w
  2394  095C  0471               	iorwf	___lwdiv@divisor+1,w
  2395  095D  1903               	btfsc	3,2
  2396  095E  2960               	goto	u1961
  2397  095F  2961               	goto	u1960
  2398  0960                     u1961:	
  2399  0960  2998               	goto	l1885
  2400  0961                     u1960:	
  2401  0961                     l1867:	
  2402  0961  01F7               	clrf	___lwdiv@counter
  2403  0962  0AF7               	incf	___lwdiv@counter,f
  2404  0963  296F               	goto	l1873
  2405  0964                     l1869:	
  2406  0964  3001               	movlw	1
  2407  0965                     u1975:	
  2408  0965  1003               	clrc
  2409  0966  0DF0               	rlf	___lwdiv@divisor,f
  2410  0967  0DF1               	rlf	___lwdiv@divisor+1,f
  2411  0968  3EFF               	addlw	-1
  2412  0969  1D03               	skipz
  2413  096A  2965               	goto	u1975
  2414  096B                     l1871:	
  2415  096B  3001               	movlw	1
  2416  096C  00F4               	movwf	??___lwdiv
  2417  096D  0874               	movf	??___lwdiv,w
  2418  096E  07F7               	addwf	___lwdiv@counter,f
  2419  096F                     l1873:	
  2420  096F  1FF1               	btfss	___lwdiv@divisor+1,7
  2421  0970  2972               	goto	u1981
  2422  0971  2973               	goto	u1980
  2423  0972                     u1981:	
  2424  0972  2964               	goto	l1869
  2425  0973                     u1980:	
  2426  0973                     l1875:	
  2427  0973  3001               	movlw	1
  2428  0974                     u1995:	
  2429  0974  1003               	clrc
  2430  0975  0DF5               	rlf	___lwdiv@quotient,f
  2431  0976  0DF6               	rlf	___lwdiv@quotient+1,f
  2432  0977  3EFF               	addlw	-1
  2433  0978  1D03               	skipz
  2434  0979  2974               	goto	u1995
  2435  097A  0871               	movf	___lwdiv@divisor+1,w
  2436  097B  0273               	subwf	___lwdiv@dividend+1,w
  2437  097C  1D03               	skipz
  2438  097D  2980               	goto	u2005
  2439  097E  0870               	movf	___lwdiv@divisor,w
  2440  097F  0272               	subwf	___lwdiv@dividend,w
  2441  0980                     u2005:	
  2442  0980  1C03               	skipc
  2443  0981  2983               	goto	u2001
  2444  0982  2984               	goto	u2000
  2445  0983                     u2001:	
  2446  0983  298B               	goto	l1881
  2447  0984                     u2000:	
  2448  0984                     l1877:	
  2449  0984  0870               	movf	___lwdiv@divisor,w
  2450  0985  02F2               	subwf	___lwdiv@dividend,f
  2451  0986  0871               	movf	___lwdiv@divisor+1,w
  2452  0987  1C03               	skipc
  2453  0988  03F3               	decf	___lwdiv@dividend+1,f
  2454  0989  02F3               	subwf	___lwdiv@dividend+1,f
  2455  098A                     l1879:	
  2456  098A  1475               	bsf	___lwdiv@quotient,0
  2457  098B                     l1881:	
  2458  098B  3001               	movlw	1
  2459  098C                     u2015:	
  2460  098C  1003               	clrc
  2461  098D  0CF1               	rrf	___lwdiv@divisor+1,f
  2462  098E  0CF0               	rrf	___lwdiv@divisor,f
  2463  098F  3EFF               	addlw	-1
  2464  0990  1D03               	skipz
  2465  0991  298C               	goto	u2015
  2466  0992                     l1883:	
  2467  0992  3001               	movlw	1
  2468  0993  02F7               	subwf	___lwdiv@counter,f
  2469  0994  1D03               	btfss	3,2
  2470  0995  2997               	goto	u2021
  2471  0996  2998               	goto	u2020
  2472  0997                     u2021:	
  2473  0997  2973               	goto	l1875
  2474  0998                     u2020:	
  2475  0998                     l1885:	
  2476  0998  0876               	movf	___lwdiv@quotient+1,w
  2477  0999  00F1               	movwf	?___lwdiv+1
  2478  099A  0875               	movf	___lwdiv@quotient,w
  2479  099B  00F0               	movwf	?___lwdiv
  2480  099C                     l563:	
  2481  099C  0008               	return
  2482  099D                     __end_of___lwdiv:	
  2483                           
  2484                           	psect	text4
  2485  1799                     __ptext4:	
  2486 ;; *************** function _config *****************
  2487 ;; Defined at:
  2488 ;;		line 162 in file "main.c"
  2489 ;; Parameters:    Size  Location     Type
  2490 ;;		None
  2491 ;; Auto vars:     Size  Location     Type
  2492 ;;		None
  2493 ;; Return value:  Size  Location     Type
  2494 ;;                  1    wreg      void 
  2495 ;; Registers used:
  2496 ;;		wreg, status,2, status,0, pclath, cstack
  2497 ;; Tracked objects:
  2498 ;;		On entry : 0/0
  2499 ;;		On exit  : 0/0
  2500 ;;		Unchanged: 0/0
  2501 ;; Data sizes:     COMMON   BANK0   BANK1   BANK3   BANK2
  2502 ;;      Params:         0       0       0       0       0
  2503 ;;      Locals:         0       0       0       0       0
  2504 ;;      Temps:          0       0       0       0       0
  2505 ;;      Totals:         0       0       0       0       0
  2506 ;;Total ram usage:        0 bytes
  2507 ;; Hardware stack levels used:    1
  2508 ;; Hardware stack levels required when called:    2
  2509 ;; This function calls:
  2510 ;;		_I2C_Master_Init
  2511 ;; This function is called by:
  2512 ;;		_main
  2513 ;; This function uses a non-reentrant model
  2514 ;;
  2515                           
  2516                           
  2517                           ;psect for function _config
  2518  1799                     _config:	
  2519  1799                     l2119:	
  2520                           ;incstack = 0
  2521                           ; Regs used in _config: [wreg+status,2+status,0+pclath+cstack]
  2522                           
  2523                           
  2524                           ;main.c: 163:     TRISB = 0x00;
  2525  1799  1683               	bsf	3,5	;RP0=1, select bank1
  2526  179A  1303               	bcf	3,6	;RP1=0, select bank1
  2527  179B  0186               	clrf	6	;volatile
  2528                           
  2529                           ;main.c: 164:     TRISD = 0x00;
  2530  179C  0188               	clrf	8	;volatile
  2531                           
  2532                           ;main.c: 165:     ANSELH = 0x00;
  2533  179D  1683               	bsf	3,5	;RP0=1, select bank3
  2534  179E  1703               	bsf	3,6	;RP1=1, select bank3
  2535  179F  0189               	clrf	9	;volatile
  2536                           
  2537                           ;main.c: 166:     ANSEL = 0x00;
  2538  17A0  0188               	clrf	8	;volatile
  2539  17A1                     l2121:	
  2540                           
  2541                           ;main.c: 167:     ANSELbits.ANS0 = 1;
  2542  17A1  1408               	bsf	8,0	;volatile
  2543  17A2                     l2123:	
  2544                           
  2545                           ;main.c: 168:     ANSELbits.ANS1 = 1;
  2546  17A2  1488               	bsf	8,1	;volatile
  2547                           
  2548                           ;main.c: 169:     PORTA = 0x00;
  2549  17A3  1283               	bcf	3,5	;RP0=0, select bank0
  2550  17A4  1303               	bcf	3,6	;RP1=0, select bank0
  2551  17A5  0185               	clrf	5	;volatile
  2552                           
  2553                           ;main.c: 170:     PORTB = 0x00;
  2554  17A6  0186               	clrf	6	;volatile
  2555                           
  2556                           ;main.c: 171:     PORTC = 0x00;
  2557  17A7  0187               	clrf	7	;volatile
  2558                           
  2559                           ;main.c: 172:     PORTD = 0x00;
  2560  17A8  0188               	clrf	8	;volatile
  2561  17A9                     l2125:	
  2562                           
  2563                           ;main.c: 173:     I2C_Master_Init(100000);
  2564  17A9  3000               	movlw	0
  2565  17AA  00A3               	movwf	I2C_Master_Init@c+3
  2566  17AB  3001               	movlw	1
  2567  17AC  00A2               	movwf	I2C_Master_Init@c+2
  2568  17AD  3086               	movlw	134
  2569  17AE  00A1               	movwf	I2C_Master_Init@c+1
  2570  17AF  30A0               	movlw	160
  2571  17B0  00A0               	movwf	I2C_Master_Init@c
  2572  17B1  120A  158A  20E7  160A  118A  	fcall	_I2C_Master_Init
  2573  17B6                     l87:	
  2574  17B6  0008               	return
  2575  17B7                     __end_of_config:	
  2576                           
  2577                           	psect	text5
  2578  08E7                     __ptext5:	
  2579 ;; *************** function _I2C_Master_Init *****************
  2580 ;; Defined at:
  2581 ;;		line 17 in file "I2C.c"
  2582 ;; Parameters:    Size  Location     Type
  2583 ;;  c               4    0[BANK0 ] const unsigned long 
  2584 ;; Auto vars:     Size  Location     Type
  2585 ;;		None
  2586 ;; Return value:  Size  Location     Type
  2587 ;;                  1    wreg      void 
  2588 ;; Registers used:
  2589 ;;		wreg, status,2, status,0, pclath, cstack
  2590 ;; Tracked objects:
  2591 ;;		On entry : 0/0
  2592 ;;		On exit  : 0/0
  2593 ;;		Unchanged: 0/0
  2594 ;; Data sizes:     COMMON   BANK0   BANK1   BANK3   BANK2
  2595 ;;      Params:         0       4       0       0       0
  2596 ;;      Locals:         0       0       0       0       0
  2597 ;;      Temps:          0       4       0       0       0
  2598 ;;      Totals:         0       8       0       0       0
  2599 ;;Total ram usage:        8 bytes
  2600 ;; Hardware stack levels used:    1
  2601 ;; Hardware stack levels required when called:    1
  2602 ;; This function calls:
  2603 ;;		___lldiv
  2604 ;; This function is called by:
  2605 ;;		_config
  2606 ;; This function uses a non-reentrant model
  2607 ;;
  2608                           
  2609                           
  2610                           ;psect for function _I2C_Master_Init
  2611  08E7                     _I2C_Master_Init:	
  2612  08E7                     l1817:	
  2613                           ;incstack = 0
  2614                           ; Regs used in _I2C_Master_Init: [wreg+status,2+status,0+pclath+cstack]
  2615                           
  2616                           
  2617                           ;I2C.c: 17: void I2C_Master_Init(const unsigned long c);I2C.c: 18: {;I2C.c: 19:     SSPC
      +                          ON = 0b00101000;
  2618  08E7  3028               	movlw	40
  2619  08E8  1283               	bcf	3,5	;RP0=0, select bank0
  2620  08E9  1303               	bcf	3,6	;RP1=0, select bank0
  2621  08EA  0094               	movwf	20	;volatile
  2622  08EB                     l1819:	
  2623                           
  2624                           ;I2C.c: 20:     SSPCON2 = 0;
  2625  08EB  1683               	bsf	3,5	;RP0=1, select bank1
  2626  08EC  1303               	bcf	3,6	;RP1=0, select bank1
  2627  08ED  0191               	clrf	17	;volatile
  2628  08EE                     l1821:	
  2629                           
  2630                           ;I2C.c: 21:     SSPADD = (8000000/(4*c))-1;
  2631  08EE  1283               	bcf	3,5	;RP0=0, select bank0
  2632  08EF  1303               	bcf	3,6	;RP1=0, select bank0
  2633  08F0  0820               	movf	I2C_Master_Init@c,w
  2634  08F1  00A4               	movwf	??_I2C_Master_Init
  2635  08F2  0821               	movf	I2C_Master_Init@c+1,w
  2636  08F3  00A5               	movwf	??_I2C_Master_Init+1
  2637  08F4  0822               	movf	I2C_Master_Init@c+2,w
  2638  08F5  00A6               	movwf	??_I2C_Master_Init+2
  2639  08F6  0823               	movf	I2C_Master_Init@c+3,w
  2640  08F7  00A7               	movwf	??_I2C_Master_Init+3
  2641  08F8  3002               	movlw	2
  2642  08F9                     u1895:	
  2643  08F9  1003               	clrc
  2644  08FA  0DA4               	rlf	??_I2C_Master_Init,f
  2645  08FB  0DA5               	rlf	??_I2C_Master_Init+1,f
  2646  08FC  0DA6               	rlf	??_I2C_Master_Init+2,f
  2647  08FD  0DA7               	rlf	??_I2C_Master_Init+3,f
  2648  08FE                     u1890:	
  2649  08FE  3EFF               	addlw	-1
  2650  08FF  1D03               	skipz
  2651  0900  28F9               	goto	u1895
  2652  0901  0827               	movf	??_I2C_Master_Init+3,w
  2653  0902  00F3               	movwf	___lldiv@divisor+3
  2654  0903  0826               	movf	??_I2C_Master_Init+2,w
  2655  0904  00F2               	movwf	___lldiv@divisor+2
  2656  0905  0825               	movf	??_I2C_Master_Init+1,w
  2657  0906  00F1               	movwf	___lldiv@divisor+1
  2658  0907  0824               	movf	??_I2C_Master_Init,w
  2659  0908  00F0               	movwf	___lldiv@divisor
  2660  0909  3000               	movlw	0
  2661  090A  00F7               	movwf	___lldiv@dividend+3
  2662  090B  307A               	movlw	122
  2663  090C  00F6               	movwf	___lldiv@dividend+2
  2664  090D  3012               	movlw	18
  2665  090E  00F5               	movwf	___lldiv@dividend+1
  2666  090F  3000               	movlw	0
  2667  0910  00F4               	movwf	___lldiv@dividend
  2668  0911  120A  158A  21F1  120A  158A  	fcall	___lldiv
  2669  0916  0870               	movf	?___lldiv,w
  2670  0917  3EFF               	addlw	255
  2671  0918  1683               	bsf	3,5	;RP0=1, select bank1
  2672  0919  1303               	bcf	3,6	;RP1=0, select bank1
  2673  091A  0093               	movwf	19	;volatile
  2674  091B                     l1823:	
  2675                           
  2676                           ;I2C.c: 22:     SSPSTAT = 0;
  2677  091B  0194               	clrf	20	;volatile
  2678  091C                     l1825:	
  2679                           
  2680                           ;I2C.c: 23:     TRISCbits.TRISC3 = 1;
  2681  091C  1587               	bsf	7,3	;volatile
  2682  091D                     l1827:	
  2683                           
  2684                           ;I2C.c: 24:     TRISCbits.TRISC4 = 1;
  2685  091D  1607               	bsf	7,4	;volatile
  2686  091E                     l151:	
  2687  091E  0008               	return
  2688  091F                     __end_of_I2C_Master_Init:	
  2689                           
  2690                           	psect	text6
  2691  09F1                     __ptext6:	
  2692 ;; *************** function ___lldiv *****************
  2693 ;; Defined at:
  2694 ;;		line 5 in file "C:\Program Files (x86)\Microchip\xc8\v2.10\pic\sources\c90\common\__lldiv.c"
  2695 ;; Parameters:    Size  Location     Type
  2696 ;;  divisor         4    0[COMMON] unsigned long 
  2697 ;;  dividend        4    4[COMMON] unsigned long 
  2698 ;; Auto vars:     Size  Location     Type
  2699 ;;  quotient        4    9[COMMON] unsigned long 
  2700 ;;  counter         1   13[COMMON] unsigned char 
  2701 ;; Return value:  Size  Location     Type
  2702 ;;                  4    0[COMMON] unsigned long 
  2703 ;; Registers used:
  2704 ;;		wreg, status,2, status,0
  2705 ;; Tracked objects:
  2706 ;;		On entry : 0/0
  2707 ;;		On exit  : 0/0
  2708 ;;		Unchanged: 0/0
  2709 ;; Data sizes:     COMMON   BANK0   BANK1   BANK3   BANK2
  2710 ;;      Params:         8       0       0       0       0
  2711 ;;      Locals:         5       0       0       0       0
  2712 ;;      Temps:          1       0       0       0       0
  2713 ;;      Totals:        14       0       0       0       0
  2714 ;;Total ram usage:       14 bytes
  2715 ;; Hardware stack levels used:    1
  2716 ;; This function calls:
  2717 ;;		Nothing
  2718 ;; This function is called by:
  2719 ;;		_I2C_Master_Init
  2720 ;; This function uses a non-reentrant model
  2721 ;;
  2722                           
  2723                           
  2724                           ;psect for function ___lldiv
  2725  09F1                     ___lldiv:	
  2726  09F1                     l1793:	
  2727                           ;incstack = 0
  2728                           ; Regs used in ___lldiv: [wreg+status,2+status,0]
  2729                           
  2730  09F1  3000               	movlw	0
  2731  09F2  00FC               	movwf	___lldiv@quotient+3
  2732  09F3  3000               	movlw	0
  2733  09F4  00FB               	movwf	___lldiv@quotient+2
  2734  09F5  3000               	movlw	0
  2735  09F6  00FA               	movwf	___lldiv@quotient+1
  2736  09F7  3000               	movlw	0
  2737  09F8  00F9               	movwf	___lldiv@quotient
  2738  09F9  0873               	movf	___lldiv@divisor+3,w
  2739  09FA  0472               	iorwf	___lldiv@divisor+2,w
  2740  09FB  0471               	iorwf	___lldiv@divisor+1,w
  2741  09FC  0470               	iorwf	___lldiv@divisor,w
  2742  09FD  1903               	skipnz
  2743  09FE  2A00               	goto	u1821
  2744  09FF  2A01               	goto	u1820
  2745  0A00                     u1821:	
  2746  0A00  2A4E               	goto	l1813
  2747  0A01                     u1820:	
  2748  0A01                     l1795:	
  2749  0A01  01FD               	clrf	___lldiv@counter
  2750  0A02  0AFD               	incf	___lldiv@counter,f
  2751  0A03  2A11               	goto	l1799
  2752  0A04                     l1797:	
  2753  0A04  3001               	movlw	1
  2754  0A05  00F8               	movwf	??___lldiv
  2755  0A06                     u1835:	
  2756  0A06  1003               	clrc
  2757  0A07  0DF0               	rlf	___lldiv@divisor,f
  2758  0A08  0DF1               	rlf	___lldiv@divisor+1,f
  2759  0A09  0DF2               	rlf	___lldiv@divisor+2,f
  2760  0A0A  0DF3               	rlf	___lldiv@divisor+3,f
  2761  0A0B  0BF8               	decfsz	??___lldiv,f
  2762  0A0C  2A06               	goto	u1835
  2763  0A0D  3001               	movlw	1
  2764  0A0E  00F8               	movwf	??___lldiv
  2765  0A0F  0878               	movf	??___lldiv,w
  2766  0A10  07FD               	addwf	___lldiv@counter,f
  2767  0A11                     l1799:	
  2768  0A11  1FF3               	btfss	___lldiv@divisor+3,7
  2769  0A12  2A14               	goto	u1841
  2770  0A13  2A15               	goto	u1840
  2771  0A14                     u1841:	
  2772  0A14  2A04               	goto	l1797
  2773  0A15                     u1840:	
  2774  0A15                     l1801:	
  2775  0A15  3001               	movlw	1
  2776  0A16  00F8               	movwf	??___lldiv
  2777  0A17                     u1855:	
  2778  0A17  1003               	clrc
  2779  0A18  0DF9               	rlf	___lldiv@quotient,f
  2780  0A19  0DFA               	rlf	___lldiv@quotient+1,f
  2781  0A1A  0DFB               	rlf	___lldiv@quotient+2,f
  2782  0A1B  0DFC               	rlf	___lldiv@quotient+3,f
  2783  0A1C  0BF8               	decfsz	??___lldiv,f
  2784  0A1D  2A17               	goto	u1855
  2785  0A1E                     l1803:	
  2786  0A1E  0873               	movf	___lldiv@divisor+3,w
  2787  0A1F  0277               	subwf	___lldiv@dividend+3,w
  2788  0A20  1D03               	skipz
  2789  0A21  2A2C               	goto	u1865
  2790  0A22  0872               	movf	___lldiv@divisor+2,w
  2791  0A23  0276               	subwf	___lldiv@dividend+2,w
  2792  0A24  1D03               	skipz
  2793  0A25  2A2C               	goto	u1865
  2794  0A26  0871               	movf	___lldiv@divisor+1,w
  2795  0A27  0275               	subwf	___lldiv@dividend+1,w
  2796  0A28  1D03               	skipz
  2797  0A29  2A2C               	goto	u1865
  2798  0A2A  0870               	movf	___lldiv@divisor,w
  2799  0A2B  0274               	subwf	___lldiv@dividend,w
  2800  0A2C                     u1865:	
  2801  0A2C  1C03               	skipc
  2802  0A2D  2A2F               	goto	u1861
  2803  0A2E  2A30               	goto	u1860
  2804  0A2F                     u1861:	
  2805  0A2F  2A3F               	goto	l1809
  2806  0A30                     u1860:	
  2807  0A30                     l1805:	
  2808  0A30  0870               	movf	___lldiv@divisor,w
  2809  0A31  02F4               	subwf	___lldiv@dividend,f
  2810  0A32  0871               	movf	___lldiv@divisor+1,w
  2811  0A33  1C03               	skipc
  2812  0A34  0F71               	incfsz	___lldiv@divisor+1,w
  2813  0A35  02F5               	subwf	___lldiv@dividend+1,f
  2814  0A36  0872               	movf	___lldiv@divisor+2,w
  2815  0A37  1C03               	skipc
  2816  0A38  0F72               	incfsz	___lldiv@divisor+2,w
  2817  0A39  02F6               	subwf	___lldiv@dividend+2,f
  2818  0A3A  0873               	movf	___lldiv@divisor+3,w
  2819  0A3B  1C03               	skipc
  2820  0A3C  0F73               	incfsz	___lldiv@divisor+3,w
  2821  0A3D  02F7               	subwf	___lldiv@dividend+3,f
  2822  0A3E                     l1807:	
  2823  0A3E  1479               	bsf	___lldiv@quotient,0
  2824  0A3F                     l1809:	
  2825  0A3F  3001               	movlw	1
  2826  0A40                     u1875:	
  2827  0A40  1003               	clrc
  2828  0A41  0CF3               	rrf	___lldiv@divisor+3,f
  2829  0A42  0CF2               	rrf	___lldiv@divisor+2,f
  2830  0A43  0CF1               	rrf	___lldiv@divisor+1,f
  2831  0A44  0CF0               	rrf	___lldiv@divisor,f
  2832  0A45  3EFF               	addlw	-1
  2833  0A46  1D03               	skipz
  2834  0A47  2A40               	goto	u1875
  2835  0A48                     l1811:	
  2836  0A48  3001               	movlw	1
  2837  0A49  02FD               	subwf	___lldiv@counter,f
  2838  0A4A  1D03               	btfss	3,2
  2839  0A4B  2A4D               	goto	u1881
  2840  0A4C  2A4E               	goto	u1880
  2841  0A4D                     u1881:	
  2842  0A4D  2A15               	goto	l1801
  2843  0A4E                     u1880:	
  2844  0A4E                     l1813:	
  2845  0A4E  087C               	movf	___lldiv@quotient+3,w
  2846  0A4F  00F3               	movwf	?___lldiv+3
  2847  0A50  087B               	movf	___lldiv@quotient+2,w
  2848  0A51  00F2               	movwf	?___lldiv+2
  2849  0A52  087A               	movf	___lldiv@quotient+1,w
  2850  0A53  00F1               	movwf	?___lldiv+1
  2851  0A54  0879               	movf	___lldiv@quotient,w
  2852  0A55  00F0               	movwf	?___lldiv
  2853  0A56                     l327:	
  2854  0A56  0008               	return
  2855  0A57                     __end_of___lldiv:	
  2856                           
  2857                           	psect	text7
  2858  0AD1                     __ptext7:	
  2859 ;; *************** function ___xxtofl *****************
  2860 ;; Defined at:
  2861 ;;		line 10 in file "C:\Program Files (x86)\Microchip\xc8\v2.10\pic\sources\c90\common\xxtofl.c"
  2862 ;; Parameters:    Size  Location     Type
  2863 ;;  sign            1    wreg     unsigned char 
  2864 ;;  val             4    0[COMMON] long 
  2865 ;; Auto vars:     Size  Location     Type
  2866 ;;  sign            1    8[COMMON] unsigned char 
  2867 ;;  arg             4   10[COMMON] unsigned long 
  2868 ;;  exp             1    9[COMMON] unsigned char 
  2869 ;; Return value:  Size  Location     Type
  2870 ;;                  4    0[COMMON] unsigned char 
  2871 ;; Registers used:
  2872 ;;		wreg, status,2, status,0
  2873 ;; Tracked objects:
  2874 ;;		On entry : 0/0
  2875 ;;		On exit  : 0/0
  2876 ;;		Unchanged: 0/0
  2877 ;; Data sizes:     COMMON   BANK0   BANK1   BANK3   BANK2
  2878 ;;      Params:         4       0       0       0       0
  2879 ;;      Locals:         6       0       0       0       0
  2880 ;;      Temps:          4       0       0       0       0
  2881 ;;      Totals:        14       0       0       0       0
  2882 ;;Total ram usage:       14 bytes
  2883 ;; Hardware stack levels used:    1
  2884 ;; This function calls:
  2885 ;;		Nothing
  2886 ;; This function is called by:
  2887 ;;		_main
  2888 ;; This function uses a non-reentrant model
  2889 ;;
  2890                           
  2891                           
  2892                           ;psect for function ___xxtofl
  2893  0AD1                     ___xxtofl:	
  2894                           
  2895                           ;incstack = 0
  2896                           ; Regs used in ___xxtofl: [wreg+status,2+status,0]
  2897                           ;___xxtofl@sign stored from wreg
  2898  0AD1  00F8               	movwf	___xxtofl@sign
  2899  0AD2                     l2581:	
  2900  0AD2  0878               	movf	___xxtofl@sign,w
  2901  0AD3  1903               	btfsc	3,2
  2902  0AD4  2AD6               	goto	u3451
  2903  0AD5  2AD7               	goto	u3450
  2904  0AD6                     u3451:	
  2905  0AD6  2AEB               	goto	l2587
  2906  0AD7                     u3450:	
  2907  0AD7                     l2583:	
  2908  0AD7  1FF3               	btfss	___xxtofl@val+3,7
  2909  0AD8  2ADA               	goto	u3461
  2910  0AD9  2ADB               	goto	u3460
  2911  0ADA                     u3461:	
  2912  0ADA  2AEB               	goto	l2587
  2913  0ADB                     u3460:	
  2914  0ADB                     l2585:	
  2915  0ADB  0970               	comf	___xxtofl@val,w
  2916  0ADC  00FA               	movwf	___xxtofl@arg
  2917  0ADD  0971               	comf	___xxtofl@val+1,w
  2918  0ADE  00FB               	movwf	___xxtofl@arg+1
  2919  0ADF  0972               	comf	___xxtofl@val+2,w
  2920  0AE0  00FC               	movwf	___xxtofl@arg+2
  2921  0AE1  0973               	comf	___xxtofl@val+3,w
  2922  0AE2  00FD               	movwf	___xxtofl@arg+3
  2923  0AE3  0AFA               	incf	___xxtofl@arg,f
  2924  0AE4  1903               	skipnz
  2925  0AE5  0AFB               	incf	___xxtofl@arg+1,f
  2926  0AE6  1903               	skipnz
  2927  0AE7  0AFC               	incf	___xxtofl@arg+2,f
  2928  0AE8  1903               	skipnz
  2929  0AE9  0AFD               	incf	___xxtofl@arg+3,f
  2930  0AEA  2AF3               	goto	l718
  2931  0AEB                     l2587:	
  2932  0AEB  0873               	movf	___xxtofl@val+3,w
  2933  0AEC  00FD               	movwf	___xxtofl@arg+3
  2934  0AED  0872               	movf	___xxtofl@val+2,w
  2935  0AEE  00FC               	movwf	___xxtofl@arg+2
  2936  0AEF  0871               	movf	___xxtofl@val+1,w
  2937  0AF0  00FB               	movwf	___xxtofl@arg+1
  2938  0AF1  0870               	movf	___xxtofl@val,w
  2939  0AF2  00FA               	movwf	___xxtofl@arg
  2940  0AF3                     l718:	
  2941  0AF3  0873               	movf	___xxtofl@val+3,w
  2942  0AF4  0472               	iorwf	___xxtofl@val+2,w
  2943  0AF5  0471               	iorwf	___xxtofl@val+1,w
  2944  0AF6  0470               	iorwf	___xxtofl@val,w
  2945  0AF7  1D03               	skipz
  2946  0AF8  2AFA               	goto	u3471
  2947  0AF9  2AFB               	goto	u3470
  2948  0AFA                     u3471:	
  2949  0AFA  2B04               	goto	l2593
  2950  0AFB                     u3470:	
  2951  0AFB                     l2589:	
  2952  0AFB  3000               	movlw	0
  2953  0AFC  00F3               	movwf	?___xxtofl+3
  2954  0AFD  3000               	movlw	0
  2955  0AFE  00F2               	movwf	?___xxtofl+2
  2956  0AFF  3000               	movlw	0
  2957  0B00  00F1               	movwf	?___xxtofl+1
  2958  0B01  3000               	movlw	0
  2959  0B02  00F0               	movwf	?___xxtofl
  2960  0B03  2B8A               	goto	l720
  2961  0B04                     l2593:	
  2962  0B04  3096               	movlw	150
  2963  0B05  00F4               	movwf	??___xxtofl
  2964  0B06  0874               	movf	??___xxtofl,w
  2965  0B07  00F9               	movwf	___xxtofl@exp
  2966  0B08  2B16               	goto	l2597
  2967  0B09                     l2595:	
  2968  0B09  3001               	movlw	1
  2969  0B0A  00F4               	movwf	??___xxtofl
  2970  0B0B  0874               	movf	??___xxtofl,w
  2971  0B0C  07F9               	addwf	___xxtofl@exp,f
  2972  0B0D  3001               	movlw	1
  2973  0B0E                     u3485:	
  2974  0B0E  1003               	clrc
  2975  0B0F  0CFD               	rrf	___xxtofl@arg+3,f
  2976  0B10  0CFC               	rrf	___xxtofl@arg+2,f
  2977  0B11  0CFB               	rrf	___xxtofl@arg+1,f
  2978  0B12  0CFA               	rrf	___xxtofl@arg,f
  2979  0B13  3EFF               	addlw	-1
  2980  0B14  1D03               	skipz
  2981  0B15  2B0E               	goto	u3485
  2982  0B16                     l2597:	
  2983  0B16  30FE               	movlw	254
  2984  0B17  057D               	andwf	___xxtofl@arg+3,w
  2985  0B18  1D03               	btfss	3,2
  2986  0B19  2B1B               	goto	u3491
  2987  0B1A  2B1C               	goto	u3490
  2988  0B1B                     u3491:	
  2989  0B1B  2B09               	goto	l2595
  2990  0B1C                     u3490:	
  2991  0B1C  2B38               	goto	l724
  2992  0B1D                     l2599:	
  2993  0B1D  3001               	movlw	1
  2994  0B1E  00F4               	movwf	??___xxtofl
  2995  0B1F  0874               	movf	??___xxtofl,w
  2996  0B20  07F9               	addwf	___xxtofl@exp,f
  2997  0B21                     l2601:	
  2998  0B21  3001               	movlw	1
  2999  0B22  07FA               	addwf	___xxtofl@arg,f
  3000  0B23  3000               	movlw	0
  3001  0B24  1803               	skipnc
  3002  0B25  3001               	movlw	1
  3003  0B26  07FB               	addwf	___xxtofl@arg+1,f
  3004  0B27  3000               	movlw	0
  3005  0B28  1803               	skipnc
  3006  0B29  3001               	movlw	1
  3007  0B2A  07FC               	addwf	___xxtofl@arg+2,f
  3008  0B2B  3000               	movlw	0
  3009  0B2C  1803               	skipnc
  3010  0B2D  3001               	movlw	1
  3011  0B2E  07FD               	addwf	___xxtofl@arg+3,f
  3012  0B2F                     l2603:	
  3013  0B2F  3001               	movlw	1
  3014  0B30                     u3505:	
  3015  0B30  1003               	clrc
  3016  0B31  0CFD               	rrf	___xxtofl@arg+3,f
  3017  0B32  0CFC               	rrf	___xxtofl@arg+2,f
  3018  0B33  0CFB               	rrf	___xxtofl@arg+1,f
  3019  0B34  0CFA               	rrf	___xxtofl@arg,f
  3020  0B35  3EFF               	addlw	-1
  3021  0B36  1D03               	skipz
  3022  0B37  2B30               	goto	u3505
  3023  0B38                     l724:	
  3024  0B38  30FF               	movlw	255
  3025  0B39  057D               	andwf	___xxtofl@arg+3,w
  3026  0B3A  1D03               	btfss	3,2
  3027  0B3B  2B3D               	goto	u3511
  3028  0B3C  2B3E               	goto	u3510
  3029  0B3D                     u3511:	
  3030  0B3D  2B1D               	goto	l2599
  3031  0B3E                     u3510:	
  3032  0B3E  2B4A               	goto	l2607
  3033  0B3F                     l2605:	
  3034  0B3F  3001               	movlw	1
  3035  0B40  02F9               	subwf	___xxtofl@exp,f
  3036  0B41  3001               	movlw	1
  3037  0B42  00F4               	movwf	??___xxtofl
  3038  0B43                     u3525:	
  3039  0B43  1003               	clrc
  3040  0B44  0DFA               	rlf	___xxtofl@arg,f
  3041  0B45  0DFB               	rlf	___xxtofl@arg+1,f
  3042  0B46  0DFC               	rlf	___xxtofl@arg+2,f
  3043  0B47  0DFD               	rlf	___xxtofl@arg+3,f
  3044  0B48  0BF4               	decfsz	??___xxtofl,f
  3045  0B49  2B43               	goto	u3525
  3046  0B4A                     l2607:	
  3047  0B4A  1BFC               	btfsc	___xxtofl@arg+2,7
  3048  0B4B  2B4D               	goto	u3531
  3049  0B4C  2B4E               	goto	u3530
  3050  0B4D                     u3531:	
  3051  0B4D  2B54               	goto	l731
  3052  0B4E                     u3530:	
  3053  0B4E                     l2609:	
  3054  0B4E  3002               	movlw	2
  3055  0B4F  0279               	subwf	___xxtofl@exp,w
  3056  0B50  1803               	skipnc
  3057  0B51  2B53               	goto	u3541
  3058  0B52  2B54               	goto	u3540
  3059  0B53                     u3541:	
  3060  0B53  2B3F               	goto	l2605
  3061  0B54                     u3540:	
  3062  0B54                     l731:	
  3063  0B54  1879               	btfsc	___xxtofl@exp,0
  3064  0B55  2B57               	goto	u3551
  3065  0B56  2B58               	goto	u3550
  3066  0B57                     u3551:	
  3067  0B57  2B60               	goto	l732
  3068  0B58                     u3550:	
  3069  0B58                     l2611:	
  3070  0B58  30FF               	movlw	255
  3071  0B59  05FA               	andwf	___xxtofl@arg,f
  3072  0B5A  30FF               	movlw	255
  3073  0B5B  05FB               	andwf	___xxtofl@arg+1,f
  3074  0B5C  307F               	movlw	127
  3075  0B5D  05FC               	andwf	___xxtofl@arg+2,f
  3076  0B5E  30FF               	movlw	255
  3077  0B5F  05FD               	andwf	___xxtofl@arg+3,f
  3078  0B60                     l732:	
  3079  0B60  1003               	clrc
  3080  0B61  0CF9               	rrf	___xxtofl@exp,f
  3081  0B62                     l2613:	
  3082  0B62  0879               	movf	___xxtofl@exp,w
  3083  0B63  00F4               	movwf	??___xxtofl
  3084  0B64  01F5               	clrf	??___xxtofl+1
  3085  0B65  01F6               	clrf	??___xxtofl+2
  3086  0B66  01F7               	clrf	??___xxtofl+3
  3087  0B67  3018               	movlw	24
  3088  0B68                     u3565:	
  3089  0B68  1003               	clrc
  3090  0B69  0DF4               	rlf	??___xxtofl,f
  3091  0B6A  0DF5               	rlf	??___xxtofl+1,f
  3092  0B6B  0DF6               	rlf	??___xxtofl+2,f
  3093  0B6C  0DF7               	rlf	??___xxtofl+3,f
  3094  0B6D                     u3560:	
  3095  0B6D  3EFF               	addlw	-1
  3096  0B6E  1D03               	skipz
  3097  0B6F  2B68               	goto	u3565
  3098  0B70  0874               	movf	??___xxtofl,w
  3099  0B71  04FA               	iorwf	___xxtofl@arg,f
  3100  0B72  0875               	movf	??___xxtofl+1,w
  3101  0B73  04FB               	iorwf	___xxtofl@arg+1,f
  3102  0B74  0876               	movf	??___xxtofl+2,w
  3103  0B75  04FC               	iorwf	___xxtofl@arg+2,f
  3104  0B76  0877               	movf	??___xxtofl+3,w
  3105  0B77  04FD               	iorwf	___xxtofl@arg+3,f
  3106  0B78                     l2615:	
  3107  0B78  0878               	movf	___xxtofl@sign,w
  3108  0B79  1903               	btfsc	3,2
  3109  0B7A  2B7C               	goto	u3571
  3110  0B7B  2B7D               	goto	u3570
  3111  0B7C                     u3571:	
  3112  0B7C  2B82               	goto	l2621
  3113  0B7D                     u3570:	
  3114  0B7D                     l2617:	
  3115  0B7D  1FF3               	btfss	___xxtofl@val+3,7
  3116  0B7E  2B80               	goto	u3581
  3117  0B7F  2B81               	goto	u3580
  3118  0B80                     u3581:	
  3119  0B80  2B82               	goto	l2621
  3120  0B81                     u3580:	
  3121  0B81                     l2619:	
  3122  0B81  17FD               	bsf	___xxtofl@arg+3,7
  3123  0B82                     l2621:	
  3124  0B82  087D               	movf	___xxtofl@arg+3,w
  3125  0B83  00F3               	movwf	?___xxtofl+3
  3126  0B84  087C               	movf	___xxtofl@arg+2,w
  3127  0B85  00F2               	movwf	?___xxtofl+2
  3128  0B86  087B               	movf	___xxtofl@arg+1,w
  3129  0B87  00F1               	movwf	?___xxtofl+1
  3130  0B88  087A               	movf	___xxtofl@arg,w
  3131  0B89  00F0               	movwf	?___xxtofl
  3132  0B8A                     l720:	
  3133  0B8A  0008               	return
  3134  0B8B                     __end_of___xxtofl:	
  3135                           
  3136                           	psect	text8
  3137  0A57                     __ptext8:	
  3138 ;; *************** function ___fltol *****************
  3139 ;; Defined at:
  3140 ;;		line 43 in file "C:\Program Files (x86)\Microchip\xc8\v2.10\pic\sources\c90\common\fltol.c"
  3141 ;; Parameters:    Size  Location     Type
  3142 ;;  f1              4    0[COMMON] unsigned char 
  3143 ;; Auto vars:     Size  Location     Type
  3144 ;;  exp1            1   10[COMMON] unsigned char 
  3145 ;;  sign1           1    9[COMMON] unsigned char 
  3146 ;; Return value:  Size  Location     Type
  3147 ;;                  4    0[COMMON] long 
  3148 ;; Registers used:
  3149 ;;		wreg, status,2, status,0
  3150 ;; Tracked objects:
  3151 ;;		On entry : 0/0
  3152 ;;		On exit  : 0/0
  3153 ;;		Unchanged: 0/0
  3154 ;; Data sizes:     COMMON   BANK0   BANK1   BANK3   BANK2
  3155 ;;      Params:         4       0       0       0       0
  3156 ;;      Locals:         2       0       0       0       0
  3157 ;;      Temps:          5       0       0       0       0
  3158 ;;      Totals:        11       0       0       0       0
  3159 ;;Total ram usage:       11 bytes
  3160 ;; Hardware stack levels used:    1
  3161 ;; This function calls:
  3162 ;;		Nothing
  3163 ;; This function is called by:
  3164 ;;		_main
  3165 ;; This function uses a non-reentrant model
  3166 ;;
  3167                           
  3168                           
  3169                           ;psect for function ___fltol
  3170  0A57                     ___fltol:	
  3171  0A57                     l2257:	
  3172                           ;incstack = 0
  3173                           ; Regs used in ___fltol: [wreg+status,2+status,0]
  3174                           
  3175  0A57  1003               	clrc
  3176  0A58  0D72               	rlf	___fltol@f1+2,w
  3177  0A59  0D73               	rlf	___fltol@f1+3,w
  3178  0A5A  00F4               	movwf	??___fltol
  3179  0A5B  0874               	movf	??___fltol,w
  3180  0A5C  00FA               	movwf	___fltol@exp1
  3181  0A5D  087A               	movf	___fltol@exp1,w
  3182  0A5E  1D03               	btfss	3,2
  3183  0A5F  2A61               	goto	u2691
  3184  0A60  2A62               	goto	u2690
  3185  0A61                     u2691:	
  3186  0A61  2A6B               	goto	l2263
  3187  0A62                     u2690:	
  3188  0A62                     l2259:	
  3189  0A62  3000               	movlw	0
  3190  0A63  00F3               	movwf	?___fltol+3
  3191  0A64  3000               	movlw	0
  3192  0A65  00F2               	movwf	?___fltol+2
  3193  0A66  3000               	movlw	0
  3194  0A67  00F1               	movwf	?___fltol+1
  3195  0A68  3000               	movlw	0
  3196  0A69  00F0               	movwf	?___fltol
  3197  0A6A  2AD0               	goto	l477
  3198  0A6B                     l2263:	
  3199  0A6B  0870               	movf	___fltol@f1,w
  3200  0A6C  00F4               	movwf	??___fltol
  3201  0A6D  0871               	movf	___fltol@f1+1,w
  3202  0A6E  00F5               	movwf	??___fltol+1
  3203  0A6F  0872               	movf	___fltol@f1+2,w
  3204  0A70  00F6               	movwf	??___fltol+2
  3205  0A71  0873               	movf	___fltol@f1+3,w
  3206  0A72  00F7               	movwf	??___fltol+3
  3207  0A73  301F               	movlw	31
  3208  0A74                     u2705:	
  3209  0A74  1003               	clrc
  3210  0A75  0CF7               	rrf	??___fltol+3,f
  3211  0A76  0CF6               	rrf	??___fltol+2,f
  3212  0A77  0CF5               	rrf	??___fltol+1,f
  3213  0A78  0CF4               	rrf	??___fltol,f
  3214  0A79                     u2700:	
  3215  0A79  3EFF               	addlw	-1
  3216  0A7A  1D03               	skipz
  3217  0A7B  2A74               	goto	u2705
  3218  0A7C  0874               	movf	??___fltol,w
  3219  0A7D  00F8               	movwf	??___fltol+4
  3220  0A7E  0878               	movf	??___fltol+4,w
  3221  0A7F  00F9               	movwf	___fltol@sign1
  3222  0A80                     l2265:	
  3223  0A80  17F2               	bsf	___fltol@f1+2,7
  3224  0A81                     l2267:	
  3225  0A81  30FF               	movlw	255
  3226  0A82  05F0               	andwf	___fltol@f1,f
  3227  0A83  30FF               	movlw	255
  3228  0A84  05F1               	andwf	___fltol@f1+1,f
  3229  0A85  30FF               	movlw	255
  3230  0A86  05F2               	andwf	___fltol@f1+2,f
  3231  0A87  3000               	movlw	0
  3232  0A88  05F3               	andwf	___fltol@f1+3,f
  3233  0A89                     l2269:	
  3234  0A89  3096               	movlw	150
  3235  0A8A  02FA               	subwf	___fltol@exp1,f
  3236  0A8B                     l2271:	
  3237  0A8B  1FFA               	btfss	___fltol@exp1,7
  3238  0A8C  2A8E               	goto	u2711
  3239  0A8D  2A8F               	goto	u2710
  3240  0A8E                     u2711:	
  3241  0A8E  2AA9               	goto	l2281
  3242  0A8F                     u2710:	
  3243  0A8F                     l2273:	
  3244  0A8F  087A               	movf	___fltol@exp1,w
  3245  0A90  3A80               	xorlw	128
  3246  0A91  3E97               	addlw	151
  3247  0A92  1803               	skipnc
  3248  0A93  2A95               	goto	u2721
  3249  0A94  2A96               	goto	u2720
  3250  0A95                     u2721:	
  3251  0A95  2A97               	goto	l2279
  3252  0A96                     u2720:	
  3253  0A96  2A62               	goto	l2259
  3254  0A97                     l2279:	
  3255  0A97  3001               	movlw	1
  3256  0A98                     u2735:	
  3257  0A98  1003               	clrc
  3258  0A99  0CF3               	rrf	___fltol@f1+3,f
  3259  0A9A  0CF2               	rrf	___fltol@f1+2,f
  3260  0A9B  0CF1               	rrf	___fltol@f1+1,f
  3261  0A9C  0CF0               	rrf	___fltol@f1,f
  3262  0A9D  3EFF               	addlw	-1
  3263  0A9E  1D03               	skipz
  3264  0A9F  2A98               	goto	u2735
  3265  0AA0  3001               	movlw	1
  3266  0AA1  00F4               	movwf	??___fltol
  3267  0AA2  0874               	movf	??___fltol,w
  3268  0AA3  07FA               	addwf	___fltol@exp1,f
  3269  0AA4  1D03               	btfss	3,2
  3270  0AA5  2AA7               	goto	u2741
  3271  0AA6  2AA8               	goto	u2740
  3272  0AA7                     u2741:	
  3273  0AA7  2A97               	goto	l2279
  3274  0AA8                     u2740:	
  3275  0AA8  2AC0               	goto	l2289
  3276  0AA9                     l2281:	
  3277  0AA9  3020               	movlw	32
  3278  0AAA  027A               	subwf	___fltol@exp1,w
  3279  0AAB  1C03               	skipc
  3280  0AAC  2AAE               	goto	u2751
  3281  0AAD  2AAF               	goto	u2750
  3282  0AAE                     u2751:	
  3283  0AAE  2ABB               	goto	l484
  3284  0AAF                     u2750:	
  3285  0AAF  2A62               	goto	l2259
  3286  0AB0                     l2287:	
  3287  0AB0  3001               	movlw	1
  3288  0AB1  00F4               	movwf	??___fltol
  3289  0AB2                     u2765:	
  3290  0AB2  1003               	clrc
  3291  0AB3  0DF0               	rlf	___fltol@f1,f
  3292  0AB4  0DF1               	rlf	___fltol@f1+1,f
  3293  0AB5  0DF2               	rlf	___fltol@f1+2,f
  3294  0AB6  0DF3               	rlf	___fltol@f1+3,f
  3295  0AB7  0BF4               	decfsz	??___fltol,f
  3296  0AB8  2AB2               	goto	u2765
  3297  0AB9  3001               	movlw	1
  3298  0ABA  02FA               	subwf	___fltol@exp1,f
  3299  0ABB                     l484:	
  3300  0ABB  087A               	movf	___fltol@exp1,w
  3301  0ABC  1D03               	btfss	3,2
  3302  0ABD  2ABF               	goto	u2771
  3303  0ABE  2AC0               	goto	u2770
  3304  0ABF                     u2771:	
  3305  0ABF  2AB0               	goto	l2287
  3306  0AC0                     u2770:	
  3307  0AC0                     l2289:	
  3308  0AC0  0879               	movf	___fltol@sign1,w
  3309  0AC1  1903               	btfsc	3,2
  3310  0AC2  2AC4               	goto	u2781
  3311  0AC3  2AC5               	goto	u2780
  3312  0AC4                     u2781:	
  3313  0AC4  2AD0               	goto	l487
  3314  0AC5                     u2780:	
  3315  0AC5                     l2291:	
  3316  0AC5  09F0               	comf	___fltol@f1,f
  3317  0AC6  09F1               	comf	___fltol@f1+1,f
  3318  0AC7  09F2               	comf	___fltol@f1+2,f
  3319  0AC8  09F3               	comf	___fltol@f1+3,f
  3320  0AC9  0AF0               	incf	___fltol@f1,f
  3321  0ACA  1903               	skipnz
  3322  0ACB  0AF1               	incf	___fltol@f1+1,f
  3323  0ACC  1903               	skipnz
  3324  0ACD  0AF2               	incf	___fltol@f1+2,f
  3325  0ACE  1903               	skipnz
  3326  0ACF  0AF3               	incf	___fltol@f1+3,f
  3327  0AD0                     l487:	
  3328  0AD0                     l477:	
  3329  0AD0  0008               	return
  3330  0AD1                     __end_of___fltol:	
  3331                           
  3332                           	psect	text9
  3333  17B7                     __ptext9:	
  3334 ;; *************** function ___flsub *****************
  3335 ;; Defined at:
  3336 ;;		line 242 in file "C:\Program Files (x86)\Microchip\xc8\v2.10\pic\sources\c90\common\sprcadd.c"
  3337 ;; Parameters:    Size  Location     Type
  3338 ;;  a               4    8[BANK0 ] long 
  3339 ;;  b               4   12[BANK0 ] long 
  3340 ;; Auto vars:     Size  Location     Type
  3341 ;;		None
  3342 ;; Return value:  Size  Location     Type
  3343 ;;                  4    8[BANK0 ] long 
  3344 ;; Registers used:
  3345 ;;		wreg, status,2, status,0, btemp+1, pclath, cstack
  3346 ;; Tracked objects:
  3347 ;;		On entry : 0/0
  3348 ;;		On exit  : 0/0
  3349 ;;		Unchanged: 0/0
  3350 ;; Data sizes:     COMMON   BANK0   BANK1   BANK3   BANK2
  3351 ;;      Params:         0       8       0       0       0
  3352 ;;      Locals:         0       0       0       0       0
  3353 ;;      Temps:          0       0       0       0       0
  3354 ;;      Totals:         0       8       0       0       0
  3355 ;;Total ram usage:        8 bytes
  3356 ;; Hardware stack levels used:    1
  3357 ;; Hardware stack levels required when called:    1
  3358 ;; This function calls:
  3359 ;;		___fladd
  3360 ;; This function is called by:
  3361 ;;		_main
  3362 ;; This function uses a non-reentrant model
  3363 ;;
  3364                           
  3365                           
  3366                           ;psect for function ___flsub
  3367  17B7                     ___flsub:	
  3368  17B7                     l2293:	
  3369                           ;incstack = 0
  3370                           ; Regs used in ___flsub: [wreg+status,2+status,0+btemp+1+pclath+cstack]
  3371                           
  3372  17B7  3080               	movlw	128
  3373  17B8  1283               	bcf	3,5	;RP0=0, select bank0
  3374  17B9  1303               	bcf	3,6	;RP1=0, select bank0
  3375  17BA  06AB               	xorwf	___flsub@a+3,f
  3376  17BB                     l2295:	
  3377  17BB  082F               	movf	___flsub@b+3,w
  3378  17BC  00F3               	movwf	___fladd@b+3
  3379  17BD  082E               	movf	___flsub@b+2,w
  3380  17BE  00F2               	movwf	___fladd@b+2
  3381  17BF  082D               	movf	___flsub@b+1,w
  3382  17C0  00F1               	movwf	___fladd@b+1
  3383  17C1  082C               	movf	___flsub@b,w
  3384  17C2  00F0               	movwf	___fladd@b
  3385  17C3  082B               	movf	___flsub@a+3,w
  3386  17C4  00F7               	movwf	___fladd@a+3
  3387  17C5  082A               	movf	___flsub@a+2,w
  3388  17C6  00F6               	movwf	___fladd@a+2
  3389  17C7  0829               	movf	___flsub@a+1,w
  3390  17C8  00F5               	movwf	___fladd@a+1
  3391  17C9  0828               	movf	___flsub@a,w
  3392  17CA  00F4               	movwf	___fladd@a
  3393  17CB  120A  158A  2568  160A  118A  	fcall	___fladd
  3394  17D0  0873               	movf	?___fladd+3,w
  3395  17D1  1283               	bcf	3,5	;RP0=0, select bank0
  3396  17D2  1303               	bcf	3,6	;RP1=0, select bank0
  3397  17D3  00AB               	movwf	?___flsub+3
  3398  17D4  0872               	movf	?___fladd+2,w
  3399  17D5  00AA               	movwf	?___flsub+2
  3400  17D6  0871               	movf	?___fladd+1,w
  3401  17D7  00A9               	movwf	?___flsub+1
  3402  17D8  0870               	movf	?___fladd,w
  3403  17D9  00A8               	movwf	?___flsub
  3404  17DA                     l630:	
  3405  17DA  0008               	return
  3406  17DB                     __end_of___flsub:	
  3407                           
  3408                           	psect	text10
  3409  0D68                     __ptext10:	
  3410 ;; *************** function ___fladd *****************
  3411 ;; Defined at:
  3412 ;;		line 10 in file "C:\Program Files (x86)\Microchip\xc8\v2.10\pic\sources\c90\common\sprcadd.c"
  3413 ;; Parameters:    Size  Location     Type
  3414 ;;  b               4    0[COMMON] long 
  3415 ;;  a               4    4[COMMON] long 
  3416 ;; Auto vars:     Size  Location     Type
  3417 ;;  grs             1   11[COMMON] unsigned char 
  3418 ;;  bexp            1   10[COMMON] unsigned char 
  3419 ;;  aexp            1    9[COMMON] unsigned char 
  3420 ;;  signs           1    8[COMMON] unsigned char 
  3421 ;; Return value:  Size  Location     Type
  3422 ;;                  4    0[COMMON] unsigned char 
  3423 ;; Registers used:
  3424 ;;		wreg, status,2, status,0, btemp+1
  3425 ;; Tracked objects:
  3426 ;;		On entry : 0/0
  3427 ;;		On exit  : 0/0
  3428 ;;		Unchanged: 0/0
  3429 ;; Data sizes:     COMMON   BANK0   BANK1   BANK3   BANK2
  3430 ;;      Params:         8       0       0       0       0
  3431 ;;      Locals:         4       0       0       0       0
  3432 ;;      Temps:          0       8       0       0       0
  3433 ;;      Totals:        12       8       0       0       0
  3434 ;;Total ram usage:       20 bytes
  3435 ;; Hardware stack levels used:    1
  3436 ;; This function calls:
  3437 ;;		Nothing
  3438 ;; This function is called by:
  3439 ;;		___flsub
  3440 ;; This function uses a non-reentrant model
  3441 ;;
  3442                           
  3443                           
  3444                           ;psect for function ___fladd
  3445  0D68                     ___fladd:	
  3446  0D68                     l1911:	
  3447                           ;incstack = 0
  3448                           ; Regs used in ___fladd: [wreg+status,2+status,0+btemp+1]
  3449                           
  3450  0D68  0873               	movf	___fladd@b+3,w
  3451  0D69  3980               	andlw	128
  3452  0D6A  1283               	bcf	3,5	;RP0=0, select bank0
  3453  0D6B  1303               	bcf	3,6	;RP1=0, select bank0
  3454  0D6C  00A0               	movwf	??___fladd
  3455  0D6D  0820               	movf	??___fladd,w
  3456  0D6E  00F8               	movwf	___fladd@signs
  3457  0D6F                     l1913:	
  3458  0D6F  0873               	movf	___fladd@b+3,w
  3459  0D70  00A0               	movwf	??___fladd
  3460  0D71  0720               	addwf	??___fladd,w
  3461  0D72  00A1               	movwf	??___fladd+1
  3462  0D73  0821               	movf	??___fladd+1,w
  3463  0D74  00FA               	movwf	___fladd@bexp
  3464  0D75                     l1915:	
  3465  0D75  1FF2               	btfss	___fladd@b+2,7
  3466  0D76  2D78               	goto	u2091
  3467  0D77  2D79               	goto	u2090
  3468  0D78                     u2091:	
  3469  0D78  2D7A               	goto	l1919
  3470  0D79                     u2090:	
  3471  0D79                     l1917:	
  3472  0D79  147A               	bsf	___fladd@bexp,0
  3473  0D7A                     l1919:	
  3474  0D7A  087A               	movf	___fladd@bexp,w
  3475  0D7B  1903               	btfsc	3,2
  3476  0D7C  2D7E               	goto	u2101
  3477  0D7D  2D7F               	goto	u2100
  3478  0D7E                     u2101:	
  3479  0D7E  2D8F               	goto	l1929
  3480  0D7F                     u2100:	
  3481  0D7F                     l1921:	
  3482  0D7F  0A7A               	incf	___fladd@bexp,w
  3483  0D80  1D03               	btfss	3,2
  3484  0D81  2D83               	goto	u2111
  3485  0D82  2D84               	goto	u2110
  3486  0D83                     u2111:	
  3487  0D83  2D8C               	goto	l1925
  3488  0D84                     u2110:	
  3489  0D84                     l1923:	
  3490  0D84  3000               	movlw	0
  3491  0D85  00F3               	movwf	___fladd@b+3
  3492  0D86  3000               	movlw	0
  3493  0D87  00F2               	movwf	___fladd@b+2
  3494  0D88  3000               	movlw	0
  3495  0D89  00F1               	movwf	___fladd@b+1
  3496  0D8A  3000               	movlw	0
  3497  0D8B  00F0               	movwf	___fladd@b
  3498  0D8C                     l1925:	
  3499  0D8C  17F2               	bsf	___fladd@b+2,7
  3500  0D8D                     l1927:	
  3501  0D8D  01F3               	clrf	___fladd@b+3
  3502  0D8E  2D97               	goto	l1931
  3503  0D8F                     l1929:	
  3504  0D8F  3000               	movlw	0
  3505  0D90  00F3               	movwf	___fladd@b+3
  3506  0D91  3000               	movlw	0
  3507  0D92  00F2               	movwf	___fladd@b+2
  3508  0D93  3000               	movlw	0
  3509  0D94  00F1               	movwf	___fladd@b+1
  3510  0D95  3000               	movlw	0
  3511  0D96  00F0               	movwf	___fladd@b
  3512  0D97                     l1931:	
  3513  0D97  0877               	movf	___fladd@a+3,w
  3514  0D98  3980               	andlw	128
  3515  0D99  00A0               	movwf	??___fladd
  3516  0D9A  0820               	movf	??___fladd,w
  3517  0D9B  00F9               	movwf	___fladd@aexp
  3518  0D9C                     l1933:	
  3519  0D9C  0879               	movf	___fladd@aexp,w
  3520  0D9D  0678               	xorwf	___fladd@signs,w
  3521  0D9E  1903               	skipnz
  3522  0D9F  2DA1               	goto	u2121
  3523  0DA0  2DA2               	goto	u2120
  3524  0DA1                     u2121:	
  3525  0DA1  2DA3               	goto	l1937
  3526  0DA2                     u2120:	
  3527  0DA2                     l1935:	
  3528  0DA2  1778               	bsf	___fladd@signs,6
  3529  0DA3                     l1937:	
  3530  0DA3  0877               	movf	___fladd@a+3,w
  3531  0DA4  00A0               	movwf	??___fladd
  3532  0DA5  0720               	addwf	??___fladd,w
  3533  0DA6  00A1               	movwf	??___fladd+1
  3534  0DA7  0821               	movf	??___fladd+1,w
  3535  0DA8  00F9               	movwf	___fladd@aexp
  3536  0DA9                     l1939:	
  3537  0DA9  1FF6               	btfss	___fladd@a+2,7
  3538  0DAA  2DAC               	goto	u2131
  3539  0DAB  2DAD               	goto	u2130
  3540  0DAC                     u2131:	
  3541  0DAC  2DAE               	goto	l1943
  3542  0DAD                     u2130:	
  3543  0DAD                     l1941:	
  3544  0DAD  1479               	bsf	___fladd@aexp,0
  3545  0DAE                     l1943:	
  3546  0DAE  0879               	movf	___fladd@aexp,w
  3547  0DAF  1903               	btfsc	3,2
  3548  0DB0  2DB2               	goto	u2141
  3549  0DB1  2DB3               	goto	u2140
  3550  0DB2                     u2141:	
  3551  0DB2  2DC3               	goto	l1953
  3552  0DB3                     u2140:	
  3553  0DB3                     l1945:	
  3554  0DB3  0A79               	incf	___fladd@aexp,w
  3555  0DB4  1D03               	btfss	3,2
  3556  0DB5  2DB7               	goto	u2151
  3557  0DB6  2DB8               	goto	u2150
  3558  0DB7                     u2151:	
  3559  0DB7  2DC0               	goto	l1949
  3560  0DB8                     u2150:	
  3561  0DB8                     l1947:	
  3562  0DB8  3000               	movlw	0
  3563  0DB9  00F7               	movwf	___fladd@a+3
  3564  0DBA  3000               	movlw	0
  3565  0DBB  00F6               	movwf	___fladd@a+2
  3566  0DBC  3000               	movlw	0
  3567  0DBD  00F5               	movwf	___fladd@a+1
  3568  0DBE  3000               	movlw	0
  3569  0DBF  00F4               	movwf	___fladd@a
  3570  0DC0                     l1949:	
  3571  0DC0  17F6               	bsf	___fladd@a+2,7
  3572  0DC1                     l1951:	
  3573  0DC1  01F7               	clrf	___fladd@a+3
  3574  0DC2  2DCB               	goto	l584
  3575  0DC3                     l1953:	
  3576  0DC3  3000               	movlw	0
  3577  0DC4  00F7               	movwf	___fladd@a+3
  3578  0DC5  3000               	movlw	0
  3579  0DC6  00F6               	movwf	___fladd@a+2
  3580  0DC7  3000               	movlw	0
  3581  0DC8  00F5               	movwf	___fladd@a+1
  3582  0DC9  3000               	movlw	0
  3583  0DCA  00F4               	movwf	___fladd@a
  3584  0DCB                     l584:	
  3585  0DCB  087A               	movf	___fladd@bexp,w
  3586  0DCC  0279               	subwf	___fladd@aexp,w
  3587  0DCD  1803               	skipnc
  3588  0DCE  2DD0               	goto	u2161
  3589  0DCF  2DD1               	goto	u2160
  3590  0DD0                     u2161:	
  3591  0DD0  2E15               	goto	l1989
  3592  0DD1                     u2160:	
  3593  0DD1                     l1955:	
  3594  0DD1  1F78               	btfss	___fladd@signs,6
  3595  0DD2  2DD4               	goto	u2171
  3596  0DD3  2DD5               	goto	u2170
  3597  0DD4                     u2171:	
  3598  0DD4  2DD9               	goto	l1959
  3599  0DD5                     u2170:	
  3600  0DD5                     l1957:	
  3601  0DD5  3080               	movlw	128
  3602  0DD6  00A0               	movwf	??___fladd
  3603  0DD7  0820               	movf	??___fladd,w
  3604  0DD8  06F8               	xorwf	___fladd@signs,f
  3605  0DD9                     l1959:	
  3606  0DD9  087A               	movf	___fladd@bexp,w
  3607  0DDA  00A0               	movwf	??___fladd
  3608  0DDB  0820               	movf	??___fladd,w
  3609  0DDC  00FB               	movwf	___fladd@grs
  3610  0DDD                     l1961:	
  3611  0DDD  0879               	movf	___fladd@aexp,w
  3612  0DDE  00A0               	movwf	??___fladd
  3613  0DDF  0820               	movf	??___fladd,w
  3614  0DE0  00FA               	movwf	___fladd@bexp
  3615  0DE1                     l1963:	
  3616  0DE1  087B               	movf	___fladd@grs,w
  3617  0DE2  00A0               	movwf	??___fladd
  3618  0DE3  0820               	movf	??___fladd,w
  3619  0DE4  00F9               	movwf	___fladd@aexp
  3620  0DE5                     l1965:	
  3621  0DE5  0870               	movf	___fladd@b,w
  3622  0DE6  00A0               	movwf	??___fladd
  3623  0DE7  0820               	movf	??___fladd,w
  3624  0DE8  00FB               	movwf	___fladd@grs
  3625  0DE9                     l1967:	
  3626  0DE9  0874               	movf	___fladd@a,w
  3627  0DEA  00A0               	movwf	??___fladd
  3628  0DEB  0820               	movf	??___fladd,w
  3629  0DEC  00F0               	movwf	___fladd@b
  3630  0DED                     l1969:	
  3631  0DED  087B               	movf	___fladd@grs,w
  3632  0DEE  00A0               	movwf	??___fladd
  3633  0DEF  0820               	movf	??___fladd,w
  3634  0DF0  00F4               	movwf	___fladd@a
  3635  0DF1                     l1971:	
  3636  0DF1  0871               	movf	___fladd@b+1,w
  3637  0DF2  00A0               	movwf	??___fladd
  3638  0DF3  0820               	movf	??___fladd,w
  3639  0DF4  00FB               	movwf	___fladd@grs
  3640  0DF5                     l1973:	
  3641  0DF5  0875               	movf	___fladd@a+1,w
  3642  0DF6  00A0               	movwf	??___fladd
  3643  0DF7  0820               	movf	??___fladd,w
  3644  0DF8  00F1               	movwf	___fladd@b+1
  3645  0DF9                     l1975:	
  3646  0DF9  087B               	movf	___fladd@grs,w
  3647  0DFA  00A0               	movwf	??___fladd
  3648  0DFB  0820               	movf	??___fladd,w
  3649  0DFC  00F5               	movwf	___fladd@a+1
  3650  0DFD                     l1977:	
  3651  0DFD  0872               	movf	___fladd@b+2,w
  3652  0DFE  00A0               	movwf	??___fladd
  3653  0DFF  0820               	movf	??___fladd,w
  3654  0E00  00FB               	movwf	___fladd@grs
  3655  0E01                     l1979:	
  3656  0E01  0876               	movf	___fladd@a+2,w
  3657  0E02  00A0               	movwf	??___fladd
  3658  0E03  0820               	movf	??___fladd,w
  3659  0E04  00F2               	movwf	___fladd@b+2
  3660  0E05                     l1981:	
  3661  0E05  087B               	movf	___fladd@grs,w
  3662  0E06  00A0               	movwf	??___fladd
  3663  0E07  0820               	movf	??___fladd,w
  3664  0E08  00F6               	movwf	___fladd@a+2
  3665  0E09                     l1983:	
  3666  0E09  0873               	movf	___fladd@b+3,w
  3667  0E0A  00A0               	movwf	??___fladd
  3668  0E0B  0820               	movf	??___fladd,w
  3669  0E0C  00FB               	movwf	___fladd@grs
  3670  0E0D                     l1985:	
  3671  0E0D  0877               	movf	___fladd@a+3,w
  3672  0E0E  00A0               	movwf	??___fladd
  3673  0E0F  0820               	movf	??___fladd,w
  3674  0E10  00F3               	movwf	___fladd@b+3
  3675  0E11                     l1987:	
  3676  0E11  087B               	movf	___fladd@grs,w
  3677  0E12  00A0               	movwf	??___fladd
  3678  0E13  0820               	movf	??___fladd,w
  3679  0E14  00F7               	movwf	___fladd@a+3
  3680  0E15                     l1989:	
  3681  0E15  01FB               	clrf	___fladd@grs
  3682  0E16                     l1991:	
  3683  0E16  0879               	movf	___fladd@aexp,w
  3684  0E17  00A0               	movwf	??___fladd
  3685  0E18  01A1               	clrf	??___fladd+1
  3686  0E19  0821               	movf	??___fladd+1,w
  3687  0E1A  00A3               	movwf	??___fladd+3
  3688  0E1B  087A               	movf	___fladd@bexp,w
  3689  0E1C  0220               	subwf	??___fladd,w
  3690  0E1D  00A2               	movwf	??___fladd+2
  3691  0E1E  1C03               	skipc
  3692  0E1F  03A3               	decf	??___fladd+3,f
  3693  0E20  0823               	movf	??___fladd+3,w
  3694  0E21  3A80               	xorlw	128
  3695  0E22  00FF               	movwf	btemp+1
  3696  0E23  3080               	movlw	128
  3697  0E24  027F               	subwf	btemp+1,w
  3698  0E25  1D03               	skipz
  3699  0E26  2E29               	goto	u2185
  3700  0E27  301A               	movlw	26
  3701  0E28  0222               	subwf	??___fladd+2,w
  3702  0E29                     u2185:	
  3703  0E29  1C03               	skipc
  3704  0E2A  2E2C               	goto	u2181
  3705  0E2B  2E2D               	goto	u2180
  3706  0E2C                     u2181:	
  3707  0E2C  2E6E               	goto	l2007
  3708  0E2D                     u2180:	
  3709  0E2D                     l1993:	
  3710  0E2D  0873               	movf	___fladd@b+3,w
  3711  0E2E  0472               	iorwf	___fladd@b+2,w
  3712  0E2F  0471               	iorwf	___fladd@b+1,w
  3713  0E30  0470               	iorwf	___fladd@b,w
  3714  0E31  1D03               	skipz
  3715  0E32  2E34               	goto	u2191
  3716  0E33  2E36               	goto	u2190
  3717  0E34                     u2191:	
  3718  0E34  3001               	movlw	1
  3719  0E35  2E37               	goto	u2200
  3720  0E36                     u2190:	
  3721  0E36  3000               	movlw	0
  3722  0E37                     u2200:	
  3723  0E37  1283               	bcf	3,5	;RP0=0, select bank0
  3724  0E38  1303               	bcf	3,6	;RP1=0, select bank0
  3725  0E39  00A0               	movwf	??___fladd
  3726  0E3A  0820               	movf	??___fladd,w
  3727  0E3B  00FB               	movwf	___fladd@grs
  3728  0E3C  3000               	movlw	0
  3729  0E3D  00F3               	movwf	___fladd@b+3
  3730  0E3E  3000               	movlw	0
  3731  0E3F  00F2               	movwf	___fladd@b+2
  3732  0E40  3000               	movlw	0
  3733  0E41  00F1               	movwf	___fladd@b+1
  3734  0E42  3000               	movlw	0
  3735  0E43  00F0               	movwf	___fladd@b
  3736  0E44  0879               	movf	___fladd@aexp,w
  3737  0E45  00A0               	movwf	??___fladd
  3738  0E46  0820               	movf	??___fladd,w
  3739  0E47  00FA               	movwf	___fladd@bexp
  3740  0E48  2E74               	goto	l588
  3741  0E49                     l590:	
  3742  0E49  1C7B               	btfss	___fladd@grs,0
  3743  0E4A  2E4C               	goto	u2211
  3744  0E4B  2E4D               	goto	u2210
  3745  0E4C                     u2211:	
  3746  0E4C  2E58               	goto	l1997
  3747  0E4D                     u2210:	
  3748  0E4D                     l1995:	
  3749  0E4D  087B               	movf	___fladd@grs,w
  3750  0E4E  1283               	bcf	3,5	;RP0=0, select bank0
  3751  0E4F  1303               	bcf	3,6	;RP1=0, select bank0
  3752  0E50  00A0               	movwf	??___fladd
  3753  0E51  1003               	clrc
  3754  0E52  0C20               	rrf	??___fladd,w
  3755  0E53  3801               	iorlw	1
  3756  0E54  00A1               	movwf	??___fladd+1
  3757  0E55  0821               	movf	??___fladd+1,w
  3758  0E56  00FB               	movwf	___fladd@grs
  3759  0E57  2E5A               	goto	l1999
  3760  0E58                     l1997:	
  3761  0E58  1003               	clrc
  3762  0E59  0CFB               	rrf	___fladd@grs,f
  3763  0E5A                     l1999:	
  3764  0E5A  1C70               	btfss	___fladd@b,0
  3765  0E5B  2E5D               	goto	u2221
  3766  0E5C  2E5E               	goto	u2220
  3767  0E5D                     u2221:	
  3768  0E5D  2E5F               	goto	l2003
  3769  0E5E                     u2220:	
  3770  0E5E                     l2001:	
  3771  0E5E  17FB               	bsf	___fladd@grs,7
  3772  0E5F                     l2003:	
  3773  0E5F  3001               	movlw	1
  3774  0E60  1283               	bcf	3,5	;RP0=0, select bank0
  3775  0E61  1303               	bcf	3,6	;RP1=0, select bank0
  3776  0E62  00A0               	movwf	??___fladd
  3777  0E63                     u2235:	
  3778  0E63  0D73               	rlf	___fladd@b+3,w
  3779  0E64  0CF3               	rrf	___fladd@b+3,f
  3780  0E65  0CF2               	rrf	___fladd@b+2,f
  3781  0E66  0CF1               	rrf	___fladd@b+1,f
  3782  0E67  0CF0               	rrf	___fladd@b,f
  3783  0E68  0BA0               	decfsz	??___fladd& (0+127),f
  3784  0E69  2E63               	goto	u2235
  3785  0E6A                     l2005:	
  3786  0E6A  3001               	movlw	1
  3787  0E6B  00A0               	movwf	??___fladd
  3788  0E6C  0820               	movf	??___fladd,w
  3789  0E6D  07FA               	addwf	___fladd@bexp,f
  3790  0E6E                     l2007:	
  3791  0E6E  0879               	movf	___fladd@aexp,w
  3792  0E6F  027A               	subwf	___fladd@bexp,w
  3793  0E70  1C03               	skipc
  3794  0E71  2E73               	goto	u2241
  3795  0E72  2E74               	goto	u2240
  3796  0E73                     u2241:	
  3797  0E73  2E49               	goto	l590
  3798  0E74                     u2240:	
  3799  0E74                     l588:	
  3800  0E74  1B78               	btfsc	___fladd@signs,6
  3801  0E75  2E77               	goto	u2251
  3802  0E76  2E78               	goto	u2250
  3803  0E77                     u2251:	
  3804  0E77  2EC7               	goto	l2033
  3805  0E78                     u2250:	
  3806  0E78                     l2009:	
  3807  0E78  087A               	movf	___fladd@bexp,w
  3808  0E79  1D03               	btfss	3,2
  3809  0E7A  2E7C               	goto	u2261
  3810  0E7B  2E7D               	goto	u2260
  3811  0E7C                     u2261:	
  3812  0E7C  2E86               	goto	l2015
  3813  0E7D                     u2260:	
  3814  0E7D                     l2011:	
  3815  0E7D  3000               	movlw	0
  3816  0E7E  00F3               	movwf	?___fladd+3
  3817  0E7F  3000               	movlw	0
  3818  0E80  00F2               	movwf	?___fladd+2
  3819  0E81  3000               	movlw	0
  3820  0E82  00F1               	movwf	?___fladd+1
  3821  0E83  3000               	movlw	0
  3822  0E84  00F0               	movwf	?___fladd
  3823  0E85  2FFF               	goto	l597
  3824  0E86                     l2015:	
  3825  0E86  0874               	movf	___fladd@a,w
  3826  0E87  07F0               	addwf	___fladd@b,f
  3827  0E88  0875               	movf	___fladd@a+1,w
  3828  0E89  1103               	clrz
  3829  0E8A  1803               	skipnc
  3830  0E8B  3E01               	addlw	1
  3831  0E8C  1903               	skipnz
  3832  0E8D  2E8F               	goto	u2271
  3833  0E8E  07F1               	addwf	___fladd@b+1,f
  3834  0E8F                     u2271:	
  3835  0E8F  0876               	movf	___fladd@a+2,w
  3836  0E90  1103               	clrz
  3837  0E91  1803               	skipnc
  3838  0E92  3E01               	addlw	1
  3839  0E93  1903               	skipnz
  3840  0E94  2E96               	goto	u2272
  3841  0E95  07F2               	addwf	___fladd@b+2,f
  3842  0E96                     u2272:	
  3843  0E96  0877               	movf	___fladd@a+3,w
  3844  0E97  1103               	clrz
  3845  0E98  1803               	skipnc
  3846  0E99  3E01               	addlw	1
  3847  0E9A  1903               	skipnz
  3848  0E9B  2E9D               	goto	u2273
  3849  0E9C  07F3               	addwf	___fladd@b+3,f
  3850  0E9D                     u2273:	
  3851  0E9D                     l2017:	
  3852  0E9D  1C73               	btfss	___fladd@b+3,0
  3853  0E9E  2EA0               	goto	u2281
  3854  0E9F  2EA1               	goto	u2280
  3855  0EA0                     u2281:	
  3856  0EA0  2F7F               	goto	l2067
  3857  0EA1                     u2280:	
  3858  0EA1                     l2019:	
  3859  0EA1  1C7B               	btfss	___fladd@grs,0
  3860  0EA2  2EA4               	goto	u2291
  3861  0EA3  2EA5               	goto	u2290
  3862  0EA4                     u2291:	
  3863  0EA4  2EB0               	goto	l2023
  3864  0EA5                     u2290:	
  3865  0EA5                     l2021:	
  3866  0EA5  087B               	movf	___fladd@grs,w
  3867  0EA6  1283               	bcf	3,5	;RP0=0, select bank0
  3868  0EA7  1303               	bcf	3,6	;RP1=0, select bank0
  3869  0EA8  00A0               	movwf	??___fladd
  3870  0EA9  1003               	clrc
  3871  0EAA  0C20               	rrf	??___fladd,w
  3872  0EAB  3801               	iorlw	1
  3873  0EAC  00A1               	movwf	??___fladd+1
  3874  0EAD  0821               	movf	??___fladd+1,w
  3875  0EAE  00FB               	movwf	___fladd@grs
  3876  0EAF  2EB2               	goto	l2025
  3877  0EB0                     l2023:	
  3878  0EB0  1003               	clrc
  3879  0EB1  0CFB               	rrf	___fladd@grs,f
  3880  0EB2                     l2025:	
  3881  0EB2  1C70               	btfss	___fladd@b,0
  3882  0EB3  2EB5               	goto	u2301
  3883  0EB4  2EB6               	goto	u2300
  3884  0EB5                     u2301:	
  3885  0EB5  2EB7               	goto	l2029
  3886  0EB6                     u2300:	
  3887  0EB6                     l2027:	
  3888  0EB6  17FB               	bsf	___fladd@grs,7
  3889  0EB7                     l2029:	
  3890  0EB7  3001               	movlw	1
  3891  0EB8  1283               	bcf	3,5	;RP0=0, select bank0
  3892  0EB9  1303               	bcf	3,6	;RP1=0, select bank0
  3893  0EBA  00A0               	movwf	??___fladd
  3894  0EBB                     u2315:	
  3895  0EBB  0D73               	rlf	___fladd@b+3,w
  3896  0EBC  0CF3               	rrf	___fladd@b+3,f
  3897  0EBD  0CF2               	rrf	___fladd@b+2,f
  3898  0EBE  0CF1               	rrf	___fladd@b+1,f
  3899  0EBF  0CF0               	rrf	___fladd@b,f
  3900  0EC0  0BA0               	decfsz	??___fladd& (0+127),f
  3901  0EC1  2EBB               	goto	u2315
  3902  0EC2                     l2031:	
  3903  0EC2  3001               	movlw	1
  3904  0EC3  00A0               	movwf	??___fladd
  3905  0EC4  0820               	movf	??___fladd,w
  3906  0EC5  07FA               	addwf	___fladd@bexp,f
  3907  0EC6  2F7F               	goto	l2067
  3908  0EC7                     l2033:	
  3909  0EC7  0873               	movf	___fladd@b+3,w
  3910  0EC8  3A80               	xorlw	128
  3911  0EC9  00FF               	movwf	btemp+1
  3912  0ECA  0877               	movf	___fladd@a+3,w
  3913  0ECB  3A80               	xorlw	128
  3914  0ECC  027F               	subwf	btemp+1,w
  3915  0ECD  1D03               	skipz
  3916  0ECE  2ED9               	goto	u2323
  3917  0ECF  0876               	movf	___fladd@a+2,w
  3918  0ED0  0272               	subwf	___fladd@b+2,w
  3919  0ED1  1D03               	skipz
  3920  0ED2  2ED9               	goto	u2323
  3921  0ED3  0875               	movf	___fladd@a+1,w
  3922  0ED4  0271               	subwf	___fladd@b+1,w
  3923  0ED5  1D03               	skipz
  3924  0ED6  2ED9               	goto	u2323
  3925  0ED7  0874               	movf	___fladd@a,w
  3926  0ED8  0270               	subwf	___fladd@b,w
  3927  0ED9                     u2323:	
  3928  0ED9  1803               	skipnc
  3929  0EDA  2EDC               	goto	u2321
  3930  0EDB  2EDD               	goto	u2320
  3931  0EDC                     u2321:	
  3932  0EDC  2F37               	goto	l2043
  3933  0EDD                     u2320:	
  3934  0EDD                     l2035:	
  3935  0EDD  30FF               	movlw	255
  3936  0EDE  1283               	bcf	3,5	;RP0=0, select bank0
  3937  0EDF  1303               	bcf	3,6	;RP1=0, select bank0
  3938  0EE0  00A0               	movwf	??___fladd
  3939  0EE1  30FF               	movlw	255
  3940  0EE2  00A1               	movwf	??___fladd+1
  3941  0EE3  30FF               	movlw	255
  3942  0EE4  00A2               	movwf	??___fladd+2
  3943  0EE5  30FF               	movlw	255
  3944  0EE6  00A3               	movwf	??___fladd+3
  3945  0EE7  0874               	movf	___fladd@a,w
  3946  0EE8  00A4               	movwf	??___fladd+4
  3947  0EE9  0875               	movf	___fladd@a+1,w
  3948  0EEA  00A5               	movwf	??___fladd+5
  3949  0EEB  0876               	movf	___fladd@a+2,w
  3950  0EEC  00A6               	movwf	??___fladd+6
  3951  0EED  0877               	movf	___fladd@a+3,w
  3952  0EEE  00A7               	movwf	??___fladd+7
  3953  0EEF  0870               	movf	___fladd@b,w
  3954  0EF0  02A4               	subwf	??___fladd+4,f
  3955  0EF1  0871               	movf	___fladd@b+1,w
  3956  0EF2  1C03               	skipc
  3957  0EF3  0F71               	incfsz	___fladd@b+1,w
  3958  0EF4  2EF6               	goto	u2331
  3959  0EF5  2EF7               	goto	u2332
  3960  0EF6                     u2331:	
  3961  0EF6  02A5               	subwf	??___fladd+5,f
  3962  0EF7                     u2332:	
  3963  0EF7  0872               	movf	___fladd@b+2,w
  3964  0EF8  1C03               	skipc
  3965  0EF9  0F72               	incfsz	___fladd@b+2,w
  3966  0EFA  2EFC               	goto	u2333
  3967  0EFB  2EFD               	goto	u2334
  3968  0EFC                     u2333:	
  3969  0EFC  02A6               	subwf	??___fladd+6,f
  3970  0EFD                     u2334:	
  3971  0EFD  0873               	movf	___fladd@b+3,w
  3972  0EFE  1C03               	skipc
  3973  0EFF  0F73               	incfsz	___fladd@b+3,w
  3974  0F00  2F02               	goto	u2335
  3975  0F01  2F03               	goto	u2336
  3976  0F02                     u2335:	
  3977  0F02  02A7               	subwf	??___fladd+7,f
  3978  0F03                     u2336:	
  3979  0F03  0824               	movf	??___fladd+4,w
  3980  0F04  07A0               	addwf	??___fladd,f
  3981  0F05  0825               	movf	??___fladd+5,w
  3982  0F06  1803               	skipnc
  3983  0F07  0F25               	incfsz	??___fladd+5,w
  3984  0F08  2F0A               	goto	u2340
  3985  0F09  2F0B               	goto	u2341
  3986  0F0A                     u2340:	
  3987  0F0A  07A1               	addwf	??___fladd+1,f
  3988  0F0B                     u2341:	
  3989  0F0B  0826               	movf	??___fladd+6,w
  3990  0F0C  1803               	skipnc
  3991  0F0D  0F26               	incfsz	??___fladd+6,w
  3992  0F0E  2F10               	goto	u2342
  3993  0F0F  2F11               	goto	u2343
  3994  0F10                     u2342:	
  3995  0F10  07A2               	addwf	??___fladd+2,f
  3996  0F11                     u2343:	
  3997  0F11  0827               	movf	??___fladd+7,w
  3998  0F12  1803               	skipnc
  3999  0F13  0A27               	incf	??___fladd+7,w
  4000  0F14  07A3               	addwf	??___fladd+3,f
  4001  0F15  0823               	movf	??___fladd+3,w
  4002  0F16  00F3               	movwf	___fladd@b+3
  4003  0F17  0822               	movf	??___fladd+2,w
  4004  0F18  00F2               	movwf	___fladd@b+2
  4005  0F19  0821               	movf	??___fladd+1,w
  4006  0F1A  00F1               	movwf	___fladd@b+1
  4007  0F1B  0820               	movf	??___fladd,w
  4008  0F1C  00F0               	movwf	___fladd@b
  4009  0F1D                     l2037:	
  4010  0F1D  3080               	movlw	128
  4011  0F1E  00A0               	movwf	??___fladd
  4012  0F1F  0820               	movf	??___fladd,w
  4013  0F20  06F8               	xorwf	___fladd@signs,f
  4014  0F21  09FB               	comf	___fladd@grs,f
  4015  0F22  0AFB               	incf	___fladd@grs,f
  4016  0F23                     l2039:	
  4017  0F23  087B               	movf	___fladd@grs,w
  4018  0F24  1D03               	btfss	3,2
  4019  0F25  2F27               	goto	u2351
  4020  0F26  2F28               	goto	u2350
  4021  0F27                     u2351:	
  4022  0F27  2F45               	goto	l605
  4023  0F28                     u2350:	
  4024  0F28                     l2041:	
  4025  0F28  3001               	movlw	1
  4026  0F29  07F0               	addwf	___fladd@b,f
  4027  0F2A  3000               	movlw	0
  4028  0F2B  1803               	skipnc
  4029  0F2C  3001               	movlw	1
  4030  0F2D  07F1               	addwf	___fladd@b+1,f
  4031  0F2E  3000               	movlw	0
  4032  0F2F  1803               	skipnc
  4033  0F30  3001               	movlw	1
  4034  0F31  07F2               	addwf	___fladd@b+2,f
  4035  0F32  3000               	movlw	0
  4036  0F33  1803               	skipnc
  4037  0F34  3001               	movlw	1
  4038  0F35  07F3               	addwf	___fladd@b+3,f
  4039  0F36  2F45               	goto	l605
  4040  0F37                     l2043:	
  4041  0F37  0874               	movf	___fladd@a,w
  4042  0F38  02F0               	subwf	___fladd@b,f
  4043  0F39  0875               	movf	___fladd@a+1,w
  4044  0F3A  1C03               	skipc
  4045  0F3B  0F75               	incfsz	___fladd@a+1,w
  4046  0F3C  02F1               	subwf	___fladd@b+1,f
  4047  0F3D  0876               	movf	___fladd@a+2,w
  4048  0F3E  1C03               	skipc
  4049  0F3F  0F76               	incfsz	___fladd@a+2,w
  4050  0F40  02F2               	subwf	___fladd@b+2,f
  4051  0F41  0877               	movf	___fladd@a+3,w
  4052  0F42  1C03               	skipc
  4053  0F43  0F77               	incfsz	___fladd@a+3,w
  4054  0F44  02F3               	subwf	___fladd@b+3,f
  4055  0F45                     l605:	
  4056  0F45  0873               	movf	___fladd@b+3,w
  4057  0F46  0472               	iorwf	___fladd@b+2,w
  4058  0F47  0471               	iorwf	___fladd@b+1,w
  4059  0F48  0470               	iorwf	___fladd@b,w
  4060  0F49  1D03               	skipz
  4061  0F4A  2F4C               	goto	u2361
  4062  0F4B  2F4D               	goto	u2360
  4063  0F4C                     u2361:	
  4064  0F4C  2F7B               	goto	l2065
  4065  0F4D                     u2360:	
  4066  0F4D                     l2045:	
  4067  0F4D  087B               	movf	___fladd@grs,w
  4068  0F4E  1D03               	btfss	3,2
  4069  0F4F  2F51               	goto	u2371
  4070  0F50  2F52               	goto	u2370
  4071  0F51                     u2371:	
  4072  0F51  2F7B               	goto	l2065
  4073  0F52                     u2370:	
  4074  0F52                     l2047:	
  4075  0F52  3000               	movlw	0
  4076  0F53  00F3               	movwf	?___fladd+3
  4077  0F54  3000               	movlw	0
  4078  0F55  00F2               	movwf	?___fladd+2
  4079  0F56  3000               	movlw	0
  4080  0F57  00F1               	movwf	?___fladd+1
  4081  0F58  3000               	movlw	0
  4082  0F59  00F0               	movwf	?___fladd
  4083  0F5A  2FFF               	goto	l597
  4084  0F5B                     l2051:	
  4085  0F5B  3001               	movlw	1
  4086  0F5C  1283               	bcf	3,5	;RP0=0, select bank0
  4087  0F5D  1303               	bcf	3,6	;RP1=0, select bank0
  4088  0F5E  00A0               	movwf	??___fladd
  4089  0F5F                     u2385:	
  4090  0F5F  1003               	clrc
  4091  0F60  0DF0               	rlf	___fladd@b,f
  4092  0F61  0DF1               	rlf	___fladd@b+1,f
  4093  0F62  0DF2               	rlf	___fladd@b+2,f
  4094  0F63  0DF3               	rlf	___fladd@b+3,f
  4095  0F64  0BA0               	decfsz	??___fladd,f
  4096  0F65  2F5F               	goto	u2385
  4097  0F66                     l2053:	
  4098  0F66  1FFB               	btfss	___fladd@grs,7
  4099  0F67  2F69               	goto	u2391
  4100  0F68  2F6A               	goto	u2390
  4101  0F69                     u2391:	
  4102  0F69  2F6B               	goto	l609
  4103  0F6A                     u2390:	
  4104  0F6A                     l2055:	
  4105  0F6A  1470               	bsf	___fladd@b,0
  4106  0F6B                     l609:	
  4107  0F6B  1C7B               	btfss	___fladd@grs,0
  4108  0F6C  2F6E               	goto	u2401
  4109  0F6D  2F6F               	goto	u2400
  4110  0F6E                     u2401:	
  4111  0F6E  2F72               	goto	l2059
  4112  0F6F                     u2400:	
  4113  0F6F                     l2057:	
  4114  0F6F  1403               	setc
  4115  0F70  0DFB               	rlf	___fladd@grs,f
  4116  0F71  2F74               	goto	l2061
  4117  0F72                     l2059:	
  4118  0F72  1003               	clrc
  4119  0F73  0DFB               	rlf	___fladd@grs,f
  4120  0F74                     l2061:	
  4121  0F74  087A               	movf	___fladd@bexp,w
  4122  0F75  1903               	btfsc	3,2
  4123  0F76  2F78               	goto	u2411
  4124  0F77  2F79               	goto	u2410
  4125  0F78                     u2411:	
  4126  0F78  2F7B               	goto	l2065
  4127  0F79                     u2410:	
  4128  0F79                     l2063:	
  4129  0F79  3001               	movlw	1
  4130  0F7A  02FA               	subwf	___fladd@bexp,f
  4131  0F7B                     l2065:	
  4132  0F7B  1FF2               	btfss	___fladd@b+2,7
  4133  0F7C  2F7E               	goto	u2421
  4134  0F7D  2F7F               	goto	u2420
  4135  0F7E                     u2421:	
  4136  0F7E  2F5B               	goto	l2051
  4137  0F7F                     u2420:	
  4138  0F7F                     l2067:	
  4139  0F7F  01F9               	clrf	___fladd@aexp
  4140  0F80                     l2069:	
  4141  0F80  1FFB               	btfss	___fladd@grs,7
  4142  0F81  2F83               	goto	u2431
  4143  0F82  2F84               	goto	u2430
  4144  0F83                     u2431:	
  4145  0F83  2F92               	goto	l2077
  4146  0F84                     u2430:	
  4147  0F84                     l2071:	
  4148  0F84  087B               	movf	___fladd@grs,w
  4149  0F85  397F               	andlw	127
  4150  0F86  1903               	btfsc	3,2
  4151  0F87  2F89               	goto	u2441
  4152  0F88  2F8A               	goto	u2440
  4153  0F89                     u2441:	
  4154  0F89  2F8D               	goto	l615
  4155  0F8A                     u2440:	
  4156  0F8A                     l2073:	
  4157  0F8A  01F9               	clrf	___fladd@aexp
  4158  0F8B  0AF9               	incf	___fladd@aexp,f
  4159  0F8C  2F92               	goto	l2077
  4160  0F8D                     l615:	
  4161  0F8D  1C70               	btfss	___fladd@b,0
  4162  0F8E  2F90               	goto	u2451
  4163  0F8F  2F91               	goto	u2450
  4164  0F90                     u2451:	
  4165  0F90  2F92               	goto	l2077
  4166  0F91                     u2450:	
  4167  0F91  2F8A               	goto	l2073
  4168  0F92                     l2077:	
  4169  0F92  0879               	movf	___fladd@aexp,w
  4170  0F93  1903               	btfsc	3,2
  4171  0F94  2F96               	goto	u2461
  4172  0F95  2F97               	goto	u2460
  4173  0F96                     u2461:	
  4174  0F96  2FCD               	goto	l618
  4175  0F97                     u2460:	
  4176  0F97                     l2079:	
  4177  0F97  3001               	movlw	1
  4178  0F98  07F0               	addwf	___fladd@b,f
  4179  0F99  3000               	movlw	0
  4180  0F9A  1803               	skipnc
  4181  0F9B  3001               	movlw	1
  4182  0F9C  07F1               	addwf	___fladd@b+1,f
  4183  0F9D  3000               	movlw	0
  4184  0F9E  1803               	skipnc
  4185  0F9F  3001               	movlw	1
  4186  0FA0  07F2               	addwf	___fladd@b+2,f
  4187  0FA1  3000               	movlw	0
  4188  0FA2  1803               	skipnc
  4189  0FA3  3001               	movlw	1
  4190  0FA4  07F3               	addwf	___fladd@b+3,f
  4191  0FA5                     l2081:	
  4192  0FA5  1C73               	btfss	___fladd@b+3,0
  4193  0FA6  2FA8               	goto	u2471
  4194  0FA7  2FA9               	goto	u2470
  4195  0FA8                     u2471:	
  4196  0FA8  2FCD               	goto	l618
  4197  0FA9                     u2470:	
  4198  0FA9                     l2083:	
  4199  0FA9  0870               	movf	___fladd@b,w
  4200  0FAA  1283               	bcf	3,5	;RP0=0, select bank0
  4201  0FAB  1303               	bcf	3,6	;RP1=0, select bank0
  4202  0FAC  00A0               	movwf	??___fladd
  4203  0FAD  0871               	movf	___fladd@b+1,w
  4204  0FAE  00A1               	movwf	??___fladd+1
  4205  0FAF  0872               	movf	___fladd@b+2,w
  4206  0FB0  00A2               	movwf	??___fladd+2
  4207  0FB1  0873               	movf	___fladd@b+3,w
  4208  0FB2  00A3               	movwf	??___fladd+3
  4209  0FB3  3001               	movlw	1
  4210  0FB4  00A4               	movwf	??___fladd+4
  4211  0FB5                     u2485:	
  4212  0FB5  0D23               	rlf	??___fladd+3,w
  4213  0FB6  0CA3               	rrf	??___fladd+3,f
  4214  0FB7  0CA2               	rrf	??___fladd+2,f
  4215  0FB8  0CA1               	rrf	??___fladd+1,f
  4216  0FB9  0CA0               	rrf	??___fladd,f
  4217  0FBA                     u2480:	
  4218  0FBA  0BA4               	decfsz	??___fladd+4,f
  4219  0FBB  2FB5               	goto	u2485
  4220  0FBC  0823               	movf	??___fladd+3,w
  4221  0FBD  00F3               	movwf	___fladd@b+3
  4222  0FBE  0822               	movf	??___fladd+2,w
  4223  0FBF  00F2               	movwf	___fladd@b+2
  4224  0FC0  0821               	movf	??___fladd+1,w
  4225  0FC1  00F1               	movwf	___fladd@b+1
  4226  0FC2  0820               	movf	??___fladd,w
  4227  0FC3  00F0               	movwf	___fladd@b
  4228  0FC4  0A7A               	incf	___fladd@bexp,w
  4229  0FC5  1903               	btfsc	3,2
  4230  0FC6  2FC8               	goto	u2491
  4231  0FC7  2FC9               	goto	u2490
  4232  0FC8                     u2491:	
  4233  0FC8  2FCD               	goto	l618
  4234  0FC9                     u2490:	
  4235  0FC9                     l2085:	
  4236  0FC9  3001               	movlw	1
  4237  0FCA  00A0               	movwf	??___fladd
  4238  0FCB  0820               	movf	??___fladd,w
  4239  0FCC  07FA               	addwf	___fladd@bexp,f
  4240  0FCD                     l618:	
  4241  0FCD  0A7A               	incf	___fladd@bexp,w
  4242  0FCE  1903               	btfsc	3,2
  4243  0FCF  2FD1               	goto	u2501
  4244  0FD0  2FD2               	goto	u2500
  4245  0FD1                     u2501:	
  4246  0FD1  2FD7               	goto	l2089
  4247  0FD2                     u2500:	
  4248  0FD2                     l2087:	
  4249  0FD2  087A               	movf	___fladd@bexp,w
  4250  0FD3  1D03               	btfss	3,2
  4251  0FD4  2FD6               	goto	u2511
  4252  0FD5  2FD7               	goto	u2510
  4253  0FD6                     u2511:	
  4254  0FD6  2FE5               	goto	l2095
  4255  0FD7                     u2510:	
  4256  0FD7                     l2089:	
  4257  0FD7  3000               	movlw	0
  4258  0FD8  00F3               	movwf	___fladd@b+3
  4259  0FD9  3000               	movlw	0
  4260  0FDA  00F2               	movwf	___fladd@b+2
  4261  0FDB  3000               	movlw	0
  4262  0FDC  00F1               	movwf	___fladd@b+1
  4263  0FDD  3000               	movlw	0
  4264  0FDE  00F0               	movwf	___fladd@b
  4265  0FDF                     l2091:	
  4266  0FDF  087A               	movf	___fladd@bexp,w
  4267  0FE0  1D03               	btfss	3,2
  4268  0FE1  2FE3               	goto	u2521
  4269  0FE2  2FE4               	goto	u2520
  4270  0FE3                     u2521:	
  4271  0FE3  2FE5               	goto	l2095
  4272  0FE4                     u2520:	
  4273  0FE4                     l2093:	
  4274  0FE4  01F8               	clrf	___fladd@signs
  4275  0FE5                     l2095:	
  4276  0FE5  1C7A               	btfss	___fladd@bexp,0
  4277  0FE6  2FE8               	goto	u2531
  4278  0FE7  2FE9               	goto	u2530
  4279  0FE8                     u2531:	
  4280  0FE8  2FEB               	goto	l2099
  4281  0FE9                     u2530:	
  4282  0FE9                     l2097:	
  4283  0FE9  17F2               	bsf	___fladd@b+2,7
  4284  0FEA  2FF1               	goto	l626
  4285  0FEB                     l2099:	
  4286  0FEB  307F               	movlw	127
  4287  0FEC  1283               	bcf	3,5	;RP0=0, select bank0
  4288  0FED  1303               	bcf	3,6	;RP1=0, select bank0
  4289  0FEE  00A0               	movwf	??___fladd
  4290  0FEF  0820               	movf	??___fladd,w
  4291  0FF0  05F2               	andwf	___fladd@b+2,f
  4292  0FF1                     l626:	
  4293  0FF1  087A               	movf	___fladd@bexp,w
  4294  0FF2  1283               	bcf	3,5	;RP0=0, select bank0
  4295  0FF3  1303               	bcf	3,6	;RP1=0, select bank0
  4296  0FF4  00A0               	movwf	??___fladd
  4297  0FF5  1003               	clrc
  4298  0FF6  0C20               	rrf	??___fladd,w
  4299  0FF7  00A1               	movwf	??___fladd+1
  4300  0FF8  0821               	movf	??___fladd+1,w
  4301  0FF9  00F3               	movwf	___fladd@b+3
  4302  0FFA                     l2101:	
  4303  0FFA  1FF8               	btfss	___fladd@signs,7
  4304  0FFB  2FFD               	goto	u2541
  4305  0FFC  2FFE               	goto	u2540
  4306  0FFD                     u2541:	
  4307  0FFD  2FFF               	goto	l627
  4308  0FFE                     u2540:	
  4309  0FFE                     l2103:	
  4310  0FFE  17F3               	bsf	___fladd@b+3,7
  4311  0FFF                     l627:	
  4312  0FFF                     l597:	
  4313  0FFF  0008               	return
  4314  1000                     __end_of___fladd:	
  4315                           
  4316                           	psect	text11
  4317  0105                     __ptext11:	
  4318 ;; *************** function ___flmul *****************
  4319 ;; Defined at:
  4320 ;;		line 8 in file "C:\Program Files (x86)\Microchip\xc8\v2.10\pic\sources\c90\common\sprcmul.c"
  4321 ;; Parameters:    Size  Location     Type
  4322 ;;  b               4   16[BANK0 ] unsigned char 
  4323 ;;  a               4   20[BANK0 ] unsigned char 
  4324 ;; Auto vars:     Size  Location     Type
  4325 ;;  prod            4   36[BANK0 ] struct .
  4326 ;;  grs             4   30[BANK0 ] unsigned long 
  4327 ;;  temp            2   40[BANK0 ] struct .
  4328 ;;  bexp            1   35[BANK0 ] unsigned char 
  4329 ;;  aexp            1   34[BANK0 ] unsigned char 
  4330 ;;  sign            1   29[BANK0 ] unsigned char 
  4331 ;; Return value:  Size  Location     Type
  4332 ;;                  4   16[BANK0 ] unsigned char 
  4333 ;; Registers used:
  4334 ;;		wreg, status,2, status,0, btemp+1, pclath, cstack
  4335 ;; Tracked objects:
  4336 ;;		On entry : 0/0
  4337 ;;		On exit  : 0/0
  4338 ;;		Unchanged: 0/0
  4339 ;; Data sizes:     COMMON   BANK0   BANK1   BANK3   BANK2
  4340 ;;      Params:         0       8       0       0       0
  4341 ;;      Locals:         0      13       0       0       0
  4342 ;;      Temps:          0       5       0       0       0
  4343 ;;      Totals:         0      26       0       0       0
  4344 ;;Total ram usage:       26 bytes
  4345 ;; Hardware stack levels used:    1
  4346 ;; Hardware stack levels required when called:    1
  4347 ;; This function calls:
  4348 ;;		__Umul8_16
  4349 ;; This function is called by:
  4350 ;;		_main
  4351 ;; This function uses a non-reentrant model
  4352 ;;
  4353                           
  4354                           
  4355                           ;psect for function ___flmul
  4356  0105                     ___flmul:	
  4357  0105                     l2441:	
  4358                           ;incstack = 0
  4359                           ; Regs used in ___flmul: [wreg+status,2+status,0+btemp+1+pclath+cstack]
  4360                           
  4361  0105  1283               	bcf	3,5	;RP0=0, select bank0
  4362  0106  1303               	bcf	3,6	;RP1=0, select bank0
  4363  0107  0833               	movf	___flmul@b+3,w
  4364  0108  3980               	andlw	128
  4365  0109  00B8               	movwf	??___flmul
  4366  010A  0838               	movf	??___flmul,w
  4367  010B  00BD               	movwf	___flmul@sign
  4368  010C                     l2443:	
  4369  010C  0833               	movf	___flmul@b+3,w
  4370  010D  00B8               	movwf	??___flmul
  4371  010E  0738               	addwf	??___flmul,w
  4372  010F  00B9               	movwf	??___flmul+1
  4373  0110  0839               	movf	??___flmul+1,w
  4374  0111  00C3               	movwf	___flmul@bexp
  4375  0112                     l2445:	
  4376  0112  1FB2               	btfss	___flmul@b+2,7
  4377  0113  2915               	goto	u3081
  4378  0114  2916               	goto	u3080
  4379  0115                     u3081:	
  4380  0115  2917               	goto	l2449
  4381  0116                     u3080:	
  4382  0116                     l2447:	
  4383  0116  1443               	bsf	___flmul@bexp,0
  4384  0117                     l2449:	
  4385  0117  0843               	movf	___flmul@bexp,w
  4386  0118  1903               	btfsc	3,2
  4387  0119  291B               	goto	u3091
  4388  011A  291C               	goto	u3090
  4389  011B                     u3091:	
  4390  011B  292B               	goto	l2457
  4391  011C                     u3090:	
  4392  011C                     l2451:	
  4393  011C  0A43               	incf	___flmul@bexp,w
  4394  011D  1D03               	btfss	3,2
  4395  011E  2920               	goto	u3101
  4396  011F  2921               	goto	u3100
  4397  0120                     u3101:	
  4398  0120  2929               	goto	l2455
  4399  0121                     u3100:	
  4400  0121                     l2453:	
  4401  0121  3000               	movlw	0
  4402  0122  00B3               	movwf	___flmul@b+3
  4403  0123  3000               	movlw	0
  4404  0124  00B2               	movwf	___flmul@b+2
  4405  0125  3000               	movlw	0
  4406  0126  00B1               	movwf	___flmul@b+1
  4407  0127  3000               	movlw	0
  4408  0128  00B0               	movwf	___flmul@b
  4409  0129                     l2455:	
  4410  0129  17B2               	bsf	___flmul@b+2,7
  4411  012A  2933               	goto	l2459
  4412  012B                     l2457:	
  4413  012B  3000               	movlw	0
  4414  012C  00B3               	movwf	___flmul@b+3
  4415  012D  3000               	movlw	0
  4416  012E  00B2               	movwf	___flmul@b+2
  4417  012F  3000               	movlw	0
  4418  0130  00B1               	movwf	___flmul@b+1
  4419  0131  3000               	movlw	0
  4420  0132  00B0               	movwf	___flmul@b
  4421  0133                     l2459:	
  4422  0133  0837               	movf	___flmul@a+3,w
  4423  0134  3980               	andlw	128
  4424  0135  00B8               	movwf	??___flmul
  4425  0136  0838               	movf	??___flmul,w
  4426  0137  06BD               	xorwf	___flmul@sign,f
  4427  0138                     l2461:	
  4428  0138  0837               	movf	___flmul@a+3,w
  4429  0139  00B8               	movwf	??___flmul
  4430  013A  0738               	addwf	??___flmul,w
  4431  013B  00B9               	movwf	??___flmul+1
  4432  013C  0839               	movf	??___flmul+1,w
  4433  013D  00C2               	movwf	___flmul@aexp
  4434  013E                     l2463:	
  4435  013E  1FB6               	btfss	___flmul@a+2,7
  4436  013F  2941               	goto	u3111
  4437  0140  2942               	goto	u3110
  4438  0141                     u3111:	
  4439  0141  2943               	goto	l2467
  4440  0142                     u3110:	
  4441  0142                     l2465:	
  4442  0142  1442               	bsf	___flmul@aexp,0
  4443  0143                     l2467:	
  4444  0143  0842               	movf	___flmul@aexp,w
  4445  0144  1903               	btfsc	3,2
  4446  0145  2947               	goto	u3121
  4447  0146  2948               	goto	u3120
  4448  0147                     u3121:	
  4449  0147  2957               	goto	l2475
  4450  0148                     u3120:	
  4451  0148                     l2469:	
  4452  0148  0A42               	incf	___flmul@aexp,w
  4453  0149  1D03               	btfss	3,2
  4454  014A  294C               	goto	u3131
  4455  014B  294D               	goto	u3130
  4456  014C                     u3131:	
  4457  014C  2955               	goto	l2473
  4458  014D                     u3130:	
  4459  014D                     l2471:	
  4460  014D  3000               	movlw	0
  4461  014E  00B7               	movwf	___flmul@a+3
  4462  014F  3000               	movlw	0
  4463  0150  00B6               	movwf	___flmul@a+2
  4464  0151  3000               	movlw	0
  4465  0152  00B5               	movwf	___flmul@a+1
  4466  0153  3000               	movlw	0
  4467  0154  00B4               	movwf	___flmul@a
  4468  0155                     l2473:	
  4469  0155  17B6               	bsf	___flmul@a+2,7
  4470  0156  295F               	goto	l2477
  4471  0157                     l2475:	
  4472  0157  3000               	movlw	0
  4473  0158  00B7               	movwf	___flmul@a+3
  4474  0159  3000               	movlw	0
  4475  015A  00B6               	movwf	___flmul@a+2
  4476  015B  3000               	movlw	0
  4477  015C  00B5               	movwf	___flmul@a+1
  4478  015D  3000               	movlw	0
  4479  015E  00B4               	movwf	___flmul@a
  4480  015F                     l2477:	
  4481  015F  0842               	movf	___flmul@aexp,w
  4482  0160  1903               	btfsc	3,2
  4483  0161  2963               	goto	u3141
  4484  0162  2964               	goto	u3140
  4485  0163                     u3141:	
  4486  0163  2969               	goto	l2481
  4487  0164                     u3140:	
  4488  0164                     l2479:	
  4489  0164  0843               	movf	___flmul@bexp,w
  4490  0165  1D03               	btfss	3,2
  4491  0166  2968               	goto	u3151
  4492  0167  2969               	goto	u3150
  4493  0168                     u3151:	
  4494  0168  2972               	goto	l2485
  4495  0169                     u3150:	
  4496  0169                     l2481:	
  4497  0169  3000               	movlw	0
  4498  016A  00B3               	movwf	?___flmul+3
  4499  016B  3000               	movlw	0
  4500  016C  00B2               	movwf	?___flmul+2
  4501  016D  3000               	movlw	0
  4502  016E  00B1               	movwf	?___flmul+1
  4503  016F  3000               	movlw	0
  4504  0170  00B0               	movwf	?___flmul
  4505  0171  2C65               	goto	l680
  4506  0172                     l2485:	
  4507  0172  0830               	movf	___flmul@b,w
  4508  0173  00B8               	movwf	??___flmul
  4509  0174  0838               	movf	??___flmul,w
  4510  0175  00F0               	movwf	__Umul8_16@multiplicand
  4511  0176  0836               	movf	___flmul@a+2,w
  4512  0177  120A  158A  2092  120A  118A  	fcall	__Umul8_16
  4513  017C  0871               	movf	?__Umul8_16+1,w
  4514  017D  1283               	bcf	3,5	;RP0=0, select bank0
  4515  017E  1303               	bcf	3,6	;RP1=0, select bank0
  4516  017F  00C9               	movwf	___flmul@temp+1
  4517  0180  0870               	movf	?__Umul8_16,w
  4518  0181  00C8               	movwf	___flmul@temp
  4519  0182                     l2487:	
  4520  0182  0848               	movf	___flmul@temp,w
  4521  0183  00B8               	movwf	??___flmul
  4522  0184  01B9               	clrf	??___flmul+1
  4523  0185  01BA               	clrf	??___flmul+2
  4524  0186  01BB               	clrf	??___flmul+3
  4525  0187  083B               	movf	??___flmul+3,w
  4526  0188  00C1               	movwf	___flmul@grs+3
  4527  0189  083A               	movf	??___flmul+2,w
  4528  018A  00C0               	movwf	___flmul@grs+2
  4529  018B  0839               	movf	??___flmul+1,w
  4530  018C  00BF               	movwf	___flmul@grs+1
  4531  018D  0838               	movf	??___flmul,w
  4532  018E  00BE               	movwf	___flmul@grs
  4533  018F                     l2489:	
  4534  018F  0849               	movf	___flmul@temp+1,w
  4535  0190  00B8               	movwf	??___flmul
  4536  0191  01B9               	clrf	??___flmul+1
  4537  0192  01BA               	clrf	??___flmul+2
  4538  0193  01BB               	clrf	??___flmul+3
  4539  0194  083B               	movf	??___flmul+3,w
  4540  0195  00C7               	movwf	___flmul@prod+3
  4541  0196  083A               	movf	??___flmul+2,w
  4542  0197  00C6               	movwf	___flmul@prod+2
  4543  0198  0839               	movf	??___flmul+1,w
  4544  0199  00C5               	movwf	___flmul@prod+1
  4545  019A  0838               	movf	??___flmul,w
  4546  019B  00C4               	movwf	___flmul@prod
  4547  019C  0831               	movf	___flmul@b+1,w
  4548  019D  00B8               	movwf	??___flmul
  4549  019E  0838               	movf	??___flmul,w
  4550  019F  00F0               	movwf	__Umul8_16@multiplicand
  4551  01A0  0835               	movf	___flmul@a+1,w
  4552  01A1  120A  158A  2092  120A  118A  	fcall	__Umul8_16
  4553  01A6  0871               	movf	?__Umul8_16+1,w
  4554  01A7  1283               	bcf	3,5	;RP0=0, select bank0
  4555  01A8  1303               	bcf	3,6	;RP1=0, select bank0
  4556  01A9  00C9               	movwf	___flmul@temp+1
  4557  01AA  0870               	movf	?__Umul8_16,w
  4558  01AB  00C8               	movwf	___flmul@temp
  4559  01AC                     l2491:	
  4560  01AC  0848               	movf	___flmul@temp,w
  4561  01AD  00B8               	movwf	??___flmul
  4562  01AE  01B9               	clrf	??___flmul+1
  4563  01AF  01BA               	clrf	??___flmul+2
  4564  01B0  01BB               	clrf	??___flmul+3
  4565  01B1  0838               	movf	??___flmul,w
  4566  01B2  07BE               	addwf	___flmul@grs,f
  4567  01B3  0839               	movf	??___flmul+1,w
  4568  01B4  1103               	clrz
  4569  01B5  1803               	skipnc
  4570  01B6  3E01               	addlw	1
  4571  01B7  1903               	skipnz
  4572  01B8  29BA               	goto	u3161
  4573  01B9  07BF               	addwf	___flmul@grs+1,f
  4574  01BA                     u3161:	
  4575  01BA  083A               	movf	??___flmul+2,w
  4576  01BB  1103               	clrz
  4577  01BC  1803               	skipnc
  4578  01BD  3E01               	addlw	1
  4579  01BE  1903               	skipnz
  4580  01BF  29C1               	goto	u3162
  4581  01C0  07C0               	addwf	___flmul@grs+2,f
  4582  01C1                     u3162:	
  4583  01C1  083B               	movf	??___flmul+3,w
  4584  01C2  1103               	clrz
  4585  01C3  1803               	skipnc
  4586  01C4  3E01               	addlw	1
  4587  01C5  1903               	skipnz
  4588  01C6  29C8               	goto	u3163
  4589  01C7  07C1               	addwf	___flmul@grs+3,f
  4590  01C8                     u3163:	
  4591  01C8                     l2493:	
  4592  01C8  0849               	movf	___flmul@temp+1,w
  4593  01C9  00B8               	movwf	??___flmul
  4594  01CA  01B9               	clrf	??___flmul+1
  4595  01CB  01BA               	clrf	??___flmul+2
  4596  01CC  01BB               	clrf	??___flmul+3
  4597  01CD  0838               	movf	??___flmul,w
  4598  01CE  07C4               	addwf	___flmul@prod,f
  4599  01CF  0839               	movf	??___flmul+1,w
  4600  01D0  1103               	clrz
  4601  01D1  1803               	skipnc
  4602  01D2  3E01               	addlw	1
  4603  01D3  1903               	skipnz
  4604  01D4  29D6               	goto	u3171
  4605  01D5  07C5               	addwf	___flmul@prod+1,f
  4606  01D6                     u3171:	
  4607  01D6  083A               	movf	??___flmul+2,w
  4608  01D7  1103               	clrz
  4609  01D8  1803               	skipnc
  4610  01D9  3E01               	addlw	1
  4611  01DA  1903               	skipnz
  4612  01DB  29DD               	goto	u3172
  4613  01DC  07C6               	addwf	___flmul@prod+2,f
  4614  01DD                     u3172:	
  4615  01DD  083B               	movf	??___flmul+3,w
  4616  01DE  1103               	clrz
  4617  01DF  1803               	skipnc
  4618  01E0  3E01               	addlw	1
  4619  01E1  1903               	skipnz
  4620  01E2  29E4               	goto	u3173
  4621  01E3  07C7               	addwf	___flmul@prod+3,f
  4622  01E4                     u3173:	
  4623  01E4  0832               	movf	___flmul@b+2,w
  4624  01E5  00B8               	movwf	??___flmul
  4625  01E6  0838               	movf	??___flmul,w
  4626  01E7  00F0               	movwf	__Umul8_16@multiplicand
  4627  01E8  0834               	movf	___flmul@a,w
  4628  01E9  120A  158A  2092  120A  118A  	fcall	__Umul8_16
  4629  01EE  0871               	movf	?__Umul8_16+1,w
  4630  01EF  1283               	bcf	3,5	;RP0=0, select bank0
  4631  01F0  1303               	bcf	3,6	;RP1=0, select bank0
  4632  01F1  00C9               	movwf	___flmul@temp+1
  4633  01F2  0870               	movf	?__Umul8_16,w
  4634  01F3  00C8               	movwf	___flmul@temp
  4635  01F4                     l2495:	
  4636  01F4  0848               	movf	___flmul@temp,w
  4637  01F5  00B8               	movwf	??___flmul
  4638  01F6  01B9               	clrf	??___flmul+1
  4639  01F7  01BA               	clrf	??___flmul+2
  4640  01F8  01BB               	clrf	??___flmul+3
  4641  01F9  0838               	movf	??___flmul,w
  4642  01FA  07BE               	addwf	___flmul@grs,f
  4643  01FB  0839               	movf	??___flmul+1,w
  4644  01FC  1103               	clrz
  4645  01FD  1803               	skipnc
  4646  01FE  3E01               	addlw	1
  4647  01FF  1903               	skipnz
  4648  0200  2A02               	goto	u3181
  4649  0201  07BF               	addwf	___flmul@grs+1,f
  4650  0202                     u3181:	
  4651  0202  083A               	movf	??___flmul+2,w
  4652  0203  1103               	clrz
  4653  0204  1803               	skipnc
  4654  0205  3E01               	addlw	1
  4655  0206  1903               	skipnz
  4656  0207  2A09               	goto	u3182
  4657  0208  07C0               	addwf	___flmul@grs+2,f
  4658  0209                     u3182:	
  4659  0209  083B               	movf	??___flmul+3,w
  4660  020A  1103               	clrz
  4661  020B  1803               	skipnc
  4662  020C  3E01               	addlw	1
  4663  020D  1903               	skipnz
  4664  020E  2A10               	goto	u3183
  4665  020F  07C1               	addwf	___flmul@grs+3,f
  4666  0210                     u3183:	
  4667  0210                     l2497:	
  4668  0210  0849               	movf	___flmul@temp+1,w
  4669  0211  00B8               	movwf	??___flmul
  4670  0212  01B9               	clrf	??___flmul+1
  4671  0213  01BA               	clrf	??___flmul+2
  4672  0214  01BB               	clrf	??___flmul+3
  4673  0215  0838               	movf	??___flmul,w
  4674  0216  07C4               	addwf	___flmul@prod,f
  4675  0217  0839               	movf	??___flmul+1,w
  4676  0218  1103               	clrz
  4677  0219  1803               	skipnc
  4678  021A  3E01               	addlw	1
  4679  021B  1903               	skipnz
  4680  021C  2A1E               	goto	u3191
  4681  021D  07C5               	addwf	___flmul@prod+1,f
  4682  021E                     u3191:	
  4683  021E  083A               	movf	??___flmul+2,w
  4684  021F  1103               	clrz
  4685  0220  1803               	skipnc
  4686  0221  3E01               	addlw	1
  4687  0222  1903               	skipnz
  4688  0223  2A25               	goto	u3192
  4689  0224  07C6               	addwf	___flmul@prod+2,f
  4690  0225                     u3192:	
  4691  0225  083B               	movf	??___flmul+3,w
  4692  0226  1103               	clrz
  4693  0227  1803               	skipnc
  4694  0228  3E01               	addlw	1
  4695  0229  1903               	skipnz
  4696  022A  2A2C               	goto	u3193
  4697  022B  07C7               	addwf	___flmul@prod+3,f
  4698  022C                     u3193:	
  4699  022C                     l2499:	
  4700  022C  3008               	movlw	8
  4701  022D  00B8               	movwf	??___flmul
  4702  022E                     u3205:	
  4703  022E  1003               	clrc
  4704  022F  0DBE               	rlf	___flmul@grs,f
  4705  0230  0DBF               	rlf	___flmul@grs+1,f
  4706  0231  0DC0               	rlf	___flmul@grs+2,f
  4707  0232  0DC1               	rlf	___flmul@grs+3,f
  4708  0233  0BB8               	decfsz	??___flmul,f
  4709  0234  2A2E               	goto	u3205
  4710  0235                     l2501:	
  4711  0235  0831               	movf	___flmul@b+1,w
  4712  0236  00B8               	movwf	??___flmul
  4713  0237  0838               	movf	??___flmul,w
  4714  0238  00F0               	movwf	__Umul8_16@multiplicand
  4715  0239  0834               	movf	___flmul@a,w
  4716  023A  120A  158A  2092  120A  118A  	fcall	__Umul8_16
  4717  023F  0871               	movf	?__Umul8_16+1,w
  4718  0240  1283               	bcf	3,5	;RP0=0, select bank0
  4719  0241  1303               	bcf	3,6	;RP1=0, select bank0
  4720  0242  00C9               	movwf	___flmul@temp+1
  4721  0243  0870               	movf	?__Umul8_16,w
  4722  0244  00C8               	movwf	___flmul@temp
  4723  0245                     l2503:	
  4724  0245  0848               	movf	___flmul@temp,w
  4725  0246  00B8               	movwf	??___flmul
  4726  0247  0849               	movf	___flmul@temp+1,w
  4727  0248  00B9               	movwf	??___flmul+1
  4728  0249  01BA               	clrf	??___flmul+2
  4729  024A  01BB               	clrf	??___flmul+3
  4730  024B  0838               	movf	??___flmul,w
  4731  024C  07BE               	addwf	___flmul@grs,f
  4732  024D  0839               	movf	??___flmul+1,w
  4733  024E  1103               	clrz
  4734  024F  1803               	skipnc
  4735  0250  3E01               	addlw	1
  4736  0251  1903               	skipnz
  4737  0252  2A54               	goto	u3211
  4738  0253  07BF               	addwf	___flmul@grs+1,f
  4739  0254                     u3211:	
  4740  0254  083A               	movf	??___flmul+2,w
  4741  0255  1103               	clrz
  4742  0256  1803               	skipnc
  4743  0257  3E01               	addlw	1
  4744  0258  1903               	skipnz
  4745  0259  2A5B               	goto	u3212
  4746  025A  07C0               	addwf	___flmul@grs+2,f
  4747  025B                     u3212:	
  4748  025B  083B               	movf	??___flmul+3,w
  4749  025C  1103               	clrz
  4750  025D  1803               	skipnc
  4751  025E  3E01               	addlw	1
  4752  025F  1903               	skipnz
  4753  0260  2A62               	goto	u3213
  4754  0261  07C1               	addwf	___flmul@grs+3,f
  4755  0262                     u3213:	
  4756  0262                     l2505:	
  4757  0262  0830               	movf	___flmul@b,w
  4758  0263  00B8               	movwf	??___flmul
  4759  0264  0838               	movf	??___flmul,w
  4760  0265  00F0               	movwf	__Umul8_16@multiplicand
  4761  0266  0835               	movf	___flmul@a+1,w
  4762  0267  120A  158A  2092  120A  118A  	fcall	__Umul8_16
  4763  026C  0871               	movf	?__Umul8_16+1,w
  4764  026D  1283               	bcf	3,5	;RP0=0, select bank0
  4765  026E  1303               	bcf	3,6	;RP1=0, select bank0
  4766  026F  00C9               	movwf	___flmul@temp+1
  4767  0270  0870               	movf	?__Umul8_16,w
  4768  0271  00C8               	movwf	___flmul@temp
  4769  0272                     l2507:	
  4770  0272  0848               	movf	___flmul@temp,w
  4771  0273  00B8               	movwf	??___flmul
  4772  0274  0849               	movf	___flmul@temp+1,w
  4773  0275  00B9               	movwf	??___flmul+1
  4774  0276  01BA               	clrf	??___flmul+2
  4775  0277  01BB               	clrf	??___flmul+3
  4776  0278  0838               	movf	??___flmul,w
  4777  0279  07BE               	addwf	___flmul@grs,f
  4778  027A  0839               	movf	??___flmul+1,w
  4779  027B  1103               	clrz
  4780  027C  1803               	skipnc
  4781  027D  3E01               	addlw	1
  4782  027E  1903               	skipnz
  4783  027F  2A81               	goto	u3221
  4784  0280  07BF               	addwf	___flmul@grs+1,f
  4785  0281                     u3221:	
  4786  0281  083A               	movf	??___flmul+2,w
  4787  0282  1103               	clrz
  4788  0283  1803               	skipnc
  4789  0284  3E01               	addlw	1
  4790  0285  1903               	skipnz
  4791  0286  2A88               	goto	u3222
  4792  0287  07C0               	addwf	___flmul@grs+2,f
  4793  0288                     u3222:	
  4794  0288  083B               	movf	??___flmul+3,w
  4795  0289  1103               	clrz
  4796  028A  1803               	skipnc
  4797  028B  3E01               	addlw	1
  4798  028C  1903               	skipnz
  4799  028D  2A8F               	goto	u3223
  4800  028E  07C1               	addwf	___flmul@grs+3,f
  4801  028F                     u3223:	
  4802  028F                     l2509:	
  4803  028F  3008               	movlw	8
  4804  0290  00B8               	movwf	??___flmul
  4805  0291                     u3235:	
  4806  0291  1003               	clrc
  4807  0292  0DBE               	rlf	___flmul@grs,f
  4808  0293  0DBF               	rlf	___flmul@grs+1,f
  4809  0294  0DC0               	rlf	___flmul@grs+2,f
  4810  0295  0DC1               	rlf	___flmul@grs+3,f
  4811  0296  0BB8               	decfsz	??___flmul,f
  4812  0297  2A91               	goto	u3235
  4813  0298  0830               	movf	___flmul@b,w
  4814  0299  00B8               	movwf	??___flmul
  4815  029A  0838               	movf	??___flmul,w
  4816  029B  00F0               	movwf	__Umul8_16@multiplicand
  4817  029C  0834               	movf	___flmul@a,w
  4818  029D  120A  158A  2092  120A  118A  	fcall	__Umul8_16
  4819  02A2  0871               	movf	?__Umul8_16+1,w
  4820  02A3  1283               	bcf	3,5	;RP0=0, select bank0
  4821  02A4  1303               	bcf	3,6	;RP1=0, select bank0
  4822  02A5  00C9               	movwf	___flmul@temp+1
  4823  02A6  0870               	movf	?__Umul8_16,w
  4824  02A7  00C8               	movwf	___flmul@temp
  4825  02A8                     l2511:	
  4826  02A8  0848               	movf	___flmul@temp,w
  4827  02A9  00B8               	movwf	??___flmul
  4828  02AA  0849               	movf	___flmul@temp+1,w
  4829  02AB  00B9               	movwf	??___flmul+1
  4830  02AC  01BA               	clrf	??___flmul+2
  4831  02AD  01BB               	clrf	??___flmul+3
  4832  02AE  0838               	movf	??___flmul,w
  4833  02AF  07BE               	addwf	___flmul@grs,f
  4834  02B0  0839               	movf	??___flmul+1,w
  4835  02B1  1103               	clrz
  4836  02B2  1803               	skipnc
  4837  02B3  3E01               	addlw	1
  4838  02B4  1903               	skipnz
  4839  02B5  2AB7               	goto	u3241
  4840  02B6  07BF               	addwf	___flmul@grs+1,f
  4841  02B7                     u3241:	
  4842  02B7  083A               	movf	??___flmul+2,w
  4843  02B8  1103               	clrz
  4844  02B9  1803               	skipnc
  4845  02BA  3E01               	addlw	1
  4846  02BB  1903               	skipnz
  4847  02BC  2ABE               	goto	u3242
  4848  02BD  07C0               	addwf	___flmul@grs+2,f
  4849  02BE                     u3242:	
  4850  02BE  083B               	movf	??___flmul+3,w
  4851  02BF  1103               	clrz
  4852  02C0  1803               	skipnc
  4853  02C1  3E01               	addlw	1
  4854  02C2  1903               	skipnz
  4855  02C3  2AC5               	goto	u3243
  4856  02C4  07C1               	addwf	___flmul@grs+3,f
  4857  02C5                     u3243:	
  4858  02C5                     l2513:	
  4859  02C5  0831               	movf	___flmul@b+1,w
  4860  02C6  00B8               	movwf	??___flmul
  4861  02C7  0838               	movf	??___flmul,w
  4862  02C8  00F0               	movwf	__Umul8_16@multiplicand
  4863  02C9  0836               	movf	___flmul@a+2,w
  4864  02CA  120A  158A  2092  120A  118A  	fcall	__Umul8_16
  4865  02CF  0871               	movf	?__Umul8_16+1,w
  4866  02D0  1283               	bcf	3,5	;RP0=0, select bank0
  4867  02D1  1303               	bcf	3,6	;RP1=0, select bank0
  4868  02D2  00C9               	movwf	___flmul@temp+1
  4869  02D3  0870               	movf	?__Umul8_16,w
  4870  02D4  00C8               	movwf	___flmul@temp
  4871  02D5  0848               	movf	___flmul@temp,w
  4872  02D6  00B8               	movwf	??___flmul
  4873  02D7  0849               	movf	___flmul@temp+1,w
  4874  02D8  00B9               	movwf	??___flmul+1
  4875  02D9  01BA               	clrf	??___flmul+2
  4876  02DA  01BB               	clrf	??___flmul+3
  4877  02DB  0838               	movf	??___flmul,w
  4878  02DC  07C4               	addwf	___flmul@prod,f
  4879  02DD  0839               	movf	??___flmul+1,w
  4880  02DE  1103               	clrz
  4881  02DF  1803               	skipnc
  4882  02E0  3E01               	addlw	1
  4883  02E1  1903               	skipnz
  4884  02E2  2AE4               	goto	u3251
  4885  02E3  07C5               	addwf	___flmul@prod+1,f
  4886  02E4                     u3251:	
  4887  02E4  083A               	movf	??___flmul+2,w
  4888  02E5  1103               	clrz
  4889  02E6  1803               	skipnc
  4890  02E7  3E01               	addlw	1
  4891  02E8  1903               	skipnz
  4892  02E9  2AEB               	goto	u3252
  4893  02EA  07C6               	addwf	___flmul@prod+2,f
  4894  02EB                     u3252:	
  4895  02EB  083B               	movf	??___flmul+3,w
  4896  02EC  1103               	clrz
  4897  02ED  1803               	skipnc
  4898  02EE  3E01               	addlw	1
  4899  02EF  1903               	skipnz
  4900  02F0  2AF2               	goto	u3253
  4901  02F1  07C7               	addwf	___flmul@prod+3,f
  4902  02F2                     u3253:	
  4903  02F2                     l2515:	
  4904  02F2  0832               	movf	___flmul@b+2,w
  4905  02F3  00B8               	movwf	??___flmul
  4906  02F4  0838               	movf	??___flmul,w
  4907  02F5  00F0               	movwf	__Umul8_16@multiplicand
  4908  02F6  0835               	movf	___flmul@a+1,w
  4909  02F7  120A  158A  2092  120A  118A  	fcall	__Umul8_16
  4910  02FC  0871               	movf	?__Umul8_16+1,w
  4911  02FD  1283               	bcf	3,5	;RP0=0, select bank0
  4912  02FE  1303               	bcf	3,6	;RP1=0, select bank0
  4913  02FF  00C9               	movwf	___flmul@temp+1
  4914  0300  0870               	movf	?__Umul8_16,w
  4915  0301  00C8               	movwf	___flmul@temp
  4916  0302                     l2517:	
  4917  0302  0848               	movf	___flmul@temp,w
  4918  0303  00B8               	movwf	??___flmul
  4919  0304  0849               	movf	___flmul@temp+1,w
  4920  0305  00B9               	movwf	??___flmul+1
  4921  0306  01BA               	clrf	??___flmul+2
  4922  0307  01BB               	clrf	??___flmul+3
  4923  0308  0838               	movf	??___flmul,w
  4924  0309  07C4               	addwf	___flmul@prod,f
  4925  030A  0839               	movf	??___flmul+1,w
  4926  030B  1103               	clrz
  4927  030C  1803               	skipnc
  4928  030D  3E01               	addlw	1
  4929  030E  1903               	skipnz
  4930  030F  2B11               	goto	u3261
  4931  0310  07C5               	addwf	___flmul@prod+1,f
  4932  0311                     u3261:	
  4933  0311  083A               	movf	??___flmul+2,w
  4934  0312  1103               	clrz
  4935  0313  1803               	skipnc
  4936  0314  3E01               	addlw	1
  4937  0315  1903               	skipnz
  4938  0316  2B18               	goto	u3262
  4939  0317  07C6               	addwf	___flmul@prod+2,f
  4940  0318                     u3262:	
  4941  0318  083B               	movf	??___flmul+3,w
  4942  0319  1103               	clrz
  4943  031A  1803               	skipnc
  4944  031B  3E01               	addlw	1
  4945  031C  1903               	skipnz
  4946  031D  2B1F               	goto	u3263
  4947  031E  07C7               	addwf	___flmul@prod+3,f
  4948  031F                     u3263:	
  4949  031F  0832               	movf	___flmul@b+2,w
  4950  0320  00B8               	movwf	??___flmul
  4951  0321  0838               	movf	??___flmul,w
  4952  0322  00F0               	movwf	__Umul8_16@multiplicand
  4953  0323  0836               	movf	___flmul@a+2,w
  4954  0324  120A  158A  2092  120A  118A  	fcall	__Umul8_16
  4955  0329  0871               	movf	?__Umul8_16+1,w
  4956  032A  1283               	bcf	3,5	;RP0=0, select bank0
  4957  032B  1303               	bcf	3,6	;RP1=0, select bank0
  4958  032C  00C9               	movwf	___flmul@temp+1
  4959  032D  0870               	movf	?__Umul8_16,w
  4960  032E  00C8               	movwf	___flmul@temp
  4961  032F                     l2519:	
  4962  032F  0848               	movf	___flmul@temp,w
  4963  0330  00B8               	movwf	??___flmul
  4964  0331  0849               	movf	___flmul@temp+1,w
  4965  0332  00B9               	movwf	??___flmul+1
  4966  0333  01BA               	clrf	??___flmul+2
  4967  0334  01BB               	clrf	??___flmul+3
  4968  0335  3008               	movlw	8
  4969  0336                     u3275:	
  4970  0336  1003               	clrc
  4971  0337  0DB8               	rlf	??___flmul,f
  4972  0338  0DB9               	rlf	??___flmul+1,f
  4973  0339  0DBA               	rlf	??___flmul+2,f
  4974  033A  0DBB               	rlf	??___flmul+3,f
  4975  033B                     u3270:	
  4976  033B  3EFF               	addlw	-1
  4977  033C  1D03               	skipz
  4978  033D  2B36               	goto	u3275
  4979  033E  0838               	movf	??___flmul,w
  4980  033F  07C4               	addwf	___flmul@prod,f
  4981  0340  0839               	movf	??___flmul+1,w
  4982  0341  1103               	clrz
  4983  0342  1803               	skipnc
  4984  0343  3E01               	addlw	1
  4985  0344  1903               	skipnz
  4986  0345  2B47               	goto	u3281
  4987  0346  07C5               	addwf	___flmul@prod+1,f
  4988  0347                     u3281:	
  4989  0347  083A               	movf	??___flmul+2,w
  4990  0348  1103               	clrz
  4991  0349  1803               	skipnc
  4992  034A  3E01               	addlw	1
  4993  034B  1903               	skipnz
  4994  034C  2B4E               	goto	u3282
  4995  034D  07C6               	addwf	___flmul@prod+2,f
  4996  034E                     u3282:	
  4997  034E  083B               	movf	??___flmul+3,w
  4998  034F  1103               	clrz
  4999  0350  1803               	skipnc
  5000  0351  3E01               	addlw	1
  5001  0352  1903               	skipnz
  5002  0353  2B55               	goto	u3283
  5003  0354  07C7               	addwf	___flmul@prod+3,f
  5004  0355                     u3283:	
  5005  0355                     l2521:	
  5006  0355  083E               	movf	___flmul@grs,w
  5007  0356  00B8               	movwf	??___flmul
  5008  0357  083F               	movf	___flmul@grs+1,w
  5009  0358  00B9               	movwf	??___flmul+1
  5010  0359  0840               	movf	___flmul@grs+2,w
  5011  035A  00BA               	movwf	??___flmul+2
  5012  035B  0841               	movf	___flmul@grs+3,w
  5013  035C  00BB               	movwf	??___flmul+3
  5014  035D  3018               	movlw	24
  5015  035E                     u3295:	
  5016  035E  1003               	clrc
  5017  035F  0CBB               	rrf	??___flmul+3,f
  5018  0360  0CBA               	rrf	??___flmul+2,f
  5019  0361  0CB9               	rrf	??___flmul+1,f
  5020  0362  0CB8               	rrf	??___flmul,f
  5021  0363                     u3290:	
  5022  0363  3EFF               	addlw	-1
  5023  0364  1D03               	skipz
  5024  0365  2B5E               	goto	u3295
  5025  0366  0838               	movf	??___flmul,w
  5026  0367  07C4               	addwf	___flmul@prod,f
  5027  0368  0839               	movf	??___flmul+1,w
  5028  0369  1103               	clrz
  5029  036A  1803               	skipnc
  5030  036B  3E01               	addlw	1
  5031  036C  1903               	skipnz
  5032  036D  2B6F               	goto	u3301
  5033  036E  07C5               	addwf	___flmul@prod+1,f
  5034  036F                     u3301:	
  5035  036F  083A               	movf	??___flmul+2,w
  5036  0370  1103               	clrz
  5037  0371  1803               	skipnc
  5038  0372  3E01               	addlw	1
  5039  0373  1903               	skipnz
  5040  0374  2B76               	goto	u3302
  5041  0375  07C6               	addwf	___flmul@prod+2,f
  5042  0376                     u3302:	
  5043  0376  083B               	movf	??___flmul+3,w
  5044  0377  1103               	clrz
  5045  0378  1803               	skipnc
  5046  0379  3E01               	addlw	1
  5047  037A  1903               	skipnz
  5048  037B  2B7D               	goto	u3303
  5049  037C  07C7               	addwf	___flmul@prod+3,f
  5050  037D                     u3303:	
  5051  037D                     l2523:	
  5052  037D  3008               	movlw	8
  5053  037E  00B8               	movwf	??___flmul
  5054  037F                     u3315:	
  5055  037F  1003               	clrc
  5056  0380  0DBE               	rlf	___flmul@grs,f
  5057  0381  0DBF               	rlf	___flmul@grs+1,f
  5058  0382  0DC0               	rlf	___flmul@grs+2,f
  5059  0383  0DC1               	rlf	___flmul@grs+3,f
  5060  0384  0BB8               	decfsz	??___flmul,f
  5061  0385  2B7F               	goto	u3315
  5062  0386                     l2525:	
  5063  0386  0843               	movf	___flmul@bexp,w
  5064  0387  0742               	addwf	___flmul@aexp,w
  5065  0388  00B8               	movwf	??___flmul
  5066  0389  01B9               	clrf	??___flmul+1
  5067  038A  0DB9               	rlf	??___flmul+1,f
  5068  038B  0838               	movf	??___flmul,w
  5069  038C  3E82               	addlw	130
  5070  038D  00C8               	movwf	___flmul@temp
  5071  038E  0839               	movf	??___flmul+1,w
  5072  038F  1803               	skipnc
  5073  0390  3E01               	addlw	1
  5074  0391  3EFF               	addlw	255
  5075  0392  00C9               	movwf	___flmul@temp+1
  5076  0393  2BB1               	goto	l2537
  5077  0394                     l2527:	
  5078  0394  3001               	movlw	1
  5079  0395  00B8               	movwf	??___flmul
  5080  0396                     u3325:	
  5081  0396  1003               	clrc
  5082  0397  0DC4               	rlf	___flmul@prod,f
  5083  0398  0DC5               	rlf	___flmul@prod+1,f
  5084  0399  0DC6               	rlf	___flmul@prod+2,f
  5085  039A  0DC7               	rlf	___flmul@prod+3,f
  5086  039B  0BB8               	decfsz	??___flmul,f
  5087  039C  2B96               	goto	u3325
  5088  039D                     l2529:	
  5089  039D  1FC1               	btfss	___flmul@grs+3,7
  5090  039E  2BA0               	goto	u3331
  5091  039F  2BA1               	goto	u3330
  5092  03A0                     u3331:	
  5093  03A0  2BA2               	goto	l2533
  5094  03A1                     u3330:	
  5095  03A1                     l2531:	
  5096  03A1  1444               	bsf	___flmul@prod,0
  5097  03A2                     l2533:	
  5098  03A2  3001               	movlw	1
  5099  03A3  00B8               	movwf	??___flmul
  5100  03A4                     u3345:	
  5101  03A4  1003               	clrc
  5102  03A5  0DBE               	rlf	___flmul@grs,f
  5103  03A6  0DBF               	rlf	___flmul@grs+1,f
  5104  03A7  0DC0               	rlf	___flmul@grs+2,f
  5105  03A8  0DC1               	rlf	___flmul@grs+3,f
  5106  03A9  0BB8               	decfsz	??___flmul,f
  5107  03AA  2BA4               	goto	u3345
  5108  03AB                     l2535:	
  5109  03AB  30FF               	movlw	255
  5110  03AC  07C8               	addwf	___flmul@temp,f
  5111  03AD  1803               	skipnc
  5112  03AE  0AC9               	incf	___flmul@temp+1,f
  5113  03AF  30FF               	movlw	255
  5114  03B0  07C9               	addwf	___flmul@temp+1,f
  5115  03B1                     l2537:	
  5116  03B1  1FC6               	btfss	___flmul@prod+2,7
  5117  03B2  2BB4               	goto	u3351
  5118  03B3  2BB5               	goto	u3350
  5119  03B4                     u3351:	
  5120  03B4  2B94               	goto	l2527
  5121  03B5                     u3350:	
  5122  03B5                     l2539:	
  5123  03B5  01C2               	clrf	___flmul@aexp
  5124  03B6                     l2541:	
  5125  03B6  1FC1               	btfss	___flmul@grs+3,7
  5126  03B7  2BB9               	goto	u3361
  5127  03B8  2BBA               	goto	u3360
  5128  03B9                     u3361:	
  5129  03B9  2BD6               	goto	l2549
  5130  03BA                     u3360:	
  5131  03BA                     l2543:	
  5132  03BA  30FF               	movlw	255
  5133  03BB  053E               	andwf	___flmul@grs,w
  5134  03BC  00B8               	movwf	??___flmul
  5135  03BD  30FF               	movlw	255
  5136  03BE  053F               	andwf	___flmul@grs+1,w
  5137  03BF  00B9               	movwf	??___flmul+1
  5138  03C0  30FF               	movlw	255
  5139  03C1  0540               	andwf	___flmul@grs+2,w
  5140  03C2  00BA               	movwf	??___flmul+2
  5141  03C3  307F               	movlw	127
  5142  03C4  0541               	andwf	___flmul@grs+3,w
  5143  03C5  00BB               	movwf	??___flmul+3
  5144  03C6  083B               	movf	??___flmul+3,w
  5145  03C7  043A               	iorwf	??___flmul+2,w
  5146  03C8  0439               	iorwf	??___flmul+1,w
  5147  03C9  0438               	iorwf	??___flmul,w
  5148  03CA  1903               	skipnz
  5149  03CB  2BCD               	goto	u3371
  5150  03CC  2BCE               	goto	u3370
  5151  03CD                     u3371:	
  5152  03CD  2BD1               	goto	l686
  5153  03CE                     u3370:	
  5154  03CE                     l2545:	
  5155  03CE  01C2               	clrf	___flmul@aexp
  5156  03CF  0AC2               	incf	___flmul@aexp,f
  5157  03D0  2BD6               	goto	l2549
  5158  03D1                     l686:	
  5159  03D1  1C44               	btfss	___flmul@prod,0
  5160  03D2  2BD4               	goto	u3381
  5161  03D3  2BD5               	goto	u3380
  5162  03D4                     u3381:	
  5163  03D4  2BD6               	goto	l2549
  5164  03D5                     u3380:	
  5165  03D5  2BCE               	goto	l2545
  5166  03D6                     l2549:	
  5167  03D6  0842               	movf	___flmul@aexp,w
  5168  03D7  1903               	btfsc	3,2
  5169  03D8  2BDA               	goto	u3391
  5170  03D9  2BDB               	goto	u3390
  5171  03DA                     u3391:	
  5172  03DA  2C0C               	goto	l2559
  5173  03DB                     u3390:	
  5174  03DB                     l2551:	
  5175  03DB  3001               	movlw	1
  5176  03DC  07C4               	addwf	___flmul@prod,f
  5177  03DD  3000               	movlw	0
  5178  03DE  1803               	skipnc
  5179  03DF  3001               	movlw	1
  5180  03E0  07C5               	addwf	___flmul@prod+1,f
  5181  03E1  3000               	movlw	0
  5182  03E2  1803               	skipnc
  5183  03E3  3001               	movlw	1
  5184  03E4  07C6               	addwf	___flmul@prod+2,f
  5185  03E5  3000               	movlw	0
  5186  03E6  1803               	skipnc
  5187  03E7  3001               	movlw	1
  5188  03E8  07C7               	addwf	___flmul@prod+3,f
  5189  03E9                     l2553:	
  5190  03E9  1C47               	btfss	___flmul@prod+3,0
  5191  03EA  2BEC               	goto	u3401
  5192  03EB  2BED               	goto	u3400
  5193  03EC                     u3401:	
  5194  03EC  2C0C               	goto	l2559
  5195  03ED                     u3400:	
  5196  03ED                     l2555:	
  5197  03ED  0844               	movf	___flmul@prod,w
  5198  03EE  00B8               	movwf	??___flmul
  5199  03EF  0845               	movf	___flmul@prod+1,w
  5200  03F0  00B9               	movwf	??___flmul+1
  5201  03F1  0846               	movf	___flmul@prod+2,w
  5202  03F2  00BA               	movwf	??___flmul+2
  5203  03F3  0847               	movf	___flmul@prod+3,w
  5204  03F4  00BB               	movwf	??___flmul+3
  5205  03F5  3001               	movlw	1
  5206  03F6  00BC               	movwf	??___flmul+4
  5207  03F7                     u3415:	
  5208  03F7  0D3B               	rlf	??___flmul+3,w
  5209  03F8  0CBB               	rrf	??___flmul+3,f
  5210  03F9  0CBA               	rrf	??___flmul+2,f
  5211  03FA  0CB9               	rrf	??___flmul+1,f
  5212  03FB  0CB8               	rrf	??___flmul,f
  5213  03FC                     u3410:	
  5214  03FC  0BBC               	decfsz	??___flmul+4,f
  5215  03FD  2BF7               	goto	u3415
  5216  03FE  083B               	movf	??___flmul+3,w
  5217  03FF  00C7               	movwf	___flmul@prod+3
  5218  0400  083A               	movf	??___flmul+2,w
  5219  0401  00C6               	movwf	___flmul@prod+2
  5220  0402  0839               	movf	??___flmul+1,w
  5221  0403  00C5               	movwf	___flmul@prod+1
  5222  0404  0838               	movf	??___flmul,w
  5223  0405  00C4               	movwf	___flmul@prod
  5224  0406                     l2557:	
  5225  0406  3001               	movlw	1
  5226  0407  07C8               	addwf	___flmul@temp,f
  5227  0408  1803               	skipnc
  5228  0409  0AC9               	incf	___flmul@temp+1,f
  5229  040A  3000               	movlw	0
  5230  040B  07C9               	addwf	___flmul@temp+1,f
  5231  040C                     l2559:	
  5232  040C  0849               	movf	___flmul@temp+1,w
  5233  040D  3A80               	xorlw	128
  5234  040E  00FF               	movwf	btemp+1
  5235  040F  3080               	movlw	128
  5236  0410  027F               	subwf	btemp+1,w
  5237  0411  1D03               	skipz
  5238  0412  2C15               	goto	u3425
  5239  0413  30FF               	movlw	255
  5240  0414  0248               	subwf	___flmul@temp,w
  5241  0415                     u3425:	
  5242  0415  1C03               	skipc
  5243  0416  2C18               	goto	u3421
  5244  0417  2C19               	goto	u3420
  5245  0418                     u3421:	
  5246  0418  2C24               	goto	l2563
  5247  0419                     u3420:	
  5248  0419                     l2561:	
  5249  0419  307F               	movlw	127
  5250  041A  1283               	bcf	3,5	;RP0=0, select bank0
  5251  041B  1303               	bcf	3,6	;RP1=0, select bank0
  5252  041C  00C7               	movwf	___flmul@prod+3
  5253  041D  3080               	movlw	128
  5254  041E  00C6               	movwf	___flmul@prod+2
  5255  041F  3000               	movlw	0
  5256  0420  00C5               	movwf	___flmul@prod+1
  5257  0421  3000               	movlw	0
  5258  0422  00C4               	movwf	___flmul@prod
  5259  0423  2C59               	goto	l692
  5260  0424                     l2563:	
  5261  0424  1283               	bcf	3,5	;RP0=0, select bank0
  5262  0425  1303               	bcf	3,6	;RP1=0, select bank0
  5263  0426  0849               	movf	___flmul@temp+1,w
  5264  0427  3A80               	xorlw	128
  5265  0428  00FF               	movwf	btemp+1
  5266  0429  3080               	movlw	128
  5267  042A  027F               	subwf	btemp+1,w
  5268  042B  1D03               	skipz
  5269  042C  2C2F               	goto	u3435
  5270  042D  3001               	movlw	1
  5271  042E  0248               	subwf	___flmul@temp,w
  5272  042F                     u3435:	
  5273  042F  1803               	skipnc
  5274  0430  2C32               	goto	u3431
  5275  0431  2C33               	goto	u3430
  5276  0432                     u3431:	
  5277  0432  2C3F               	goto	l2569
  5278  0433                     u3430:	
  5279  0433                     l2565:	
  5280  0433  3000               	movlw	0
  5281  0434  1283               	bcf	3,5	;RP0=0, select bank0
  5282  0435  1303               	bcf	3,6	;RP1=0, select bank0
  5283  0436  00C7               	movwf	___flmul@prod+3
  5284  0437  3000               	movlw	0
  5285  0438  00C6               	movwf	___flmul@prod+2
  5286  0439  3000               	movlw	0
  5287  043A  00C5               	movwf	___flmul@prod+1
  5288  043B  3000               	movlw	0
  5289  043C  00C4               	movwf	___flmul@prod
  5290  043D                     l2567:	
  5291  043D  01BD               	clrf	___flmul@sign
  5292  043E  2C59               	goto	l692
  5293  043F                     l2569:	
  5294  043F  1283               	bcf	3,5	;RP0=0, select bank0
  5295  0440  1303               	bcf	3,6	;RP1=0, select bank0
  5296  0441  0848               	movf	___flmul@temp,w
  5297  0442  00B8               	movwf	??___flmul
  5298  0443  0838               	movf	??___flmul,w
  5299  0444  00C3               	movwf	___flmul@bexp
  5300  0445  30FF               	movlw	255
  5301  0446  05C4               	andwf	___flmul@prod,f
  5302  0447  30FF               	movlw	255
  5303  0448  05C5               	andwf	___flmul@prod+1,f
  5304  0449  307F               	movlw	127
  5305  044A  05C6               	andwf	___flmul@prod+2,f
  5306  044B  3000               	movlw	0
  5307  044C  05C7               	andwf	___flmul@prod+3,f
  5308  044D                     l2571:	
  5309  044D  1C43               	btfss	___flmul@bexp,0
  5310  044E  2C50               	goto	u3441
  5311  044F  2C51               	goto	u3440
  5312  0450                     u3441:	
  5313  0450  2C52               	goto	l2575
  5314  0451                     u3440:	
  5315  0451                     l2573:	
  5316  0451  17C6               	bsf	___flmul@prod+2,7
  5317  0452                     l2575:	
  5318  0452  0843               	movf	___flmul@bexp,w
  5319  0453  00B8               	movwf	??___flmul
  5320  0454  1003               	clrc
  5321  0455  0C38               	rrf	??___flmul,w
  5322  0456  00B9               	movwf	??___flmul+1
  5323  0457  0839               	movf	??___flmul+1,w
  5324  0458  00C7               	movwf	___flmul@prod+3
  5325  0459                     l692:	
  5326  0459  083D               	movf	___flmul@sign,w
  5327  045A  00B8               	movwf	??___flmul
  5328  045B  0838               	movf	??___flmul,w
  5329  045C  04C7               	iorwf	___flmul@prod+3,f
  5330  045D                     l2577:	
  5331  045D  0847               	movf	___flmul@prod+3,w
  5332  045E  00B3               	movwf	?___flmul+3
  5333  045F  0846               	movf	___flmul@prod+2,w
  5334  0460  00B2               	movwf	?___flmul+2
  5335  0461  0845               	movf	___flmul@prod+1,w
  5336  0462  00B1               	movwf	?___flmul+1
  5337  0463  0844               	movf	___flmul@prod,w
  5338  0464  00B0               	movwf	?___flmul
  5339  0465                     l680:	
  5340  0465  0008               	return
  5341  0466                     __end_of___flmul:	
  5342                           
  5343                           	psect	text12
  5344  0892                     __ptext12:	
  5345 ;; *************** function __Umul8_16 *****************
  5346 ;; Defined at:
  5347 ;;		line 4 in file "C:\Program Files (x86)\Microchip\xc8\v2.10\pic\sources\c90\common\Umul8_16.c"
  5348 ;; Parameters:    Size  Location     Type
  5349 ;;  multiplier      1    wreg     unsigned char 
  5350 ;;  multiplicand    1    0[COMMON] unsigned char 
  5351 ;; Auto vars:     Size  Location     Type
  5352 ;;  multiplier      1    8[COMMON] unsigned char 
  5353 ;;  word_mpld       2    6[COMMON] unsigned int 
  5354 ;;  product         2    4[COMMON] unsigned int 
  5355 ;; Return value:  Size  Location     Type
  5356 ;;                  2    0[COMMON] unsigned int 
  5357 ;; Registers used:
  5358 ;;		wreg, status,2, status,0
  5359 ;; Tracked objects:
  5360 ;;		On entry : 0/0
  5361 ;;		On exit  : 0/0
  5362 ;;		Unchanged: 0/0
  5363 ;; Data sizes:     COMMON   BANK0   BANK1   BANK3   BANK2
  5364 ;;      Params:         2       0       0       0       0
  5365 ;;      Locals:         5       0       0       0       0
  5366 ;;      Temps:          2       0       0       0       0
  5367 ;;      Totals:         9       0       0       0       0
  5368 ;;Total ram usage:        9 bytes
  5369 ;; Hardware stack levels used:    1
  5370 ;; This function calls:
  5371 ;;		Nothing
  5372 ;; This function is called by:
  5373 ;;		___flmul
  5374 ;; This function uses a non-reentrant model
  5375 ;;
  5376                           
  5377                           
  5378                           ;psect for function __Umul8_16
  5379  0892                     __Umul8_16:	
  5380                           
  5381                           ;incstack = 0
  5382                           ; Regs used in __Umul8_16: [wreg+status,2+status,0]
  5383                           ;__Umul8_16@multiplier stored from wreg
  5384  0892  00F8               	movwf	__Umul8_16@multiplier
  5385  0893                     l2105:	
  5386  0893  01F4               	clrf	__Umul8_16@product
  5387  0894  01F5               	clrf	__Umul8_16@product+1
  5388  0895                     l2107:	
  5389  0895  0870               	movf	__Umul8_16@multiplicand,w
  5390  0896  00F2               	movwf	??__Umul8_16
  5391  0897  01F3               	clrf	??__Umul8_16+1
  5392  0898  0872               	movf	??__Umul8_16,w
  5393  0899  00F6               	movwf	__Umul8_16@word_mpld
  5394  089A  0873               	movf	??__Umul8_16+1,w
  5395  089B  00F7               	movwf	__Umul8_16@word_mpld+1
  5396  089C                     l2109:	
  5397  089C  1C78               	btfss	__Umul8_16@multiplier,0
  5398  089D  289F               	goto	u2551
  5399  089E  28A0               	goto	u2550
  5400  089F                     u2551:	
  5401  089F  28A6               	goto	l737
  5402  08A0                     u2550:	
  5403  08A0                     l2111:	
  5404  08A0  0876               	movf	__Umul8_16@word_mpld,w
  5405  08A1  07F4               	addwf	__Umul8_16@product,f
  5406  08A2  1803               	skipnc
  5407  08A3  0AF5               	incf	__Umul8_16@product+1,f
  5408  08A4  0877               	movf	__Umul8_16@word_mpld+1,w
  5409  08A5  07F5               	addwf	__Umul8_16@product+1,f
  5410  08A6                     l737:	
  5411  08A6  3001               	movlw	1
  5412  08A7                     u2565:	
  5413  08A7  1003               	clrc
  5414  08A8  0DF6               	rlf	__Umul8_16@word_mpld,f
  5415  08A9  0DF7               	rlf	__Umul8_16@word_mpld+1,f
  5416  08AA  3EFF               	addlw	-1
  5417  08AB  1D03               	skipz
  5418  08AC  28A7               	goto	u2565
  5419  08AD  1003               	clrc
  5420  08AE  0CF8               	rrf	__Umul8_16@multiplier,f
  5421  08AF                     l2113:	
  5422  08AF  0878               	movf	__Umul8_16@multiplier,w
  5423  08B0  1D03               	btfss	3,2
  5424  08B1  28B3               	goto	u2571
  5425  08B2  28B4               	goto	u2570
  5426  08B3                     u2571:	
  5427  08B3  289C               	goto	l2109
  5428  08B4                     u2570:	
  5429  08B4                     l2115:	
  5430  08B4  0875               	movf	__Umul8_16@product+1,w
  5431  08B5  00F1               	movwf	?__Umul8_16+1
  5432  08B6  0874               	movf	__Umul8_16@product,w
  5433  08B7  00F0               	movwf	?__Umul8_16
  5434  08B8                     l739:	
  5435  08B8  0008               	return
  5436  08B9                     __end_of__Umul8_16:	
  5437                           
  5438                           	psect	text13
  5439  0B8B                     __ptext13:	
  5440 ;; *************** function ___fldiv *****************
  5441 ;; Defined at:
  5442 ;;		line 8 in file "C:\Program Files (x86)\Microchip\xc8\v2.10\pic\sources\c90\common\sprcdiv.c"
  5443 ;; Parameters:    Size  Location     Type
  5444 ;;  a               4   42[BANK0 ] unsigned int 
  5445 ;;  b               4   46[BANK0 ] unsigned int 
  5446 ;; Auto vars:     Size  Location     Type
  5447 ;;  grs             4   62[BANK0 ] unsigned long 
  5448 ;;  rem             4   55[BANK0 ] unsigned long 
  5449 ;;  new_exp         2   60[BANK0 ] int 
  5450 ;;  aexp            1   67[BANK0 ] unsigned char 
  5451 ;;  bexp            1   66[BANK0 ] unsigned char 
  5452 ;;  sign            1   59[BANK0 ] unsigned char 
  5453 ;; Return value:  Size  Location     Type
  5454 ;;                  4   42[BANK0 ] unsigned char 
  5455 ;; Registers used:
  5456 ;;		wreg, status,2, status,0, btemp+1
  5457 ;; Tracked objects:
  5458 ;;		On entry : 0/0
  5459 ;;		On exit  : 0/0
  5460 ;;		Unchanged: 0/0
  5461 ;; Data sizes:     COMMON   BANK0   BANK1   BANK3   BANK2
  5462 ;;      Params:         0       8       0       0       0
  5463 ;;      Locals:         0      13       0       0       0
  5464 ;;      Temps:          0       5       0       0       0
  5465 ;;      Totals:         0      26       0       0       0
  5466 ;;Total ram usage:       26 bytes
  5467 ;; Hardware stack levels used:    1
  5468 ;; This function calls:
  5469 ;;		Nothing
  5470 ;; This function is called by:
  5471 ;;		_main
  5472 ;; This function uses a non-reentrant model
  5473 ;;
  5474                           
  5475                           
  5476                           ;psect for function ___fldiv
  5477  0B8B                     ___fldiv:	
  5478  0B8B                     l2299:	
  5479                           ;incstack = 0
  5480                           ; Regs used in ___fldiv: [wreg+status,2+status,0+btemp+1]
  5481                           
  5482  0B8B  1283               	bcf	3,5	;RP0=0, select bank0
  5483  0B8C  1303               	bcf	3,6	;RP1=0, select bank0
  5484  0B8D  0851               	movf	___fldiv@b+3,w
  5485  0B8E  3980               	andlw	128
  5486  0B8F  00D2               	movwf	??___fldiv
  5487  0B90  0852               	movf	??___fldiv,w
  5488  0B91  00DB               	movwf	___fldiv@sign
  5489  0B92                     l2301:	
  5490  0B92  0851               	movf	___fldiv@b+3,w
  5491  0B93  00D2               	movwf	??___fldiv
  5492  0B94  0752               	addwf	??___fldiv,w
  5493  0B95  00D3               	movwf	??___fldiv+1
  5494  0B96  0853               	movf	??___fldiv+1,w
  5495  0B97  00E2               	movwf	___fldiv@bexp
  5496  0B98                     l2303:	
  5497  0B98  1FD0               	btfss	___fldiv@b+2,7
  5498  0B99  2B9B               	goto	u2791
  5499  0B9A  2B9C               	goto	u2790
  5500  0B9B                     u2791:	
  5501  0B9B  2B9D               	goto	l2307
  5502  0B9C                     u2790:	
  5503  0B9C                     l2305:	
  5504  0B9C  1462               	bsf	___fldiv@bexp,0
  5505  0B9D                     l2307:	
  5506  0B9D  0862               	movf	___fldiv@bexp,w
  5507  0B9E  1903               	btfsc	3,2
  5508  0B9F  2BA1               	goto	u2801
  5509  0BA0  2BA2               	goto	u2800
  5510  0BA1                     u2801:	
  5511  0BA1  2BB2               	goto	l2317
  5512  0BA2                     u2800:	
  5513  0BA2                     l2309:	
  5514  0BA2  0A62               	incf	___fldiv@bexp,w
  5515  0BA3  1D03               	btfss	3,2
  5516  0BA4  2BA6               	goto	u2811
  5517  0BA5  2BA7               	goto	u2810
  5518  0BA6                     u2811:	
  5519  0BA6  2BAF               	goto	l2313
  5520  0BA7                     u2810:	
  5521  0BA7                     l2311:	
  5522  0BA7  3000               	movlw	0
  5523  0BA8  00D1               	movwf	___fldiv@b+3
  5524  0BA9  3000               	movlw	0
  5525  0BAA  00D0               	movwf	___fldiv@b+2
  5526  0BAB  3000               	movlw	0
  5527  0BAC  00CF               	movwf	___fldiv@b+1
  5528  0BAD  3000               	movlw	0
  5529  0BAE  00CE               	movwf	___fldiv@b
  5530  0BAF                     l2313:	
  5531  0BAF  17D0               	bsf	___fldiv@b+2,7
  5532  0BB0                     l2315:	
  5533  0BB0  01D1               	clrf	___fldiv@b+3
  5534  0BB1  2BBA               	goto	l2319
  5535  0BB2                     l2317:	
  5536  0BB2  3000               	movlw	0
  5537  0BB3  00D1               	movwf	___fldiv@b+3
  5538  0BB4  3000               	movlw	0
  5539  0BB5  00D0               	movwf	___fldiv@b+2
  5540  0BB6  3000               	movlw	0
  5541  0BB7  00CF               	movwf	___fldiv@b+1
  5542  0BB8  3000               	movlw	0
  5543  0BB9  00CE               	movwf	___fldiv@b
  5544  0BBA                     l2319:	
  5545  0BBA  084D               	movf	___fldiv@a+3,w
  5546  0BBB  3980               	andlw	128
  5547  0BBC  00D2               	movwf	??___fldiv
  5548  0BBD  0852               	movf	??___fldiv,w
  5549  0BBE  06DB               	xorwf	___fldiv@sign,f
  5550  0BBF                     l2321:	
  5551  0BBF  084D               	movf	___fldiv@a+3,w
  5552  0BC0  00D2               	movwf	??___fldiv
  5553  0BC1  0752               	addwf	??___fldiv,w
  5554  0BC2  00D3               	movwf	??___fldiv+1
  5555  0BC3  0853               	movf	??___fldiv+1,w
  5556  0BC4  00E3               	movwf	___fldiv@aexp
  5557  0BC5                     l2323:	
  5558  0BC5  1FCC               	btfss	___fldiv@a+2,7
  5559  0BC6  2BC8               	goto	u2821
  5560  0BC7  2BC9               	goto	u2820
  5561  0BC8                     u2821:	
  5562  0BC8  2BCA               	goto	l2327
  5563  0BC9                     u2820:	
  5564  0BC9                     l2325:	
  5565  0BC9  1463               	bsf	___fldiv@aexp,0
  5566  0BCA                     l2327:	
  5567  0BCA  0863               	movf	___fldiv@aexp,w
  5568  0BCB  1903               	btfsc	3,2
  5569  0BCC  2BCE               	goto	u2831
  5570  0BCD  2BCF               	goto	u2830
  5571  0BCE                     u2831:	
  5572  0BCE  2BDF               	goto	l2337
  5573  0BCF                     u2830:	
  5574  0BCF                     l2329:	
  5575  0BCF  0A63               	incf	___fldiv@aexp,w
  5576  0BD0  1D03               	btfss	3,2
  5577  0BD1  2BD3               	goto	u2841
  5578  0BD2  2BD4               	goto	u2840
  5579  0BD3                     u2841:	
  5580  0BD3  2BDC               	goto	l2333
  5581  0BD4                     u2840:	
  5582  0BD4                     l2331:	
  5583  0BD4  3000               	movlw	0
  5584  0BD5  00CD               	movwf	___fldiv@a+3
  5585  0BD6  3000               	movlw	0
  5586  0BD7  00CC               	movwf	___fldiv@a+2
  5587  0BD8  3000               	movlw	0
  5588  0BD9  00CB               	movwf	___fldiv@a+1
  5589  0BDA  3000               	movlw	0
  5590  0BDB  00CA               	movwf	___fldiv@a
  5591  0BDC                     l2333:	
  5592  0BDC  17CC               	bsf	___fldiv@a+2,7
  5593  0BDD                     l2335:	
  5594  0BDD  01CD               	clrf	___fldiv@a+3
  5595  0BDE  2BE7               	goto	l640
  5596  0BDF                     l2337:	
  5597  0BDF  3000               	movlw	0
  5598  0BE0  00CD               	movwf	___fldiv@a+3
  5599  0BE1  3000               	movlw	0
  5600  0BE2  00CC               	movwf	___fldiv@a+2
  5601  0BE3  3000               	movlw	0
  5602  0BE4  00CB               	movwf	___fldiv@a+1
  5603  0BE5  3000               	movlw	0
  5604  0BE6  00CA               	movwf	___fldiv@a
  5605  0BE7                     l640:	
  5606  0BE7  084D               	movf	___fldiv@a+3,w
  5607  0BE8  044C               	iorwf	___fldiv@a+2,w
  5608  0BE9  044B               	iorwf	___fldiv@a+1,w
  5609  0BEA  044A               	iorwf	___fldiv@a,w
  5610  0BEB  1D03               	skipz
  5611  0BEC  2BEE               	goto	u2851
  5612  0BED  2BEF               	goto	u2850
  5613  0BEE                     u2851:	
  5614  0BEE  2C08               	goto	l2347
  5615  0BEF                     u2850:	
  5616  0BEF                     l2339:	
  5617  0BEF  3000               	movlw	0
  5618  0BF0  00D1               	movwf	___fldiv@b+3
  5619  0BF1  3000               	movlw	0
  5620  0BF2  00D0               	movwf	___fldiv@b+2
  5621  0BF3  3000               	movlw	0
  5622  0BF4  00CF               	movwf	___fldiv@b+1
  5623  0BF5  3000               	movlw	0
  5624  0BF6  00CE               	movwf	___fldiv@b
  5625  0BF7  3080               	movlw	128
  5626  0BF8  04D0               	iorwf	___fldiv@b+2,f
  5627  0BF9  307F               	movlw	127
  5628  0BFA  04D1               	iorwf	___fldiv@b+3,f
  5629  0BFB                     l2341:	
  5630  0BFB  085B               	movf	___fldiv@sign,w
  5631  0BFC  00D2               	movwf	??___fldiv
  5632  0BFD  0852               	movf	??___fldiv,w
  5633  0BFE  04D1               	iorwf	___fldiv@b+3,f
  5634  0BFF                     l2343:	
  5635  0BFF  0851               	movf	___fldiv@b+3,w
  5636  0C00  00CD               	movwf	?___fldiv+3
  5637  0C01  0850               	movf	___fldiv@b+2,w
  5638  0C02  00CC               	movwf	?___fldiv+2
  5639  0C03  084F               	movf	___fldiv@b+1,w
  5640  0C04  00CB               	movwf	?___fldiv+1
  5641  0C05  084E               	movf	___fldiv@b,w
  5642  0C06  00CA               	movwf	?___fldiv
  5643  0C07  2D67               	goto	l642
  5644  0C08                     l2347:	
  5645  0C08  0862               	movf	___fldiv@bexp,w
  5646  0C09  1D03               	btfss	3,2
  5647  0C0A  2C0C               	goto	u2861
  5648  0C0B  2C0D               	goto	u2860
  5649  0C0C                     u2861:	
  5650  0C0C  2C16               	goto	l2353
  5651  0C0D                     u2860:	
  5652  0C0D                     l2349:	
  5653  0C0D  3000               	movlw	0
  5654  0C0E  00CD               	movwf	?___fldiv+3
  5655  0C0F  3000               	movlw	0
  5656  0C10  00CC               	movwf	?___fldiv+2
  5657  0C11  3000               	movlw	0
  5658  0C12  00CB               	movwf	?___fldiv+1
  5659  0C13  3000               	movlw	0
  5660  0C14  00CA               	movwf	?___fldiv
  5661  0C15  2D67               	goto	l642
  5662  0C16                     l2353:	
  5663  0C16  0862               	movf	___fldiv@bexp,w
  5664  0C17  00D2               	movwf	??___fldiv
  5665  0C18  01D3               	clrf	??___fldiv+1
  5666  0C19  0853               	movf	??___fldiv+1,w
  5667  0C1A  00D5               	movwf	??___fldiv+3
  5668  0C1B  0863               	movf	___fldiv@aexp,w
  5669  0C1C  0252               	subwf	??___fldiv,w
  5670  0C1D  00D4               	movwf	??___fldiv+2
  5671  0C1E  1C03               	skipc
  5672  0C1F  03D5               	decf	??___fldiv+3,f
  5673  0C20  0854               	movf	??___fldiv+2,w
  5674  0C21  3E7F               	addlw	127
  5675  0C22  00DC               	movwf	___fldiv@new_exp
  5676  0C23  0855               	movf	??___fldiv+3,w
  5677  0C24  1803               	skipnc
  5678  0C25  3E01               	addlw	1
  5679  0C26  3E00               	addlw	0
  5680  0C27  00DD               	movwf	___fldiv@new_exp+1
  5681  0C28                     l2355:	
  5682  0C28  0851               	movf	___fldiv@b+3,w
  5683  0C29  00DA               	movwf	___fldiv@rem+3
  5684  0C2A  0850               	movf	___fldiv@b+2,w
  5685  0C2B  00D9               	movwf	___fldiv@rem+2
  5686  0C2C  084F               	movf	___fldiv@b+1,w
  5687  0C2D  00D8               	movwf	___fldiv@rem+1
  5688  0C2E  084E               	movf	___fldiv@b,w
  5689  0C2F  00D7               	movwf	___fldiv@rem
  5690  0C30                     l2357:	
  5691  0C30  3000               	movlw	0
  5692  0C31  00D1               	movwf	___fldiv@b+3
  5693  0C32  3000               	movlw	0
  5694  0C33  00D0               	movwf	___fldiv@b+2
  5695  0C34  3000               	movlw	0
  5696  0C35  00CF               	movwf	___fldiv@b+1
  5697  0C36  3000               	movlw	0
  5698  0C37  00CE               	movwf	___fldiv@b
  5699  0C38                     l2359:	
  5700  0C38  3000               	movlw	0
  5701  0C39  00E1               	movwf	___fldiv@grs+3
  5702  0C3A  3000               	movlw	0
  5703  0C3B  00E0               	movwf	___fldiv@grs+2
  5704  0C3C  3000               	movlw	0
  5705  0C3D  00DF               	movwf	___fldiv@grs+1
  5706  0C3E  3000               	movlw	0
  5707  0C3F  00DE               	movwf	___fldiv@grs
  5708  0C40                     l2361:	
  5709  0C40  01E3               	clrf	___fldiv@aexp
  5710  0C41  2C8C               	goto	l2381
  5711  0C42                     l2363:	
  5712  0C42  0863               	movf	___fldiv@aexp,w
  5713  0C43  1903               	btfsc	3,2
  5714  0C44  2C46               	goto	u2871
  5715  0C45  2C47               	goto	u2870
  5716  0C46                     u2871:	
  5717  0C46  2C67               	goto	l2373
  5718  0C47                     u2870:	
  5719  0C47                     l2365:	
  5720  0C47  3001               	movlw	1
  5721  0C48  00D2               	movwf	??___fldiv
  5722  0C49                     u2885:	
  5723  0C49  1003               	clrc
  5724  0C4A  0DD7               	rlf	___fldiv@rem,f
  5725  0C4B  0DD8               	rlf	___fldiv@rem+1,f
  5726  0C4C  0DD9               	rlf	___fldiv@rem+2,f
  5727  0C4D  0DDA               	rlf	___fldiv@rem+3,f
  5728  0C4E  0BD2               	decfsz	??___fldiv,f
  5729  0C4F  2C49               	goto	u2885
  5730  0C50  3001               	movlw	1
  5731  0C51  00D2               	movwf	??___fldiv
  5732  0C52                     u2895:	
  5733  0C52  1003               	clrc
  5734  0C53  0DCE               	rlf	___fldiv@b,f
  5735  0C54  0DCF               	rlf	___fldiv@b+1,f
  5736  0C55  0DD0               	rlf	___fldiv@b+2,f
  5737  0C56  0DD1               	rlf	___fldiv@b+3,f
  5738  0C57  0BD2               	decfsz	??___fldiv,f
  5739  0C58  2C52               	goto	u2895
  5740  0C59                     l2367:	
  5741  0C59  1FE1               	btfss	___fldiv@grs+3,7
  5742  0C5A  2C5C               	goto	u2901
  5743  0C5B  2C5D               	goto	u2900
  5744  0C5C                     u2901:	
  5745  0C5C  2C5E               	goto	l2371
  5746  0C5D                     u2900:	
  5747  0C5D                     l2369:	
  5748  0C5D  144E               	bsf	___fldiv@b,0
  5749  0C5E                     l2371:	
  5750  0C5E  3001               	movlw	1
  5751  0C5F  00D2               	movwf	??___fldiv
  5752  0C60                     u2915:	
  5753  0C60  1003               	clrc
  5754  0C61  0DDE               	rlf	___fldiv@grs,f
  5755  0C62  0DDF               	rlf	___fldiv@grs+1,f
  5756  0C63  0DE0               	rlf	___fldiv@grs+2,f
  5757  0C64  0DE1               	rlf	___fldiv@grs+3,f
  5758  0C65  0BD2               	decfsz	??___fldiv,f
  5759  0C66  2C60               	goto	u2915
  5760  0C67                     l2373:	
  5761  0C67  084D               	movf	___fldiv@a+3,w
  5762  0C68  025A               	subwf	___fldiv@rem+3,w
  5763  0C69  1D03               	skipz
  5764  0C6A  2C75               	goto	u2925
  5765  0C6B  084C               	movf	___fldiv@a+2,w
  5766  0C6C  0259               	subwf	___fldiv@rem+2,w
  5767  0C6D  1D03               	skipz
  5768  0C6E  2C75               	goto	u2925
  5769  0C6F  084B               	movf	___fldiv@a+1,w
  5770  0C70  0258               	subwf	___fldiv@rem+1,w
  5771  0C71  1D03               	skipz
  5772  0C72  2C75               	goto	u2925
  5773  0C73  084A               	movf	___fldiv@a,w
  5774  0C74  0257               	subwf	___fldiv@rem,w
  5775  0C75                     u2925:	
  5776  0C75  1C03               	skipc
  5777  0C76  2C78               	goto	u2921
  5778  0C77  2C79               	goto	u2920
  5779  0C78                     u2921:	
  5780  0C78  2C88               	goto	l2379
  5781  0C79                     u2920:	
  5782  0C79                     l2375:	
  5783  0C79  1761               	bsf	___fldiv@grs+3,6
  5784  0C7A                     l2377:	
  5785  0C7A  084A               	movf	___fldiv@a,w
  5786  0C7B  02D7               	subwf	___fldiv@rem,f
  5787  0C7C  084B               	movf	___fldiv@a+1,w
  5788  0C7D  1C03               	skipc
  5789  0C7E  0F4B               	incfsz	___fldiv@a+1,w
  5790  0C7F  02D8               	subwf	___fldiv@rem+1,f
  5791  0C80  084C               	movf	___fldiv@a+2,w
  5792  0C81  1C03               	skipc
  5793  0C82  0F4C               	incfsz	___fldiv@a+2,w
  5794  0C83  02D9               	subwf	___fldiv@rem+2,f
  5795  0C84  084D               	movf	___fldiv@a+3,w
  5796  0C85  1C03               	skipc
  5797  0C86  0F4D               	incfsz	___fldiv@a+3,w
  5798  0C87  02DA               	subwf	___fldiv@rem+3,f
  5799  0C88                     l2379:	
  5800  0C88  3001               	movlw	1
  5801  0C89  00D2               	movwf	??___fldiv
  5802  0C8A  0852               	movf	??___fldiv,w
  5803  0C8B  07E3               	addwf	___fldiv@aexp,f
  5804  0C8C                     l2381:	
  5805  0C8C  301A               	movlw	26
  5806  0C8D  0263               	subwf	___fldiv@aexp,w
  5807  0C8E  1C03               	skipc
  5808  0C8F  2C91               	goto	u2931
  5809  0C90  2C92               	goto	u2930
  5810  0C91                     u2931:	
  5811  0C91  2C42               	goto	l2363
  5812  0C92                     u2930:	
  5813  0C92                     l2383:	
  5814  0C92  085A               	movf	___fldiv@rem+3,w
  5815  0C93  0459               	iorwf	___fldiv@rem+2,w
  5816  0C94  0458               	iorwf	___fldiv@rem+1,w
  5817  0C95  0457               	iorwf	___fldiv@rem,w
  5818  0C96  1903               	skipnz
  5819  0C97  2C99               	goto	u2941
  5820  0C98  2C9A               	goto	u2940
  5821  0C99                     u2941:	
  5822  0C99  2CB9               	goto	l2397
  5823  0C9A                     u2940:	
  5824  0C9A                     l2385:	
  5825  0C9A  145E               	bsf	___fldiv@grs,0
  5826  0C9B  2CB9               	goto	l2397
  5827  0C9C                     l2387:	
  5828  0C9C  3001               	movlw	1
  5829  0C9D  00D2               	movwf	??___fldiv
  5830  0C9E                     u2955:	
  5831  0C9E  1003               	clrc
  5832  0C9F  0DCE               	rlf	___fldiv@b,f
  5833  0CA0  0DCF               	rlf	___fldiv@b+1,f
  5834  0CA1  0DD0               	rlf	___fldiv@b+2,f
  5835  0CA2  0DD1               	rlf	___fldiv@b+3,f
  5836  0CA3  0BD2               	decfsz	??___fldiv,f
  5837  0CA4  2C9E               	goto	u2955
  5838  0CA5                     l2389:	
  5839  0CA5  1FE1               	btfss	___fldiv@grs+3,7
  5840  0CA6  2CA8               	goto	u2961
  5841  0CA7  2CA9               	goto	u2960
  5842  0CA8                     u2961:	
  5843  0CA8  2CAA               	goto	l2393
  5844  0CA9                     u2960:	
  5845  0CA9                     l2391:	
  5846  0CA9  144E               	bsf	___fldiv@b,0
  5847  0CAA                     l2393:	
  5848  0CAA  3001               	movlw	1
  5849  0CAB  00D2               	movwf	??___fldiv
  5850  0CAC                     u2975:	
  5851  0CAC  1003               	clrc
  5852  0CAD  0DDE               	rlf	___fldiv@grs,f
  5853  0CAE  0DDF               	rlf	___fldiv@grs+1,f
  5854  0CAF  0DE0               	rlf	___fldiv@grs+2,f
  5855  0CB0  0DE1               	rlf	___fldiv@grs+3,f
  5856  0CB1  0BD2               	decfsz	??___fldiv,f
  5857  0CB2  2CAC               	goto	u2975
  5858  0CB3                     l2395:	
  5859  0CB3  30FF               	movlw	255
  5860  0CB4  07DC               	addwf	___fldiv@new_exp,f
  5861  0CB5  1803               	skipnc
  5862  0CB6  0ADD               	incf	___fldiv@new_exp+1,f
  5863  0CB7  30FF               	movlw	255
  5864  0CB8  07DD               	addwf	___fldiv@new_exp+1,f
  5865  0CB9                     l2397:	
  5866  0CB9  1FD0               	btfss	___fldiv@b+2,7
  5867  0CBA  2CBC               	goto	u2981
  5868  0CBB  2CBD               	goto	u2980
  5869  0CBC                     u2981:	
  5870  0CBC  2C9C               	goto	l2387
  5871  0CBD                     u2980:	
  5872  0CBD                     l2399:	
  5873  0CBD  01E3               	clrf	___fldiv@aexp
  5874  0CBE                     l2401:	
  5875  0CBE  1FE1               	btfss	___fldiv@grs+3,7
  5876  0CBF  2CC1               	goto	u2991
  5877  0CC0  2CC2               	goto	u2990
  5878  0CC1                     u2991:	
  5879  0CC1  2CDE               	goto	l2409
  5880  0CC2                     u2990:	
  5881  0CC2                     l2403:	
  5882  0CC2  30FF               	movlw	255
  5883  0CC3  055E               	andwf	___fldiv@grs,w
  5884  0CC4  00D2               	movwf	??___fldiv
  5885  0CC5  30FF               	movlw	255
  5886  0CC6  055F               	andwf	___fldiv@grs+1,w
  5887  0CC7  00D3               	movwf	??___fldiv+1
  5888  0CC8  30FF               	movlw	255
  5889  0CC9  0560               	andwf	___fldiv@grs+2,w
  5890  0CCA  00D4               	movwf	??___fldiv+2
  5891  0CCB  307F               	movlw	127
  5892  0CCC  0561               	andwf	___fldiv@grs+3,w
  5893  0CCD  00D5               	movwf	??___fldiv+3
  5894  0CCE  0855               	movf	??___fldiv+3,w
  5895  0CCF  0454               	iorwf	??___fldiv+2,w
  5896  0CD0  0453               	iorwf	??___fldiv+1,w
  5897  0CD1  0452               	iorwf	??___fldiv,w
  5898  0CD2  1903               	skipnz
  5899  0CD3  2CD5               	goto	u3001
  5900  0CD4  2CD6               	goto	u3000
  5901  0CD5                     u3001:	
  5902  0CD5  2CD9               	goto	l656
  5903  0CD6                     u3000:	
  5904  0CD6                     l2405:	
  5905  0CD6  01E3               	clrf	___fldiv@aexp
  5906  0CD7  0AE3               	incf	___fldiv@aexp,f
  5907  0CD8  2CDE               	goto	l2409
  5908  0CD9                     l656:	
  5909  0CD9  1C4E               	btfss	___fldiv@b,0
  5910  0CDA  2CDC               	goto	u3011
  5911  0CDB  2CDD               	goto	u3010
  5912  0CDC                     u3011:	
  5913  0CDC  2CDE               	goto	l2409
  5914  0CDD                     u3010:	
  5915  0CDD  2CD6               	goto	l2405
  5916  0CDE                     l2409:	
  5917  0CDE  0863               	movf	___fldiv@aexp,w
  5918  0CDF  1903               	btfsc	3,2
  5919  0CE0  2CE2               	goto	u3021
  5920  0CE1  2CE3               	goto	u3020
  5921  0CE2                     u3021:	
  5922  0CE2  2D14               	goto	l2419
  5923  0CE3                     u3020:	
  5924  0CE3                     l2411:	
  5925  0CE3  3001               	movlw	1
  5926  0CE4  07CE               	addwf	___fldiv@b,f
  5927  0CE5  3000               	movlw	0
  5928  0CE6  1803               	skipnc
  5929  0CE7  3001               	movlw	1
  5930  0CE8  07CF               	addwf	___fldiv@b+1,f
  5931  0CE9  3000               	movlw	0
  5932  0CEA  1803               	skipnc
  5933  0CEB  3001               	movlw	1
  5934  0CEC  07D0               	addwf	___fldiv@b+2,f
  5935  0CED  3000               	movlw	0
  5936  0CEE  1803               	skipnc
  5937  0CEF  3001               	movlw	1
  5938  0CF0  07D1               	addwf	___fldiv@b+3,f
  5939  0CF1                     l2413:	
  5940  0CF1  1C51               	btfss	___fldiv@b+3,0
  5941  0CF2  2CF4               	goto	u3031
  5942  0CF3  2CF5               	goto	u3030
  5943  0CF4                     u3031:	
  5944  0CF4  2D14               	goto	l2419
  5945  0CF5                     u3030:	
  5946  0CF5                     l2415:	
  5947  0CF5  084E               	movf	___fldiv@b,w
  5948  0CF6  00D2               	movwf	??___fldiv
  5949  0CF7  084F               	movf	___fldiv@b+1,w
  5950  0CF8  00D3               	movwf	??___fldiv+1
  5951  0CF9  0850               	movf	___fldiv@b+2,w
  5952  0CFA  00D4               	movwf	??___fldiv+2
  5953  0CFB  0851               	movf	___fldiv@b+3,w
  5954  0CFC  00D5               	movwf	??___fldiv+3
  5955  0CFD  3001               	movlw	1
  5956  0CFE  00D6               	movwf	??___fldiv+4
  5957  0CFF                     u3045:	
  5958  0CFF  0D55               	rlf	??___fldiv+3,w
  5959  0D00  0CD5               	rrf	??___fldiv+3,f
  5960  0D01  0CD4               	rrf	??___fldiv+2,f
  5961  0D02  0CD3               	rrf	??___fldiv+1,f
  5962  0D03  0CD2               	rrf	??___fldiv,f
  5963  0D04                     u3040:	
  5964  0D04  0BD6               	decfsz	??___fldiv+4,f
  5965  0D05  2CFF               	goto	u3045
  5966  0D06  0855               	movf	??___fldiv+3,w
  5967  0D07  00D1               	movwf	___fldiv@b+3
  5968  0D08  0854               	movf	??___fldiv+2,w
  5969  0D09  00D0               	movwf	___fldiv@b+2
  5970  0D0A  0853               	movf	??___fldiv+1,w
  5971  0D0B  00CF               	movwf	___fldiv@b+1
  5972  0D0C  0852               	movf	??___fldiv,w
  5973  0D0D  00CE               	movwf	___fldiv@b
  5974  0D0E                     l2417:	
  5975  0D0E  3001               	movlw	1
  5976  0D0F  07DC               	addwf	___fldiv@new_exp,f
  5977  0D10  1803               	skipnc
  5978  0D11  0ADD               	incf	___fldiv@new_exp+1,f
  5979  0D12  3000               	movlw	0
  5980  0D13  07DD               	addwf	___fldiv@new_exp+1,f
  5981  0D14                     l2419:	
  5982  0D14  085D               	movf	___fldiv@new_exp+1,w
  5983  0D15  3A80               	xorlw	128
  5984  0D16  00FF               	movwf	btemp+1
  5985  0D17  3080               	movlw	128
  5986  0D18  027F               	subwf	btemp+1,w
  5987  0D19  1D03               	skipz
  5988  0D1A  2D1D               	goto	u3055
  5989  0D1B  30FF               	movlw	255
  5990  0D1C  025C               	subwf	___fldiv@new_exp,w
  5991  0D1D                     u3055:	
  5992  0D1D  1C03               	skipc
  5993  0D1E  2D20               	goto	u3051
  5994  0D1F  2D21               	goto	u3050
  5995  0D20                     u3051:	
  5996  0D20  2D2F               	goto	l2423
  5997  0D21                     u3050:	
  5998  0D21                     l2421:	
  5999  0D21  30FF               	movlw	255
  6000  0D22  1283               	bcf	3,5	;RP0=0, select bank0
  6001  0D23  1303               	bcf	3,6	;RP1=0, select bank0
  6002  0D24  00DC               	movwf	___fldiv@new_exp
  6003  0D25  3000               	movlw	0
  6004  0D26  00DD               	movwf	___fldiv@new_exp+1
  6005  0D27  3000               	movlw	0
  6006  0D28  00D1               	movwf	___fldiv@b+3
  6007  0D29  3000               	movlw	0
  6008  0D2A  00D0               	movwf	___fldiv@b+2
  6009  0D2B  3000               	movlw	0
  6010  0D2C  00CF               	movwf	___fldiv@b+1
  6011  0D2D  3000               	movlw	0
  6012  0D2E  00CE               	movwf	___fldiv@b
  6013  0D2F                     l2423:	
  6014  0D2F  1283               	bcf	3,5	;RP0=0, select bank0
  6015  0D30  1303               	bcf	3,6	;RP1=0, select bank0
  6016  0D31  085D               	movf	___fldiv@new_exp+1,w
  6017  0D32  3A80               	xorlw	128
  6018  0D33  00FF               	movwf	btemp+1
  6019  0D34  3080               	movlw	128
  6020  0D35  027F               	subwf	btemp+1,w
  6021  0D36  1D03               	skipz
  6022  0D37  2D3A               	goto	u3065
  6023  0D38  3001               	movlw	1
  6024  0D39  025C               	subwf	___fldiv@new_exp,w
  6025  0D3A                     u3065:	
  6026  0D3A  1803               	skipnc
  6027  0D3B  2D3D               	goto	u3061
  6028  0D3C  2D3E               	goto	u3060
  6029  0D3D                     u3061:	
  6030  0D3D  2D4B               	goto	l662
  6031  0D3E                     u3060:	
  6032  0D3E                     l2425:	
  6033  0D3E  1283               	bcf	3,5	;RP0=0, select bank0
  6034  0D3F  1303               	bcf	3,6	;RP1=0, select bank0
  6035  0D40  01DC               	clrf	___fldiv@new_exp
  6036  0D41  01DD               	clrf	___fldiv@new_exp+1
  6037  0D42                     l2427:	
  6038  0D42  3000               	movlw	0
  6039  0D43  00D1               	movwf	___fldiv@b+3
  6040  0D44  3000               	movlw	0
  6041  0D45  00D0               	movwf	___fldiv@b+2
  6042  0D46  3000               	movlw	0
  6043  0D47  00CF               	movwf	___fldiv@b+1
  6044  0D48  3000               	movlw	0
  6045  0D49  00CE               	movwf	___fldiv@b
  6046  0D4A                     l2429:	
  6047  0D4A  01DB               	clrf	___fldiv@sign
  6048  0D4B                     l662:	
  6049  0D4B  1283               	bcf	3,5	;RP0=0, select bank0
  6050  0D4C  1303               	bcf	3,6	;RP1=0, select bank0
  6051  0D4D  085C               	movf	___fldiv@new_exp,w
  6052  0D4E  00D2               	movwf	??___fldiv
  6053  0D4F  0852               	movf	??___fldiv,w
  6054  0D50  00E2               	movwf	___fldiv@bexp
  6055  0D51                     l2431:	
  6056  0D51  1C62               	btfss	___fldiv@bexp,0
  6057  0D52  2D54               	goto	u3071
  6058  0D53  2D55               	goto	u3070
  6059  0D54                     u3071:	
  6060  0D54  2D57               	goto	l2435
  6061  0D55                     u3070:	
  6062  0D55                     l2433:	
  6063  0D55  17D0               	bsf	___fldiv@b+2,7
  6064  0D56  2D5B               	goto	l664
  6065  0D57                     l2435:	
  6066  0D57  307F               	movlw	127
  6067  0D58  00D2               	movwf	??___fldiv
  6068  0D59  0852               	movf	??___fldiv,w
  6069  0D5A  05D0               	andwf	___fldiv@b+2,f
  6070  0D5B                     l664:	
  6071  0D5B  0862               	movf	___fldiv@bexp,w
  6072  0D5C  00D2               	movwf	??___fldiv
  6073  0D5D  1003               	clrc
  6074  0D5E  0C52               	rrf	??___fldiv,w
  6075  0D5F  00D3               	movwf	??___fldiv+1
  6076  0D60  0853               	movf	??___fldiv+1,w
  6077  0D61  00D1               	movwf	___fldiv@b+3
  6078  0D62  085B               	movf	___fldiv@sign,w
  6079  0D63  00D2               	movwf	??___fldiv
  6080  0D64  0852               	movf	??___fldiv,w
  6081  0D65  04D1               	iorwf	___fldiv@b+3,f
  6082  0D66  2BFF               	goto	l2343
  6083  0D67                     l642:	
  6084  0D67  0008               	return
  6085  0D68                     __end_of___fldiv:	
  6086                           
  6087                           	psect	text14
  6088  086C                     __ptext14:	
  6089 ;; *************** function _LCDisplay *****************
  6090 ;; Defined at:
  6091 ;;		line 46 in file "LCD.c"
  6092 ;; Parameters:    Size  Location     Type
  6093 ;;  val             2    3[COMMON] PTR unsigned char 
  6094 ;;		 -> STR_15(2), STR_14(2), STR_13(2), STR_12(2), 
  6095 ;;		 -> STR_11(2), STR_10(2), STR_9(2), decpot1(2), 
  6096 ;;		 -> potStr1(3), contStr(1), min1(2), sec1(2), 
  6097 ;;		 -> STR_3(6), STR_2(6), STR_1(4), 
  6098 ;; Auto vars:     Size  Location     Type
  6099 ;;		None
  6100 ;; Return value:  Size  Location     Type
  6101 ;;                  1    wreg      void 
  6102 ;; Registers used:
  6103 ;;		wreg, fsr0l, fsr0h, status,2, status,0, btemp+1, pclath, cstack
  6104 ;; Tracked objects:
  6105 ;;		On entry : 0/0
  6106 ;;		On exit  : 0/0
  6107 ;;		Unchanged: 0/0
  6108 ;; Data sizes:     COMMON   BANK0   BANK1   BANK3   BANK2
  6109 ;;      Params:         2       0       0       0       0
  6110 ;;      Locals:         0       0       0       0       0
  6111 ;;      Temps:          0       0       0       0       0
  6112 ;;      Totals:         2       0       0       0       0
  6113 ;;Total ram usage:        2 bytes
  6114 ;; Hardware stack levels used:    1
  6115 ;; Hardware stack levels required when called:    1
  6116 ;; This function calls:
  6117 ;;		_LCDwrite
  6118 ;; This function is called by:
  6119 ;;		_main
  6120 ;; This function uses a non-reentrant model
  6121 ;;
  6122                           
  6123                           
  6124                           ;psect for function _LCDisplay
  6125  086C                     _LCDisplay:	
  6126  086C                     l2155:	
  6127                           ;incstack = 0
  6128                           ; Regs used in _LCDisplay: [wreg-fsr0h+status,2+status,0+btemp+1+pclath+cstack]
  6129                           
  6130                           
  6131                           ;LCD.c: 47:     while(*val){
  6132  086C  2881               	goto	l2161
  6133  086D                     l2157:	
  6134                           
  6135                           ;LCD.c: 48:         LCDwrite(*val++);
  6136  086D  0874               	movf	LCDisplay@val+1,w
  6137  086E  00FF               	movwf	btemp+1
  6138  086F  0873               	movf	LCDisplay@val,w
  6139  0870  0084               	movwf	4
  6140  0871  120A  158A  2000  120A  158A  	fcall	stringtab
  6141  0876  120A  118A  2009  120A  158A  	fcall	_LCDwrite
  6142  087B                     l2159:	
  6143  087B  3001               	movlw	1
  6144  087C  07F3               	addwf	LCDisplay@val,f
  6145  087D  1803               	skipnc
  6146  087E  0AF4               	incf	LCDisplay@val+1,f
  6147  087F  3000               	movlw	0
  6148  0880  07F4               	addwf	LCDisplay@val+1,f
  6149  0881                     l2161:	
  6150                           
  6151                           ;LCD.c: 47:     while(*val){
  6152  0881  0874               	movf	LCDisplay@val+1,w
  6153  0882  1283               	bcf	3,5	;RP0=0, select bank0
  6154  0883  1303               	bcf	3,6	;RP1=0, select bank0
  6155  0884  00FF               	movwf	btemp+1
  6156  0885  0873               	movf	LCDisplay@val,w
  6157  0886  0084               	movwf	4
  6158  0887  120A  158A  2000  120A  158A  	fcall	stringtab
  6159  088C  3A00               	xorlw	0
  6160  088D  1D03               	skipz
  6161  088E  2890               	goto	u2601
  6162  088F  2891               	goto	u2600
  6163  0890                     u2601:	
  6164  0890  286D               	goto	l2157
  6165  0891                     u2600:	
  6166  0891                     l116:	
  6167  0891  0008               	return
  6168  0892                     __end_of_LCDisplay:	
  6169                           
  6170                           	psect	text15
  6171  0009                     __ptext15:	
  6172 ;; *************** function _LCDwrite *****************
  6173 ;; Defined at:
  6174 ;;		line 38 in file "LCD.c"
  6175 ;; Parameters:    Size  Location     Type
  6176 ;;  dato            1    wreg     unsigned char 
  6177 ;; Auto vars:     Size  Location     Type
  6178 ;;  dato            1    2[COMMON] unsigned char 
  6179 ;; Return value:  Size  Location     Type
  6180 ;;                  1    wreg      void 
  6181 ;; Registers used:
  6182 ;;		wreg
  6183 ;; Tracked objects:
  6184 ;;		On entry : 0/0
  6185 ;;		On exit  : 0/0
  6186 ;;		Unchanged: 0/0
  6187 ;; Data sizes:     COMMON   BANK0   BANK1   BANK3   BANK2
  6188 ;;      Params:         0       0       0       0       0
  6189 ;;      Locals:         1       0       0       0       0
  6190 ;;      Temps:          2       0       0       0       0
  6191 ;;      Totals:         3       0       0       0       0
  6192 ;;Total ram usage:        3 bytes
  6193 ;; Hardware stack levels used:    1
  6194 ;; This function calls:
  6195 ;;		Nothing
  6196 ;; This function is called by:
  6197 ;;		_LCDisplay
  6198 ;; This function uses a non-reentrant model
  6199 ;;
  6200                           
  6201                           
  6202                           ;psect for function _LCDwrite
  6203  0009                     _LCDwrite:	
  6204                           
  6205                           ;incstack = 0
  6206                           ; Regs used in _LCDwrite: [wreg]
  6207                           ;LCDwrite@dato stored from wreg
  6208  0009  00F2               	movwf	LCDwrite@dato
  6209  000A                     l1837:	
  6210                           
  6211                           ;LCD.c: 39:     PORTD = dato;
  6212  000A  0872               	movf	LCDwrite@dato,w
  6213  000B  1283               	bcf	3,5	;RP0=0, select bank0
  6214  000C  1303               	bcf	3,6	;RP1=0, select bank0
  6215  000D  0088               	movwf	8	;volatile
  6216  000E                     l1839:	
  6217                           
  6218                           ;LCD.c: 40:     PORTBbits.RB1 = 1;
  6219  000E  1486               	bsf	6,1	;volatile
  6220  000F                     l1841:	
  6221                           
  6222                           ;LCD.c: 41:     PORTBbits.RB0 = 1;
  6223  000F  1406               	bsf	6,0	;volatile
  6224                           
  6225                           ;LCD.c: 42:     _delay((unsigned long)((4)*(4000000/4000.0)));
  6226  0010  3006               	movlw	6
  6227  0011  00F1               	movwf	??_LCDwrite+1
  6228  0012  3030               	movlw	48
  6229  0013  00F0               	movwf	??_LCDwrite
  6230  0014                     u3677:	
  6231  0014  0BF0               	decfsz	??_LCDwrite,f
  6232  0015  2814               	goto	u3677
  6233  0016  0BF1               	decfsz	??_LCDwrite+1,f
  6234  0017  2814               	goto	u3677
  6235  0018  0000               	nop
  6236  0019                     l1843:	
  6237                           
  6238                           ;LCD.c: 43:     PORTBbits.RB0 = 0;
  6239  0019  1283               	bcf	3,5	;RP0=0, select bank0
  6240  001A  1303               	bcf	3,6	;RP1=0, select bank0
  6241  001B  1006               	bcf	6,0	;volatile
  6242  001C                     l110:	
  6243  001C  0008               	return
  6244  001D                     __end_of_LCDwrite:	
  6245                           
  6246                           	psect	text16
  6247  177D                     __ptext16:	
  6248 ;; *************** function _LCDcursorSet *****************
  6249 ;; Defined at:
  6250 ;;		line 52 in file "LCD.c"
  6251 ;; Parameters:    Size  Location     Type
  6252 ;;  row             1    wreg     unsigned char 
  6253 ;;  column          1    3[COMMON] unsigned char 
  6254 ;; Auto vars:     Size  Location     Type
  6255 ;;  row             1    4[COMMON] unsigned char 
  6256 ;; Return value:  Size  Location     Type
  6257 ;;                  1    wreg      void 
  6258 ;; Registers used:
  6259 ;;		wreg, status,2, status,0, pclath, cstack
  6260 ;; Tracked objects:
  6261 ;;		On entry : 0/0
  6262 ;;		On exit  : 0/0
  6263 ;;		Unchanged: 0/0
  6264 ;; Data sizes:     COMMON   BANK0   BANK1   BANK3   BANK2
  6265 ;;      Params:         1       0       0       0       0
  6266 ;;      Locals:         1       0       0       0       0
  6267 ;;      Temps:          0       0       0       0       0
  6268 ;;      Totals:         2       0       0       0       0
  6269 ;;Total ram usage:        2 bytes
  6270 ;; Hardware stack levels used:    1
  6271 ;; Hardware stack levels required when called:    1
  6272 ;; This function calls:
  6273 ;;		_LCDcmd
  6274 ;; This function is called by:
  6275 ;;		_main
  6276 ;; This function uses a non-reentrant model
  6277 ;;
  6278                           
  6279                           
  6280                           ;psect for function _LCDcursorSet
  6281  177D                     _LCDcursorSet:	
  6282                           
  6283                           ;incstack = 0
  6284                           ; Regs used in _LCDcursorSet: [wreg+status,2+status,0+pclath+cstack]
  6285                           ;LCDcursorSet@row stored from wreg
  6286  177D  00F4               	movwf	LCDcursorSet@row
  6287  177E                     l2147:	
  6288                           
  6289                           ;LCD.c: 53:     if (row == 1){
  6290  177E  0374               	decf	LCDcursorSet@row,w
  6291  177F  1D03               	btfss	3,2
  6292  1780  2F82               	goto	u2581
  6293  1781  2F83               	goto	u2580
  6294  1782                     u2581:	
  6295  1782  2F8B               	goto	l2151
  6296  1783                     u2580:	
  6297  1783                     l2149:	
  6298                           
  6299                           ;LCD.c: 54:         LCDcmd(0x80 + column);
  6300  1783  0873               	movf	LCDcursorSet@column,w
  6301  1784  3E80               	addlw	128
  6302  1785  120A  158A  2033  160A  118A  	fcall	_LCDcmd
  6303                           
  6304                           ;LCD.c: 55:     } else if(row == 2){
  6305  178A  2F98               	goto	l122
  6306  178B                     l2151:	
  6307  178B  3002               	movlw	2
  6308  178C  0674               	xorwf	LCDcursorSet@row,w
  6309  178D  1D03               	btfss	3,2
  6310  178E  2F90               	goto	u2591
  6311  178F  2F91               	goto	u2590
  6312  1790                     u2591:	
  6313  1790  2F98               	goto	l122
  6314  1791                     u2590:	
  6315  1791                     l2153:	
  6316                           
  6317                           ;LCD.c: 56:         LCDcmd(0xC0 + column);
  6318  1791  0873               	movf	LCDcursorSet@column,w
  6319  1792  3EC0               	addlw	192
  6320  1793  120A  158A  2033  160A  118A  	fcall	_LCDcmd
  6321  1798                     l122:	
  6322  1798  0008               	return
  6323  1799                     __end_of_LCDcursorSet:	
  6324                           
  6325                           	psect	text17
  6326  099D                     __ptext17:	
  6327 ;; *************** function _LCD8bits_init *****************
  6328 ;; Defined at:
  6329 ;;		line 14 in file "LCD.c"
  6330 ;; Parameters:    Size  Location     Type
  6331 ;;		None
  6332 ;; Auto vars:     Size  Location     Type
  6333 ;;		None
  6334 ;; Return value:  Size  Location     Type
  6335 ;;                  1    wreg      void 
  6336 ;; Registers used:
  6337 ;;		wreg, status,2, status,0, pclath, cstack
  6338 ;; Tracked objects:
  6339 ;;		On entry : 0/0
  6340 ;;		On exit  : 0/0
  6341 ;;		Unchanged: 0/0
  6342 ;; Data sizes:     COMMON   BANK0   BANK1   BANK3   BANK2
  6343 ;;      Params:         0       0       0       0       0
  6344 ;;      Locals:         0       0       0       0       0
  6345 ;;      Temps:          2       0       0       0       0
  6346 ;;      Totals:         2       0       0       0       0
  6347 ;;Total ram usage:        2 bytes
  6348 ;; Hardware stack levels used:    1
  6349 ;; Hardware stack levels required when called:    1
  6350 ;; This function calls:
  6351 ;;		_LCDcmd
  6352 ;; This function is called by:
  6353 ;;		_main
  6354 ;; This function uses a non-reentrant model
  6355 ;;
  6356                           
  6357                           
  6358                           ;psect for function _LCD8bits_init
  6359  099D                     _LCD8bits_init:	
  6360  099D                     l2127:	
  6361                           ;incstack = 0
  6362                           ; Regs used in _LCD8bits_init: [wreg+status,2+status,0+pclath+cstack]
  6363                           
  6364                           
  6365                           ;LCD.c: 15:     _delay((unsigned long)((15)*(4000000/4000.0)));
  6366  099D  3014               	movlw	20
  6367  099E  00F4               	movwf	??_LCD8bits_init+1
  6368  099F  3079               	movlw	121
  6369  09A0  00F3               	movwf	??_LCD8bits_init
  6370  09A1                     u3687:	
  6371  09A1  0BF3               	decfsz	??_LCD8bits_init,f
  6372  09A2  29A1               	goto	u3687
  6373  09A3  0BF4               	decfsz	??_LCD8bits_init+1,f
  6374  09A4  29A1               	goto	u3687
  6375  09A5  29A6               	nop2
  6376  09A6                     l2129:	
  6377                           
  6378                           ;LCD.c: 16:     LCDcmd(0x030);
  6379  09A6  3030               	movlw	48
  6380  09A7  120A  158A  2033  120A  158A  	fcall	_LCDcmd
  6381  09AC                     l2131:	
  6382                           
  6383                           ;LCD.c: 17:     _delay((unsigned long)((5)*(4000000/4000.0)));
  6384  09AC  3007               	movlw	7
  6385  09AD  00F4               	movwf	??_LCD8bits_init+1
  6386  09AE  307D               	movlw	125
  6387  09AF  00F3               	movwf	??_LCD8bits_init
  6388  09B0                     u3697:	
  6389  09B0  0BF3               	decfsz	??_LCD8bits_init,f
  6390  09B1  29B0               	goto	u3697
  6391  09B2  0BF4               	decfsz	??_LCD8bits_init+1,f
  6392  09B3  29B0               	goto	u3697
  6393                           
  6394                           ;LCD.c: 18:     LCDcmd(0x030);
  6395  09B4  3030               	movlw	48
  6396  09B5  120A  158A  2033  120A  158A  	fcall	_LCDcmd
  6397  09BA                     l2133:	
  6398                           
  6399                           ;LCD.c: 19:     _delay((unsigned long)((11)*(4000000/4000.0)));
  6400  09BA  300F               	movlw	15
  6401  09BB  00F4               	movwf	??_LCD8bits_init+1
  6402  09BC  3047               	movlw	71
  6403  09BD  00F3               	movwf	??_LCD8bits_init
  6404  09BE                     u3707:	
  6405  09BE  0BF3               	decfsz	??_LCD8bits_init,f
  6406  09BF  29BE               	goto	u3707
  6407  09C0  0BF4               	decfsz	??_LCD8bits_init+1,f
  6408  09C1  29BE               	goto	u3707
  6409  09C2  29C3               	nop2
  6410  09C3                     l2135:	
  6411                           
  6412                           ;LCD.c: 20:     LCDcmd(0x030);
  6413  09C3  3030               	movlw	48
  6414  09C4  120A  158A  2033  120A  158A  	fcall	_LCDcmd
  6415                           
  6416                           ;LCD.c: 21:     _delay((unsigned long)((160)*(4000000/4000.0)));
  6417  09C9  30D0               	movlw	208
  6418  09CA  00F4               	movwf	??_LCD8bits_init+1
  6419  09CB  30C9               	movlw	201
  6420  09CC  00F3               	movwf	??_LCD8bits_init
  6421  09CD                     u3717:	
  6422  09CD  0BF3               	decfsz	??_LCD8bits_init,f
  6423  09CE  29CD               	goto	u3717
  6424  09CF  0BF4               	decfsz	??_LCD8bits_init+1,f
  6425  09D0  29CD               	goto	u3717
  6426  09D1  29D2               	nop2
  6427  09D2                     l2137:	
  6428                           
  6429                           ;LCD.c: 22:     LCDcmd(0x38);
  6430  09D2  3038               	movlw	56
  6431  09D3  120A  158A  2033  120A  158A  	fcall	_LCDcmd
  6432  09D8                     l2139:	
  6433                           
  6434                           ;LCD.c: 23:     LCDcmd(0x10);
  6435  09D8  3010               	movlw	16
  6436  09D9  120A  158A  2033  120A  158A  	fcall	_LCDcmd
  6437  09DE                     l2141:	
  6438                           
  6439                           ;LCD.c: 24:     LCDcmd(0x01);
  6440  09DE  3001               	movlw	1
  6441  09DF  120A  158A  2033  120A  158A  	fcall	_LCDcmd
  6442  09E4                     l2143:	
  6443                           
  6444                           ;LCD.c: 25:     LCDcmd(0x06);
  6445  09E4  3006               	movlw	6
  6446  09E5  120A  158A  2033  120A  158A  	fcall	_LCDcmd
  6447  09EA                     l2145:	
  6448                           
  6449                           ;LCD.c: 26:     LCDcmd(0x0C);
  6450  09EA  300C               	movlw	12
  6451  09EB  120A  158A  2033  120A  158A  	fcall	_LCDcmd
  6452  09F0                     l104:	
  6453  09F0  0008               	return
  6454  09F1                     __end_of_LCD8bits_init:	
  6455                           
  6456                           	psect	text18
  6457  0833                     __ptext18:	
  6458 ;; *************** function _LCDcmd *****************
  6459 ;; Defined at:
  6460 ;;		line 30 in file "LCD.c"
  6461 ;; Parameters:    Size  Location     Type
  6462 ;;  cmd             1    wreg     unsigned char 
  6463 ;; Auto vars:     Size  Location     Type
  6464 ;;  cmd             1    2[COMMON] unsigned char 
  6465 ;; Return value:  Size  Location     Type
  6466 ;;                  1    wreg      void 
  6467 ;; Registers used:
  6468 ;;		wreg
  6469 ;; Tracked objects:
  6470 ;;		On entry : 0/0
  6471 ;;		On exit  : 0/0
  6472 ;;		Unchanged: 0/0
  6473 ;; Data sizes:     COMMON   BANK0   BANK1   BANK3   BANK2
  6474 ;;      Params:         0       0       0       0       0
  6475 ;;      Locals:         1       0       0       0       0
  6476 ;;      Temps:          2       0       0       0       0
  6477 ;;      Totals:         3       0       0       0       0
  6478 ;;Total ram usage:        3 bytes
  6479 ;; Hardware stack levels used:    1
  6480 ;; This function calls:
  6481 ;;		Nothing
  6482 ;; This function is called by:
  6483 ;;		_LCD8bits_init
  6484 ;;		_LCDcursorSet
  6485 ;; This function uses a non-reentrant model
  6486 ;;
  6487                           
  6488                           
  6489                           ;psect for function _LCDcmd
  6490  0833                     _LCDcmd:	
  6491                           
  6492                           ;incstack = 0
  6493                           ; Regs used in _LCDcmd: [wreg]
  6494                           ;LCDcmd@cmd stored from wreg
  6495  0833  00F2               	movwf	LCDcmd@cmd
  6496  0834                     l1829:	
  6497                           
  6498                           ;LCD.c: 31:     PORTD = cmd;
  6499  0834  0872               	movf	LCDcmd@cmd,w
  6500  0835  1283               	bcf	3,5	;RP0=0, select bank0
  6501  0836  1303               	bcf	3,6	;RP1=0, select bank0
  6502  0837  0088               	movwf	8	;volatile
  6503  0838                     l1831:	
  6504                           
  6505                           ;LCD.c: 32:     PORTBbits.RB1 = 0;
  6506  0838  1086               	bcf	6,1	;volatile
  6507  0839                     l1833:	
  6508                           
  6509                           ;LCD.c: 33:     PORTBbits.RB0 = 1;
  6510  0839  1406               	bsf	6,0	;volatile
  6511                           
  6512                           ;LCD.c: 34:     _delay((unsigned long)((4)*(4000000/4000.0)));
  6513  083A  3006               	movlw	6
  6514  083B  00F1               	movwf	??_LCDcmd+1
  6515  083C  3030               	movlw	48
  6516  083D  00F0               	movwf	??_LCDcmd
  6517  083E                     u3727:	
  6518  083E  0BF0               	decfsz	??_LCDcmd,f
  6519  083F  283E               	goto	u3727
  6520  0840  0BF1               	decfsz	??_LCDcmd+1,f
  6521  0841  283E               	goto	u3727
  6522  0842  0000               	nop
  6523  0843                     l1835:	
  6524                           
  6525                           ;LCD.c: 35:     PORTBbits.RB0 = 0;
  6526  0843  1283               	bcf	3,5	;RP0=0, select bank0
  6527  0844  1303               	bcf	3,6	;RP1=0, select bank0
  6528  0845  1006               	bcf	6,0	;volatile
  6529  0846                     l107:	
  6530  0846  0008               	return
  6531  0847                     __end_of_LCDcmd:	
  6532                           
  6533                           	psect	text19
  6534  1766                     __ptext19:	
  6535 ;; *************** function _I2C_Master_Write *****************
  6536 ;; Defined at:
  6537 ;;		line 66 in file "I2C.c"
  6538 ;; Parameters:    Size  Location     Type
  6539 ;;  d               2    0[COMMON] unsigned int 
  6540 ;; Auto vars:     Size  Location     Type
  6541 ;;		None
  6542 ;; Return value:  Size  Location     Type
  6543 ;;                  1    wreg      void 
  6544 ;; Registers used:
  6545 ;;		wreg, status,2, status,0, pclath, cstack
  6546 ;; Tracked objects:
  6547 ;;		On entry : 0/0
  6548 ;;		On exit  : 0/0
  6549 ;;		Unchanged: 0/0
  6550 ;; Data sizes:     COMMON   BANK0   BANK1   BANK3   BANK2
  6551 ;;      Params:         2       0       0       0       0
  6552 ;;      Locals:         0       0       0       0       0
  6553 ;;      Temps:          0       0       0       0       0
  6554 ;;      Totals:         2       0       0       0       0
  6555 ;;Total ram usage:        2 bytes
  6556 ;; Hardware stack levels used:    1
  6557 ;; Hardware stack levels required when called:    1
  6558 ;; This function calls:
  6559 ;;		_I2C_Master_Wait
  6560 ;; This function is called by:
  6561 ;;		_main
  6562 ;; This function uses a non-reentrant model
  6563 ;;
  6564                           
  6565                           
  6566                           ;psect for function _I2C_Master_Write
  6567  1766                     _I2C_Master_Write:	
  6568  1766                     l2167:	
  6569                           ;incstack = 0
  6570                           ; Regs used in _I2C_Master_Write: [wreg+status,2+status,0+pclath+cstack]
  6571                           
  6572                           
  6573                           ;I2C.c: 66: void I2C_Master_Write(unsigned d);I2C.c: 67: {;I2C.c: 68:     I2C_Master_Wai
      +                          t();
  6574  1766  160A  118A  2770  160A  118A  	fcall	_I2C_Master_Wait
  6575  176B                     l2169:	
  6576                           
  6577                           ;I2C.c: 69:     SSPBUF = d;
  6578  176B  0870               	movf	I2C_Master_Write@d,w
  6579  176C  1283               	bcf	3,5	;RP0=0, select bank0
  6580  176D  1303               	bcf	3,6	;RP1=0, select bank0
  6581  176E  0093               	movwf	19	;volatile
  6582  176F                     l169:	
  6583  176F  0008               	return
  6584  1770                     __end_of_I2C_Master_Write:	
  6585                           
  6586                           	psect	text20
  6587  175D                     __ptext20:	
  6588 ;; *************** function _I2C_Master_Stop *****************
  6589 ;; Defined at:
  6590 ;;		line 56 in file "I2C.c"
  6591 ;; Parameters:    Size  Location     Type
  6592 ;;		None
  6593 ;; Auto vars:     Size  Location     Type
  6594 ;;		None
  6595 ;; Return value:  Size  Location     Type
  6596 ;;                  1    wreg      void 
  6597 ;; Registers used:
  6598 ;;		wreg, status,2, status,0, pclath, cstack
  6599 ;; Tracked objects:
  6600 ;;		On entry : 0/0
  6601 ;;		On exit  : 0/0
  6602 ;;		Unchanged: 0/0
  6603 ;; Data sizes:     COMMON   BANK0   BANK1   BANK3   BANK2
  6604 ;;      Params:         0       0       0       0       0
  6605 ;;      Locals:         0       0       0       0       0
  6606 ;;      Temps:          0       0       0       0       0
  6607 ;;      Totals:         0       0       0       0       0
  6608 ;;Total ram usage:        0 bytes
  6609 ;; Hardware stack levels used:    1
  6610 ;; Hardware stack levels required when called:    1
  6611 ;; This function calls:
  6612 ;;		_I2C_Master_Wait
  6613 ;; This function is called by:
  6614 ;;		_main
  6615 ;; This function uses a non-reentrant model
  6616 ;;
  6617                           
  6618                           
  6619                           ;psect for function _I2C_Master_Stop
  6620  175D                     _I2C_Master_Stop:	
  6621  175D                     l2171:	
  6622                           ;incstack = 0
  6623                           ; Regs used in _I2C_Master_Stop: [wreg+status,2+status,0+pclath+cstack]
  6624                           
  6625                           
  6626                           ;I2C.c: 58:     I2C_Master_Wait();
  6627  175D  160A  118A  2770  160A  118A  	fcall	_I2C_Master_Wait
  6628  1762                     l2173:	
  6629                           
  6630                           ;I2C.c: 59:     SSPCON2bits.PEN = 1;
  6631  1762  1683               	bsf	3,5	;RP0=1, select bank1
  6632  1763  1303               	bcf	3,6	;RP1=0, select bank1
  6633  1764  1511               	bsf	17,2	;volatile
  6634  1765                     l166:	
  6635  1765  0008               	return
  6636  1766                     __end_of_I2C_Master_Stop:	
  6637                           
  6638                           	psect	text21
  6639  1754                     __ptext21:	
  6640 ;; *************** function _I2C_Master_Start *****************
  6641 ;; Defined at:
  6642 ;;		line 40 in file "I2C.c"
  6643 ;; Parameters:    Size  Location     Type
  6644 ;;		None
  6645 ;; Auto vars:     Size  Location     Type
  6646 ;;		None
  6647 ;; Return value:  Size  Location     Type
  6648 ;;                  1    wreg      void 
  6649 ;; Registers used:
  6650 ;;		wreg, status,2, status,0, pclath, cstack
  6651 ;; Tracked objects:
  6652 ;;		On entry : 0/0
  6653 ;;		On exit  : 0/0
  6654 ;;		Unchanged: 0/0
  6655 ;; Data sizes:     COMMON   BANK0   BANK1   BANK3   BANK2
  6656 ;;      Params:         0       0       0       0       0
  6657 ;;      Locals:         0       0       0       0       0
  6658 ;;      Temps:          0       0       0       0       0
  6659 ;;      Totals:         0       0       0       0       0
  6660 ;;Total ram usage:        0 bytes
  6661 ;; Hardware stack levels used:    1
  6662 ;; Hardware stack levels required when called:    1
  6663 ;; This function calls:
  6664 ;;		_I2C_Master_Wait
  6665 ;; This function is called by:
  6666 ;;		_main
  6667 ;; This function uses a non-reentrant model
  6668 ;;
  6669                           
  6670                           
  6671                           ;psect for function _I2C_Master_Start
  6672  1754                     _I2C_Master_Start:	
  6673  1754                     l2163:	
  6674                           ;incstack = 0
  6675                           ; Regs used in _I2C_Master_Start: [wreg+status,2+status,0+pclath+cstack]
  6676                           
  6677                           
  6678                           ;I2C.c: 42:     I2C_Master_Wait();
  6679  1754  160A  118A  2770  160A  118A  	fcall	_I2C_Master_Wait
  6680  1759                     l2165:	
  6681                           
  6682                           ;I2C.c: 43:     SSPCON2bits.SEN = 1;
  6683  1759  1683               	bsf	3,5	;RP0=1, select bank1
  6684  175A  1303               	bcf	3,6	;RP1=0, select bank1
  6685  175B  1411               	bsf	17,0	;volatile
  6686  175C                     l160:	
  6687  175C  0008               	return
  6688  175D                     __end_of_I2C_Master_Start:	
  6689                           
  6690                           	psect	text22
  6691  08B9                     __ptext22:	
  6692 ;; *************** function _I2C_Master_Read *****************
  6693 ;; Defined at:
  6694 ;;		line 75 in file "I2C.c"
  6695 ;; Parameters:    Size  Location     Type
  6696 ;;  a               2    0[COMMON] unsigned short 
  6697 ;; Auto vars:     Size  Location     Type
  6698 ;;  temp            2    4[COMMON] unsigned short 
  6699 ;; Return value:  Size  Location     Type
  6700 ;;                  2    0[COMMON] unsigned short 
  6701 ;; Registers used:
  6702 ;;		wreg, status,2, status,0, pclath, cstack
  6703 ;; Tracked objects:
  6704 ;;		On entry : 0/0
  6705 ;;		On exit  : 0/0
  6706 ;;		Unchanged: 0/0
  6707 ;; Data sizes:     COMMON   BANK0   BANK1   BANK3   BANK2
  6708 ;;      Params:         2       0       0       0       0
  6709 ;;      Locals:         2       0       0       0       0
  6710 ;;      Temps:          2       0       0       0       0
  6711 ;;      Totals:         6       0       0       0       0
  6712 ;;Total ram usage:        6 bytes
  6713 ;; Hardware stack levels used:    1
  6714 ;; Hardware stack levels required when called:    1
  6715 ;; This function calls:
  6716 ;;		_I2C_Master_Wait
  6717 ;; This function is called by:
  6718 ;;		_main
  6719 ;; This function uses a non-reentrant model
  6720 ;;
  6721                           
  6722                           
  6723                           ;psect for function _I2C_Master_Read
  6724  08B9                     _I2C_Master_Read:	
  6725  08B9                     l2175:	
  6726                           ;incstack = 0
  6727                           ; Regs used in _I2C_Master_Read: [wreg+status,2+status,0+pclath+cstack]
  6728                           
  6729                           
  6730                           ;I2C.c: 75: unsigned short I2C_Master_Read(unsigned short a);I2C.c: 76: {;I2C.c: 77:    
      +                           unsigned short temp;;I2C.c: 78:     I2C_Master_Wait();
  6731  08B9  160A  118A  2770  120A  158A  	fcall	_I2C_Master_Wait
  6732  08BE                     l2177:	
  6733                           
  6734                           ;I2C.c: 79:     SSPCON2bits.RCEN = 1;
  6735  08BE  1683               	bsf	3,5	;RP0=1, select bank1
  6736  08BF  1303               	bcf	3,6	;RP1=0, select bank1
  6737  08C0  1591               	bsf	17,3	;volatile
  6738                           
  6739                           ;I2C.c: 80:     I2C_Master_Wait();
  6740  08C1  160A  118A  2770  120A  158A  	fcall	_I2C_Master_Wait
  6741  08C6                     l2179:	
  6742                           
  6743                           ;I2C.c: 81:     temp = SSPBUF;
  6744  08C6  1283               	bcf	3,5	;RP0=0, select bank0
  6745  08C7  1303               	bcf	3,6	;RP1=0, select bank0
  6746  08C8  0813               	movf	19,w	;volatile
  6747  08C9  00F2               	movwf	??_I2C_Master_Read
  6748  08CA  01F3               	clrf	??_I2C_Master_Read+1
  6749  08CB  0872               	movf	??_I2C_Master_Read,w
  6750  08CC  00F4               	movwf	I2C_Master_Read@temp
  6751  08CD  0873               	movf	??_I2C_Master_Read+1,w
  6752  08CE  00F5               	movwf	I2C_Master_Read@temp+1
  6753  08CF                     l2181:	
  6754                           
  6755                           ;I2C.c: 82:     I2C_Master_Wait();
  6756  08CF  160A  118A  2770  120A  158A  	fcall	_I2C_Master_Wait
  6757  08D4                     l2183:	
  6758                           
  6759                           ;I2C.c: 83:     if(a == 1){
  6760  08D4  0370               	decf	I2C_Master_Read@a,w
  6761  08D5  0471               	iorwf	I2C_Master_Read@a+1,w
  6762  08D6  1D03               	btfss	3,2
  6763  08D7  28D9               	goto	u2611
  6764  08D8  28DA               	goto	u2610
  6765  08D9                     u2611:	
  6766  08D9  28DE               	goto	l172
  6767  08DA                     u2610:	
  6768  08DA                     l2185:	
  6769                           
  6770                           ;I2C.c: 84:         SSPCON2bits.ACKDT = 0;
  6771  08DA  1683               	bsf	3,5	;RP0=1, select bank1
  6772  08DB  1303               	bcf	3,6	;RP1=0, select bank1
  6773  08DC  1291               	bcf	17,5	;volatile
  6774                           
  6775                           ;I2C.c: 85:     }else{
  6776  08DD  28E1               	goto	l173
  6777  08DE                     l172:	
  6778                           
  6779                           ;I2C.c: 86:         SSPCON2bits.ACKDT = 1;
  6780  08DE  1683               	bsf	3,5	;RP0=1, select bank1
  6781  08DF  1303               	bcf	3,6	;RP1=0, select bank1
  6782  08E0  1691               	bsf	17,5	;volatile
  6783  08E1                     l173:	
  6784                           ;I2C.c: 87:     }
  6785                           
  6786                           
  6787                           ;I2C.c: 88:     SSPCON2bits.ACKEN = 1;
  6788  08E1  1611               	bsf	17,4	;volatile
  6789  08E2                     l2187:	
  6790                           
  6791                           ;I2C.c: 89:     return temp;
  6792  08E2  0875               	movf	I2C_Master_Read@temp+1,w
  6793  08E3  00F1               	movwf	?_I2C_Master_Read+1
  6794  08E4  0874               	movf	I2C_Master_Read@temp,w
  6795  08E5  00F0               	movwf	?_I2C_Master_Read
  6796  08E6                     l174:	
  6797  08E6  0008               	return
  6798  08E7                     __end_of_I2C_Master_Read:	
  6799                           
  6800                           	psect	text23
  6801  1770                     __ptext23:	
  6802 ;; *************** function _I2C_Master_Wait *****************
  6803 ;; Defined at:
  6804 ;;		line 33 in file "I2C.c"
  6805 ;; Parameters:    Size  Location     Type
  6806 ;;		None
  6807 ;; Auto vars:     Size  Location     Type
  6808 ;;		None
  6809 ;; Return value:  Size  Location     Type
  6810 ;;                  1    wreg      void 
  6811 ;; Registers used:
  6812 ;;		wreg, status,2
  6813 ;; Tracked objects:
  6814 ;;		On entry : 0/0
  6815 ;;		On exit  : 0/0
  6816 ;;		Unchanged: 0/0
  6817 ;; Data sizes:     COMMON   BANK0   BANK1   BANK3   BANK2
  6818 ;;      Params:         0       0       0       0       0
  6819 ;;      Locals:         0       0       0       0       0
  6820 ;;      Temps:          0       0       0       0       0
  6821 ;;      Totals:         0       0       0       0       0
  6822 ;;Total ram usage:        0 bytes
  6823 ;; Hardware stack levels used:    1
  6824 ;; This function calls:
  6825 ;;		Nothing
  6826 ;; This function is called by:
  6827 ;;		_I2C_Master_Start
  6828 ;;		_I2C_Master_Stop
  6829 ;;		_I2C_Master_Write
  6830 ;;		_I2C_Master_Read
  6831 ;;		_I2C_Master_RepeatedStart
  6832 ;; This function uses a non-reentrant model
  6833 ;;
  6834                           
  6835                           
  6836                           ;psect for function _I2C_Master_Wait
  6837  1770                     _I2C_Master_Wait:	
  6838  1770                     l1845:	
  6839                           ;incstack = 0
  6840                           ; Regs used in _I2C_Master_Wait: [wreg+status,2]
  6841                           
  6842  1770                     l154:	
  6843                           ;I2C.c: 35:     while ((SSPSTAT & 0x04) || (SSPCON2 & 0x1F));
  6844                           
  6845  1770  1683               	bsf	3,5	;RP0=1, select bank1
  6846  1771  1303               	bcf	3,6	;RP1=0, select bank1
  6847  1772  1914               	btfsc	20,2	;volatile
  6848  1773  2F75               	goto	u1901
  6849  1774  2F76               	goto	u1900
  6850  1775                     u1901:	
  6851  1775  2F70               	goto	l154
  6852  1776                     u1900:	
  6853  1776                     l1847:	
  6854  1776  0811               	movf	17,w	;volatile
  6855  1777  391F               	andlw	31
  6856  1778  1D03               	btfss	3,2
  6857  1779  2F7B               	goto	u1911
  6858  177A  2F7C               	goto	u1910
  6859  177B                     u1911:	
  6860  177B  2F70               	goto	l154
  6861  177C                     u1910:	
  6862  177C                     l157:	
  6863  177C  0008               	return
  6864  177D                     __end_of_I2C_Master_Wait:	
  6865                           
  6866                           	psect	text24
  6867  0847                     __ptext24:	
  6868 ;; *************** function _BCD_2_DEC *****************
  6869 ;; Defined at:
  6870 ;;		line 176 in file "main.c"
  6871 ;; Parameters:    Size  Location     Type
  6872 ;;  to_convert      2    6[COMMON] int 
  6873 ;; Auto vars:     Size  Location     Type
  6874 ;;		None
  6875 ;; Return value:  Size  Location     Type
  6876 ;;                  2    6[COMMON] int 
  6877 ;; Registers used:
  6878 ;;		wreg, status,2, status,0, pclath, cstack
  6879 ;; Tracked objects:
  6880 ;;		On entry : 0/0
  6881 ;;		On exit  : 0/0
  6882 ;;		Unchanged: 0/0
  6883 ;; Data sizes:     COMMON   BANK0   BANK1   BANK3   BANK2
  6884 ;;      Params:         2       0       0       0       0
  6885 ;;      Locals:         0       0       0       0       0
  6886 ;;      Temps:          2       0       0       0       0
  6887 ;;      Totals:         4       0       0       0       0
  6888 ;;Total ram usage:        4 bytes
  6889 ;; Hardware stack levels used:    1
  6890 ;; Hardware stack levels required when called:    1
  6891 ;; This function calls:
  6892 ;;		___wmul
  6893 ;; This function is called by:
  6894 ;;		_main
  6895 ;; This function uses a non-reentrant model
  6896 ;;
  6897                           
  6898                           
  6899                           ;psect for function _BCD_2_DEC
  6900  0847                     _BCD_2_DEC:	
  6901  0847                     l2191:	
  6902                           ;incstack = 0
  6903                           ; Regs used in _BCD_2_DEC: [wreg+status,2+status,0+pclath+cstack]
  6904                           
  6905                           
  6906                           ;main.c: 176: int BCD_2_DEC(int to_convert);main.c: 177: {;main.c: 178:    return (to_co
      +                          nvert >> 4) * 10 + (to_convert & 0x0F);
  6907  0847  300F               	movlw	15
  6908  0848  0576               	andwf	BCD_2_DEC@to_convert,w
  6909  0849  00F8               	movwf	??_BCD_2_DEC
  6910  084A  3000               	movlw	0
  6911  084B  0577               	andwf	BCD_2_DEC@to_convert+1,w
  6912  084C  00F9               	movwf	??_BCD_2_DEC+1
  6913  084D  0E76               	swapf	BCD_2_DEC@to_convert,w
  6914  084E  390F               	andlw	15
  6915  084F  00F0               	movwf	___wmul@multiplier
  6916  0850  0E77               	swapf	BCD_2_DEC@to_convert+1,w
  6917  0851  39F0               	andlw	240
  6918  0852  04F0               	iorwf	___wmul@multiplier,f
  6919  0853  0E77               	swapf	BCD_2_DEC@to_convert+1,w
  6920  0854  390F               	andlw	15
  6921  0855  00F1               	movwf	___wmul@multiplier+1
  6922  0856  30F0               	movlw	240
  6923  0857  1DF1               	btfss	___wmul@multiplier+1,3
  6924  0858  3000               	movlw	0
  6925  0859  04F1               	iorwf	___wmul@multiplier+1,f
  6926  085A  300A               	movlw	10
  6927  085B  00F2               	movwf	___wmul@multiplicand
  6928  085C  3000               	movlw	0
  6929  085D  00F3               	movwf	___wmul@multiplicand+1
  6930  085E  160A  118A  27DB  120A  158A  	fcall	___wmul
  6931  0863  0878               	movf	??_BCD_2_DEC,w
  6932  0864  0770               	addwf	?___wmul,w
  6933  0865  00F6               	movwf	?_BCD_2_DEC
  6934  0866  0879               	movf	??_BCD_2_DEC+1,w
  6935  0867  1803               	skipnc
  6936  0868  0A79               	incf	??_BCD_2_DEC+1,w
  6937  0869  0771               	addwf	?___wmul+1,w
  6938  086A  00F7               	movwf	?_BCD_2_DEC+1
  6939  086B                     l90:	
  6940  086B  0008               	return
  6941  086C                     __end_of_BCD_2_DEC:	
  6942                           
  6943                           	psect	text25
  6944  17DB                     __ptext25:	
  6945 ;; *************** function ___wmul *****************
  6946 ;; Defined at:
  6947 ;;		line 15 in file "C:\Program Files (x86)\Microchip\xc8\v2.10\pic\sources\c90\common\Umul16.c"
  6948 ;; Parameters:    Size  Location     Type
  6949 ;;  multiplier      2    0[COMMON] unsigned int 
  6950 ;;  multiplicand    2    2[COMMON] unsigned int 
  6951 ;; Auto vars:     Size  Location     Type
  6952 ;;  product         2    4[COMMON] unsigned int 
  6953 ;; Return value:  Size  Location     Type
  6954 ;;                  2    0[COMMON] unsigned int 
  6955 ;; Registers used:
  6956 ;;		wreg, status,2, status,0
  6957 ;; Tracked objects:
  6958 ;;		On entry : 0/0
  6959 ;;		On exit  : 0/0
  6960 ;;		Unchanged: 0/0
  6961 ;; Data sizes:     COMMON   BANK0   BANK1   BANK3   BANK2
  6962 ;;      Params:         4       0       0       0       0
  6963 ;;      Locals:         2       0       0       0       0
  6964 ;;      Temps:          0       0       0       0       0
  6965 ;;      Totals:         6       0       0       0       0
  6966 ;;Total ram usage:        6 bytes
  6967 ;; Hardware stack levels used:    1
  6968 ;; This function calls:
  6969 ;;		Nothing
  6970 ;; This function is called by:
  6971 ;;		_BCD_2_DEC
  6972 ;; This function uses a non-reentrant model
  6973 ;;
  6974                           
  6975                           
  6976                           ;psect for function ___wmul
  6977  17DB                     ___wmul:	
  6978  17DB                     l1849:	
  6979                           ;incstack = 0
  6980                           ; Regs used in ___wmul: [wreg+status,2+status,0]
  6981                           
  6982  17DB  01F4               	clrf	___wmul@product
  6983  17DC  01F5               	clrf	___wmul@product+1
  6984  17DD                     l1851:	
  6985  17DD  1C70               	btfss	___wmul@multiplier,0
  6986  17DE  2FE0               	goto	u1921
  6987  17DF  2FE1               	goto	u1920
  6988  17E0                     u1921:	
  6989  17E0  2FE7               	goto	l291
  6990  17E1                     u1920:	
  6991  17E1                     l1853:	
  6992  17E1  0872               	movf	___wmul@multiplicand,w
  6993  17E2  07F4               	addwf	___wmul@product,f
  6994  17E3  1803               	skipnc
  6995  17E4  0AF5               	incf	___wmul@product+1,f
  6996  17E5  0873               	movf	___wmul@multiplicand+1,w
  6997  17E6  07F5               	addwf	___wmul@product+1,f
  6998  17E7                     l291:	
  6999  17E7  3001               	movlw	1
  7000  17E8                     u1935:	
  7001  17E8  1003               	clrc
  7002  17E9  0DF2               	rlf	___wmul@multiplicand,f
  7003  17EA  0DF3               	rlf	___wmul@multiplicand+1,f
  7004  17EB  3EFF               	addlw	-1
  7005  17EC  1D03               	skipz
  7006  17ED  2FE8               	goto	u1935
  7007  17EE                     l1855:	
  7008  17EE  3001               	movlw	1
  7009  17EF                     u1945:	
  7010  17EF  1003               	clrc
  7011  17F0  0CF1               	rrf	___wmul@multiplier+1,f
  7012  17F1  0CF0               	rrf	___wmul@multiplier,f
  7013  17F2  3EFF               	addlw	-1
  7014  17F3  1D03               	skipz
  7015  17F4  2FEF               	goto	u1945
  7016  17F5                     l1857:	
  7017  17F5  0870               	movf	___wmul@multiplier,w
  7018  17F6  0471               	iorwf	___wmul@multiplier+1,w
  7019  17F7  1D03               	btfss	3,2
  7020  17F8  2FFA               	goto	u1951
  7021  17F9  2FFB               	goto	u1950
  7022  17FA                     u1951:	
  7023  17FA  2FDD               	goto	l1851
  7024  17FB                     u1950:	
  7025  17FB                     l1859:	
  7026  17FB  0875               	movf	___wmul@product+1,w
  7027  17FC  00F1               	movwf	?___wmul+1
  7028  17FD  0874               	movf	___wmul@product,w
  7029  17FE  00F0               	movwf	?___wmul
  7030  17FF                     l293:	
  7031  17FF  0008               	return
  7032  1800                     __end_of___wmul:	
  7033  007E                     btemp	set	126	;btemp
  7034  007E                     wtemp0	set	126


Data Sizes:
    Strings     25
    Constant    10
    Data        0
    BSS         26
    Persistent  0
    Stack       0

Auto Spaces:
    Space          Size  Autos    Used
    COMMON           14     14      14
    BANK0            80     72      79
    BANK1            80      0      19
    BANK3            96      0       0
    BANK2            96      0       0

Pointer List with Targets:

    sprintf@f	PTR const unsigned char  size(1) Largest target is 3
		 -> STR_8(CODE[3]), STR_7(CODE[3]), STR_6(CODE[3]), STR_5(CODE[3]), 
		 -> STR_4(CODE[3]), 

    sprintf@sp	PTR unsigned char  size(1) Largest target is 3
		 -> decpot1(BANK1[2]), potStr1(BANK1[3]), contStr(BANK0[1]), min1(BANK1[2]), 
		 -> sec1(BANK1[2]), 

    sprintf@ap	PTR void [1] size(1) Largest target is 2
		 -> ?_sprintf(BANK0[2]), 

    LCDisplay@val	PTR unsigned char  size(2) Largest target is 6
		 -> STR_15(CODE[2]), STR_14(CODE[2]), STR_13(CODE[2]), STR_12(CODE[2]), 
		 -> STR_11(CODE[2]), STR_10(CODE[2]), STR_9(CODE[2]), decpot1(BANK1[2]), 
		 -> potStr1(BANK1[3]), contStr(BANK0[1]), min1(BANK1[2]), sec1(BANK1[2]), 
		 -> STR_3(CODE[6]), STR_2(CODE[6]), STR_1(CODE[4]), 


Critical Paths under _main in COMMON

    _main->___xxtofl
    _sprintf->___lwmod
    ___lwmod->___lwdiv
    _I2C_Master_Init->___lldiv
    ___flsub->___xxtofl
    ___flmul->___xxtofl
    _LCDisplay->_LCDwrite
    _LCDcursorSet->_LCDcmd
    _LCD8bits_init->_LCDcmd
    _BCD_2_DEC->_I2C_Master_Read
    _BCD_2_DEC->___wmul

Critical Paths under _main in BANK0

    _main->___fldiv
    _config->_I2C_Master_Init
    ___flsub->___fladd
    ___flmul->___flsub
    ___fldiv->___flmul

Critical Paths under _main in BANK1

    None.

Critical Paths under _main in BANK3

    None.

Critical Paths under _main in BANK2

    None.

Call Graph Tables:

 ---------------------------------------------------------------------------------
 (Depth) Function   	        Calls       Base Space   Used Autos Params    Refs
 ---------------------------------------------------------------------------------
 (0) _main                                                 4     4      0   12683
                                             68 BANK0      4     4      0
                          _BCD_2_DEC
                    _I2C_Master_Read
                   _I2C_Master_Start
                    _I2C_Master_Stop
                   _I2C_Master_Write
                      _LCD8bits_init
                       _LCDcursorSet
                          _LCDisplay
                            ___fldiv
                            ___flmul
                            ___flsub
                            ___fltol
                           ___xxtofl
                             _config
                            _sprintf
 ---------------------------------------------------------------------------------
 (1) _sprintf                                             21    18      3    1647
                                              0 BANK0     13    10      3
                            ___lwdiv
                            ___lwmod
 ---------------------------------------------------------------------------------
 (2) ___lwmod                                              6     2      4     311
                                              8 COMMON     6     2      4
                            ___lwdiv (ARG)
 ---------------------------------------------------------------------------------
 (2) ___lwdiv                                              8     4      4     314
                                              0 COMMON     8     4      4
 ---------------------------------------------------------------------------------
 (1) _config                                               0     0      0     412
                    _I2C_Master_Init
 ---------------------------------------------------------------------------------
 (2) _I2C_Master_Init                                      8     4      4     412
                                              0 BANK0      8     4      4
                            ___lldiv
 ---------------------------------------------------------------------------------
 (3) ___lldiv                                             14     6      8     314
                                              0 COMMON    14     6      8
 ---------------------------------------------------------------------------------
 (1) ___xxtofl                                            14    10      4     474
                                              0 COMMON    14    10      4
 ---------------------------------------------------------------------------------
 (1) ___fltol                                             11     7      4     381
                                              0 COMMON    11     7      4
 ---------------------------------------------------------------------------------
 (1) ___flsub                                              8     0      8    2333
                                              8 BANK0      8     0      8
                            ___fladd
                           ___xxtofl (ARG)
 ---------------------------------------------------------------------------------
 (2) ___fladd                                             20    12      8    2136
                                              0 COMMON    12     4      8
                                              0 BANK0      8     8      0
 ---------------------------------------------------------------------------------
 (1) ___flmul                                             26    18      8    2569
                                             16 BANK0     26    18      8
                          __Umul8_16
                            ___flsub (ARG)
                           ___xxtofl (ARG)
 ---------------------------------------------------------------------------------
 (2) __Umul8_16                                            9     7      2     799
                                              0 COMMON     9     7      2
 ---------------------------------------------------------------------------------
 (1) ___fldiv                                             26    18      8    1273
                                             42 BANK0     26    18      8
                            ___flmul (ARG)
 ---------------------------------------------------------------------------------
 (1) _LCDisplay                                            2     0      2    1511
                                              3 COMMON     2     0      2
                           _LCDwrite
 ---------------------------------------------------------------------------------
 (2) _LCDwrite                                             3     3      0      22
                                              0 COMMON     3     3      0
 ---------------------------------------------------------------------------------
 (1) _LCDcursorSet                                         2     1      1     642
                                              3 COMMON     2     1      1
                             _LCDcmd
 ---------------------------------------------------------------------------------
 (1) _LCD8bits_init                                        2     2      0      22
                                              3 COMMON     2     2      0
                             _LCDcmd
 ---------------------------------------------------------------------------------
 (2) _LCDcmd                                               3     3      0      22
                                              0 COMMON     3     3      0
 ---------------------------------------------------------------------------------
 (1) _I2C_Master_Write                                     2     0      2     554
                                              0 COMMON     2     0      2
                    _I2C_Master_Wait
 ---------------------------------------------------------------------------------
 (1) _I2C_Master_Stop                                      0     0      0       0
                    _I2C_Master_Wait
 ---------------------------------------------------------------------------------
 (1) _I2C_Master_Start                                     0     0      0       0
                    _I2C_Master_Wait
 ---------------------------------------------------------------------------------
 (1) _I2C_Master_Read                                      6     4      2     425
                                              0 COMMON     6     4      2
                    _I2C_Master_Wait
 ---------------------------------------------------------------------------------
 (2) _I2C_Master_Wait                                      0     0      0       0
 ---------------------------------------------------------------------------------
 (1) _BCD_2_DEC                                            4     2      2     440
                                              6 COMMON     4     2      2
                    _I2C_Master_Read (ARG)
                             ___wmul
 ---------------------------------------------------------------------------------
 (2) ___wmul                                               6     2      4     244
                                              0 COMMON     6     2      4
 ---------------------------------------------------------------------------------
 Estimated maximum stack depth 3
 ---------------------------------------------------------------------------------

 Call Graph Graphs:

 _main (ROOT)
   _BCD_2_DEC
     _I2C_Master_Read (ARG)
       _I2C_Master_Wait
     ___wmul (ARG)
   _I2C_Master_Read
     _I2C_Master_Wait
   _I2C_Master_Start
     _I2C_Master_Wait
   _I2C_Master_Stop
     _I2C_Master_Wait
   _I2C_Master_Write
     _I2C_Master_Wait
   _LCD8bits_init
     _LCDcmd
   _LCDcursorSet
     _LCDcmd
   _LCDisplay
     _LCDwrite
   ___fldiv
     ___flmul (ARG)
       __Umul8_16
       ___flsub (ARG)
         ___fladd
         ___xxtofl (ARG)
       ___xxtofl (ARG)
   ___flmul
     __Umul8_16
     ___flsub (ARG)
       ___fladd
       ___xxtofl (ARG)
     ___xxtofl (ARG)
   ___flsub
     ___fladd
     ___xxtofl (ARG)
   ___fltol
   ___xxtofl
   _config
     _I2C_Master_Init
       ___lldiv
   _sprintf
     ___lwdiv
     ___lwmod
       ___lwdiv (ARG)

 Address spaces:
Name               Size   Autos  Total    Cost      Usage
BITCOMMON            E      0       0       0        0.0%
EEDATA             100      0       0       0        0.0%
NULL                 0      0       0       0        0.0%
CODE                 0      0       0       0        0.0%
COMMON               E      E       E       1      100.0%
BITSFR0              0      0       0       1        0.0%
SFR0                 0      0       0       1        0.0%
BITSFR1              0      0       0       2        0.0%
SFR1                 0      0       0       2        0.0%
STACK                0      0       0       2        0.0%
ABS                  0      0      70       3        0.0%
BITBANK0            50      0       0       4        0.0%
BITSFR3              0      0       0       4        0.0%
SFR3                 0      0       0       4        0.0%
BANK0               50     48      4F       5       98.8%
BITSFR2              0      0       0       5        0.0%
SFR2                 0      0       0       5        0.0%
BITBANK1            50      0       0       6        0.0%
BANK1               50      0      13       7       23.8%
BITBANK3            60      0       0       8        0.0%
BANK3               60      0       0       9        0.0%
BITBANK2            60      0       0      10        0.0%
BANK2               60      0       0      11        0.0%
DATA                 0      0      70      12        0.0%


Microchip Technology PIC Macro Assembler V2.10 build 88905656 
Symbol Table                                                                                   Wed Feb 26 19:46:10 2020

             ___fldiv@aexp 0063               ___fldiv@bexp 0062                          pc 0002  
             ___fldiv@sign 005B                __CFG_CP$OFF 0000                         l90 086B  
                       l75 0744                         l87 17B6                         fsr 0004  
      ___wmul@multiplicand 0072        __Umul8_16@word_mpld 0076                        l110 001C  
                      l104 09F0                        l122 1798                        l107 0846  
                      l116 0891                        l151 091E                        l160 175C  
                      l154 1770                        l172 08DE                        l157 177C  
                      l173 08E1                        l174 08E6                        l166 1765  
                      l327 0A56                        l169 176F                        l291 17E7  
                      l293 17FF                        l605 0F45                        l630 17DA  
                      l615 0F8D                        l287 0104                        l640 0BE7  
                      l720 0B8A                        l609 0F6B                        l642 0D67  
                      l626 0FF1                        l618 0FCD                        l627 0FFF  
                      l731 0B54                        l563 099C                        l484 0ABB  
                      l732 0B60                        l724 0B38                        l477 0AD0  
                      l573 0958                        l662 0D4B                        l590 0E49  
                      l718 0AF3                        l487 0AD0                        l664 0D5B  
                      l656 0CD9                        l680 0465                        l584 0DCB  
                      l737 08A6                        l739 08B8                        l692 0459  
                      l588 0E74                        l597 0FFF                        l686 03D1  
                      _GIE 005F               __CFG_CPD$OFF 0000                        _va1 006C  
                      _min 006A                        _sec 006B                        fsr0 0004  
                      indf 0000               ___flmul@aexp 0042               ___flmul@bexp 0043  
             ___flmul@sign 003D               ___flmul@temp 0048               ___flmul@prod 0044  
             __CFG_LVP$OFF 0000               ___fltol@exp1 007A                       l2001 0E5E  
                     l2011 0E7D                       l2003 0E5F                       l2101 0FFA  
                     l2021 0EA5                       l2005 0E6A                       l2111 08A0  
                     l2103 0FFE                       l2031 0EC2                       l2023 0EB0  
                     l2015 0E86                       l2007 0E6E                       l2113 08AF  
                     l2105 0893                       l2041 0F28                       l2025 0EB2  
                     l2017 0E9D                       l2009 0E78                       l2033 0EC7  
                     l2121 17A1                       l2201 0032                       l2131 09AC  
                     l2115 08B4                       l2107 0895                       l2051 0F5B  
                     l2035 0EDD                       l2043 0F37                       l2027 0EB6  
                     l2019 0EA1                       l2123 17A2                       l2211 005D  
                     l2203 0037                       l2141 09DE                       l2133 09BA  
                     l2301 0B92                       l2109 089C                       l2061 0F74  
                     l2053 0F66                       l2045 0F4D                       l2037 0F1D  
                     l2029 0EB7                       l2125 17A9                       l2213 0061  
                     l2143 09E4                       l2135 09C3                       l2127 099D  
                     l2151 178B                       l2311 0BA7                       l2303 0B98  
                     l2071 0F84                       l2063 0F79                       l2055 0F6A  
                     l2047 0F52                       l2039 0F23                       l2119 1799  
                     l2231 0096                       l2215 0065                       l2207 0038  
                     l2145 09EA                       l2137 09D2                       l2129 09A6  
                     l2153 1791                       l2161 0881                       l2401 0CBE  
                     l2321 0BBF                       l2313 0BAF                       l2305 0B9C  
                     l2081 0FA5                       l2073 0F8A                       l2057 0F6F  
                     l2065 0F7B                       l2241 00DA                       l2233 009C  
                     l2225 0070                       l2217 0069                       l2209 0055  
                     l2163 1754                       l2171 175D                       l2139 09D8  
                     l2147 177E                       l2155 086C                       l2411 0CE3  
                     l2403 0CC2                       l2331 0BD4                       l2323 0BC5  
                     l2315 0BB0                       l2307 0B9D                       l2091 0FDF  
                     l2083 0FA9                       l2059 0F72                       l2067 0F7F  
                     l2243 00E1                       l2235 00A3                       l2219 006E  
                     l2181 08CF                       l2165 1759                       l2173 1762  
                     l2149 1783                       l2157 086D                       l2421 0D21  
                     l2413 0CF1                       l2405 0CD6                       l2341 0BFB  
                     l2333 0BDC                       l2325 0BC9                       l2309 0BA2  
                     l2317 0BB2                       l2501 0235                       l2093 0FE4  
                     l2085 0FC9                       l2077 0F92                       l2069 0F80  
                     l2245 00E5                       l2237 00A7                       l2229 008C  
                     l2191 0847                       l2183 08D4                       l2175 08B9  
                     l2167 1766                       l2159 087B                       l2431 0D51  
                     l2423 0D2F                       l2415 0CF5                       l2343 0BFF  
                     l2335 0BDD                       l2327 0BCA                       l2319 0BBA  
                     l2511 02A8                       l2503 0245                       l2095 0FE5  
                     l2087 0FD2                       l2079 0F97                       l2271 0A8B  
                     l2263 0A6B                       l2239 00AC                       l2247 00EE  
                     l2185 08DA                       l2177 08BE                       l2169 176B  
                     l2433 0D55                       l2425 0D3E                       l2417 0D0E  
                     l2409 0CDE                       l2361 0C40                       l2353 0C16  
                     l2329 0BCF                       l2337 0BDF                       l2521 0355  
                     l2513 02C5                       l2505 0262                       l2441 0105  
                     l2097 0FE9                       l2089 0FD7                       l2273 0A8F  
                     l2281 0AA9                       l2265 0A80                       l2257 0A57  
                     l2601 0B21                       l1801 0A15                       l2249 0100  
                     l2187 08E2                       l2179 08C6                       l2435 0D57  
                     l2427 0D42                       l2419 0D14                       l2371 0C5E  
                     l2363 0C42                       l2355 0C28                       l2339 0BEF  
                     l2347 0C08                       l2531 03A1                       l2523 037D  
                     l2515 02F2                       l2507 0272                       l2451 011C  
                     l2443 010C                       l2099 0FEB                       l2291 0AC5  
                     l2267 0A81                       l2259 0A62                       l2611 0B58  
                     l2603 0B2F                       l1811 0A48                       l1803 0A1E  
                     l2195 0020                       l2429 0D4A                       l2365 0C47  
                     l2373 0C67                       l2381 0C8C                       l2357 0C30  
                     l2349 0C0D                       l2541 03B6                       l2533 03A2  
                     l2525 0386                       l2517 0302                       l2509 028F  
                     l2461 0138                       l2453 0121                       l2445 0112  
                     l2293 17B7                       l2269 0A89                       l2621 0B82  
                     l2613 0B62                       l2605 0B3F                       l1805 0A30  
                     l1813 0A4E                       l1821 08EE                       l1901 0941  
                     l2197 0025                       l2701 064D                       l1831 0838  
                     l2391 0CA9                       l2383 0C92                       l2375 0C79  
                     l2367 0C59                       l2359 0C38                       l2551 03DB  
                     l2543 03BA                       l2535 03AB                       l2527 0394  
                     l2519 032F                       l2471 014D                       l2463 013E  
                     l2455 0129                       l2447 0116                       l1911 0D68  
                     l2295 17BB                       l2287 0AB0                       l2279 0A97  
                     l2615 0B78                       l2607 0B4A                       l1807 0A3E  
                     l1823 091B                       l1903 0947                       l2199 002B  
                     l2711 0707                       l2703 06C5                       l2631 048B  
                     l1833 0839                       l1841 000F                       l2393 0CAA  
                     l2385 0C9A                       l2377 0C7A                       l2369 0C5D  
                     l2561 0419                       l2553 03E9                       l2545 03CE  
                     l2529 039D                       l2537 03B1                       l2481 0169  
                     l2473 0155                       l2465 0142                       l2457 012B  
                     l2449 0117                       l1921 0D7F                       l1913 0D6F  
                     l2289 0AC0                       l2617 0B7D                       l2609 0B4E  
                     l1809 0A3F                       l1825 091C                       l1817 08E7  
                     l1905 094E                       l2721 074D                       l2713 0710  
                     l2705 06D8                       l2641 04BA                       l2633 0497  
                     l2625 0466                       l1851 17DD                       l1835 0843  
                     l1843 0019                       l2395 0CB3                       l2387 0C9C  
                     l2379 0C88                       l2299 0B8B                       l2571 044D  
                     l2563 0424                       l2555 03ED                       l2539 03B5  
                     l2491 01AC                       l2475 0157                       l2467 0143  
                     l2459 0133                       l1931 0D97                       l1923 0D84  
                     l1915 0D75                       l2619 0B81                       l1827 091D  
                     l1819 08EB                       l1907 0954                       l2731 0789  
                     l2723 0759                       l2715 0719                       l2707 06E8  
                     l2651 04DE                       l2643 04C3                       l2635 04A0  
                     l2627 0478                       l1853 17E1                       l1845 1770  
                     l1829 0834                       l1837 000A                       l2389 0CA5  
                     l2397 0CB9                       l2573 0451                       l2565 0433  
                     l2557 0406                       l2549 03D6                       l2493 01C8  
                     l2485 0172                       l2477 015F                       l2469 0148  
                     l1941 0DAD                       l1933 0D9C                       l1925 0D8C  
                     l1917 0D79                       l2581 0AD2                       l2741 07C2  
                     l2733 0791                       l2725 0761                       l2717 0728  
                     l2709 0700                       l2661 051F                       l2653 04F5  
                     l2645 04CB                       l2637 04AC                       l2629 0482  
                     l1855 17EE                       l1847 1776                       l1839 000E  
                     l2399 0CBD                       l2575 0452                       l2567 043D  
                     l2559 040C                       l2495 01F4                       l2487 0182  
                     l2479 0164                       l1951 0DC1                       l1943 0DAE  
                     l1935 0DA2                       l1927 0D8D                       l1919 0D7A  
                     l2583 0AD7                       l1871 096B                       l1863 0959  
                     l2743 07CA                       l2735 07A4                       l2727 0774  
                     l2719 073B                       l2671 053F                       l2663 0524  
                     l2655 04FA                       l2647 04D0                       l2639 04B5  
                     l1857 17F5                       l1849 17DB                       l2577 045D  
                     l2569 043F                       l2497 0210                       l2489 018F  
                     l1961 0DDD                       l1945 0DB3                       l1953 0DC3  
                     l1937 0DA3                       l1929 0D8F                       l2593 0B04  
                     l2585 0ADB                       l1793 09F1                       l1881 098B  
                     l1873 096F                       l1865 095B                       l2745 07DD  
                     l2737 07AD                       l2729 077D                       l2681 057D  
                     l2673 0549                       l2665 0529                       l2657 04FF  
                     l2649 04D5                       l1859 17FB                       l2499 022C  
                     l1971 0DF1                       l1963 0DE1                       l1955 0DD1  
                     l1947 0DB8                       l1939 0DA9                       l2595 0B09  
                     l2587 0AEB                       l1795 0A01                       l1883 0992  
                     l1875 0973                       l1867 0961                       l1891 0925  
                     l2771 004A                       l2739 07B9                       l2691 05A8  
                     l2683 058B                       l2675 055C                       l2667 0532  
                     l2659 0508                       l1981 0E05                       l1973 0DF5  
                     l1965 0DE5                       l1957 0DD5                       l1949 0DC0  
                     l2597 0B16                       l2589 0AFB                       l1797 0A04  
                     l1877 0984                       l1869 0964                       l1885 0998  
                     l1893 0928                       l2693 05B6                       l2685 0590  
                     l2677 056F                       l2669 053A                       l1991 0E16  
                     l1983 0E09                       l1975 0DF9                       l1967 0DE9  
                     l1959 0DD9                       l2599 0B1D                       l1799 0A11  
                     l1879 098A                       l1895 092F                       l2695 05BB  
                     l2687 059A                       l2679 0574                       l1993 0E2D  
                     l1985 0E0D                       l1977 0DFD                       l1969 0DED  
                     l1897 0933                       l1889 091F                       l2697 05C5  
                     l2689 059F                       l1995 0E4D                       l1987 0E11  
                     l1979 0E01                       l1899 0937                       l2699 05F7  
                     l1997 0E58                       l1989 0E15                       l1999 0E5A  
                     STR_1 0826                       STR_2 0820                       STR_3 081A  
                     STR_4 082A                       STR_5 082A                       STR_6 082A  
                     STR_7 082A                       STR_8 082A                       STR_9 082D  
                     u2000 0984                       u2001 0983                       u2100 0D7F  
                     u2020 0998                       u2101 0D7E                       u2021 0997  
                     u2005 0980                       u2110 0D84                       u2030 0925  
                     u2111 0D83                       u2015 098C                       u2031 0924  
                     u3000 0CD6                       u2200 0E37                       u2120 0DA2  
                     u3001 0CD5                       u2121 0DA1                       u3010 0CDD  
                     u2210 0E4D                       u2130 0DAD                       u2050 0937  
                     u3011 0CDC                       u2211 0E4C                       u2131 0DAC  
                     u2051 0936                       u3020 0CE3                       u3100 0121  
                     u2300 0EB6                       u2220 0E5E                       u2140 0DB3  
                     u2060 0941                       u3021 0CE2                       u3101 0120  
                     u2301 0EB5                       u2221 0E5D                       u2141 0DB2  
                     u2061 0940                       u2045 0929                       u3030 0CF5  
                     u3110 0142                       u2150 0DB8                       u3031 0CF4  
                     u3111 0141                       u2151 0DB7                       u3040 0D04  
                     u3120 0148                       u2400 0F6F                       u2320 0EDD  
                     u2240 0E74                       u2160 0DD1                       u2080 0954  
                     u3121 0147                       u2401 0F6E                       u2321 0EDC  
                     u2241 0E73                       u2161 0DD0                       u2081 0953  
                     u2065 093D                       u3050 0D21                       u3130 014D  
                     u2410 0F79                       u2250 0E78                       u2170 0DD5  
                     u2090 0D79                       u3051 0D20                       u3211 0254  
                     u3131 014C                       u2411 0F78                       u2331 0EF6  
                     u2323 0ED9                       u2315 0EBB                       u2251 0E77  
                     u2235 0E63                       u2171 0DD4                       u2091 0D78  
                     u2075 0948                       u3060 0D3E                       u3212 025B  
                     u3140 0164                       u2500 0FD2                       u2420 0F7F  
                     u2340 0F0A                       u2332 0EF7                       u2260 0E7D  
                     u2180 0E2D                       u3061 0D3D                       u3045 0CFF  
                     u3301 036F                       u3221 0281                       u3213 0262  
                     u3205 022E                       u3141 0163                       u2501 0FD1  
                     u2421 0F7E                       u2341 0F0B                       u2333 0EFC  
                     u2261 0E7C                       u2181 0E2C                       u3070 0D55  
                     u3302 0376                       u3222 0288                       u3150 0169  
                     u2510 0FD7                       u2430 0F84                       u2350 0F28  
                     u2342 0F10                       u2334 0EFD                       u2190 0E36  
                     u3071 0D54                       u3055 0D1D                       u3303 037D  
                     u3223 028F                       u3151 0168                       u2511 0FD6  
                     u2431 0F83                       u2351 0F27                       u2343 0F11  
                     u2335 0F02                       u2271 0E8F                       u2191 0E34  
                     u2600 0891                       u3400 03ED                       u3080 0116  
                     u2520 0FE4                       u2440 0F8A                       u2360 0F4D  
                     u2336 0F03                       u2280 0EA1                       u2272 0E96  
                     u2601 0890                       u3065 0D3A                       u3401 03EC  
                     u3241 02B7                       u3161 01BA                       u3081 0115  
                     u2521 0FE3                       u2441 0F89                       u2361 0F4C  
                     u2281 0EA0                       u2273 0E9D                       u2185 0E29  
                     u2610 08DA                       u3410 03FC                       u3330 03A1  
                     u3242 02BE                       u3162 01C1                       u3090 011C  
                     u2530 0FE9                       u2450 0F91                       u2370 0F52  
                     u2290 0EA5                       u2611 08D9                       u3331 03A0  
                     u3315 037F                       u3251 02E4                       u3243 02C5  
                     u3235 0291                       u3171 01D6                       u3163 01C8  
                     u3091 011B                       u2531 0FE8                       u2451 0F90  
                     u2371 0F51                       u2291 0EA4                       u1900 1776  
                     u3420 0419                       u3252 02EB                       u3172 01DD  
                     u2540 0FFE                       u2460 0F97                       u2700 0A79  
                     u1820 0A01                       u2620 002B                       u1901 1775  
                     u3421 0418                       u3325 0396                       u3261 0311  
                     u3253 02F2                       u3181 0202                       u3173 01E4  
                     u2541 0FFD                       u2461 0F96                       u1821 0A00  
                     u2621 002A                       u1910 177C                       u2550 08A0  
                     u3430 0433                       u3350 03B5                       u3270 033B  
                     u3262 0318                       u3182 0209                       u2470 0FA9  
                     u2390 0F6A                       u2710 0A8F                       u3510 0B3E  
                     u2630 0065                       u1911 177B                       u2551 089F  
                     u3431 0432                       u3415 03F7                       u3351 03B4  
                     u3263 031F                       u3191 021E                       u3183 0210  
                     u2471 0FA8                       u2391 0F69                       u2711 0A8E  
                     u3511 0B3D                       u2631 0064                       u1920 17E1  
                     u2800 0BA2                       u3440 0451                       u3360 03BA  
                     u3192 0225                       u2480 0FBA                       u2720 0A96  
                     u1840 0A15                       u2640 008B                       u3600 0761  
                     u1921 17E0                       u2801 0BA1                       u3441 0450  
                     u3425 0415                       u3361 03B9                       u3345 03A4  
                     u3281 0347                       u3193 022C                       u2385 0F5F  
                     u2721 0A95                       u2705 0A74                       u3505 0B30  
                     u1841 0A14                       u2641 008A                       u3601 0760  
                     u2810 0BA7                       u2570 08B4                       u3370 03CE  
                     u3290 0363                       u3282 034E                       u2490 0FC9  
                     u3530 0B4E                       u3450 0AD7                       u2650 0096  
                     u3610 0791                       u2811 0BA6                       u2571 08B3  
                     u3435 042F                       u3371 03CD                       u3283 0355  
                     u3275 0336                       u2491 0FC8                       u3531 0B4D  
                     u3451 0AD6                       u1835 0A06                       u2651 0095  
                     u3611 0790                       u2580 1783                       u2900 0C5D  
                     u2820 0BC9                       u3380 03D5                       u2740 0AA8  
                     u3540 0B54                       u3460 0ADB                       u1860 0A30  
                     u2660 009C                       u3620 07CA                       u2581 1782  
                     u2901 0C5C                       u2821 0BC8                       u2565 08A7  
                     u3381 03D4                       u2485 0FB5                       u2741 0AA7  
                     u3541 0B53                       u3525 0B43                       u3461 0ADA  
                     u1861 0A2F                       u2661 009B                       u2645 0087  
                     u3621 07C9                       u1950 17FB                       u2590 1791  
                     u2830 0BCF                       u3390 03DB                       u2750 0AAF  
                     u3550 0B58                       u3470 0AFB                       u2670 00EE  
                     u1951 17FA                       u1935 17E8                       u2591 1790  
                     u2831 0BCE                       u3391 03DA                       u3295 035E  
                     u2751 0AAE                       u2735 0A98                       u3551 0B57  
                     u3471 0AFA                       u1855 0A17                       u2671 00ED  
                     u2920 0C79                       u2840 0BD4                       u3560 0B6D  
                     u1880 0A4E                       u1960 0961                       u2680 0100  
                     u1945 17EF                       u2921 0C78                       u2841 0BD3  
                     u1881 0A4D                       u1865 0A2C                       u1961 0960  
                     u2681 00FF                       u2930 0C92                       u2850 0BEF  
                     u2770 0AC0                       u2690 0A62                       u3570 0B7D  
                     u3490 0B1C                       u1890 08FE                       u3707 09BE  
                     u2931 0C91                       u2915 0C60                       u2851 0BEE  
                     u2771 0ABF                       u2691 0A61                       u3571 0B7C  
                     u3491 0B1B                       u1875 0A40                       _PEIE 005E  
                     u2940 0C9A                       u2860 0C0D                       u2780 0AC5  
                     u3580 0B81                       u1980 0973                       u3717 09CD  
                     u2941 0C99                       u2925 0C75                       u2861 0C0C  
                     u2781 0AC4                       u2765 0AB2                       u3581 0B80  
                     u3565 0B68                       u3485 0B0E                       u1981 0972  
                     u3637 047E                       u2870 0C47                       u2790 0B9C  
                     u3590 0728                       u3727 083E                       u2871 0C46  
                     u2791 0B9B                       u1895 08F9                       u1975 0965  
                     u3591 0727                       u3647 0545                       u2960 0CA9  
                     u2961 0CA8                       u3657 0596                       u2955 0C9E  
                     u1995 0974                       u3595 0724                       u3667 05C1  
                     u2980 0CBD                       u3677 0014                       u2981 0CBC  
                     u2885 0C49                       u2990 0CC2                       u3687 09A1  
                     u2991 0CC1                       u2975 0CAC                       u2895 0C52  
                     u3697 09B0               __CFG_WRT$OFF 0000                       _dec1 00A8  
                     _min1 00AD                       _int1 0068                       _sec1 00AF  
                     _cont 006D                       _main 0466                       _pot1 00A4  
                     btemp 007E                       start 0000              __CFG_IESO$OFF 0000  
          ___fldiv@new_exp 005C         __size_of_LCDisplay 0026           ?_I2C_Master_Init 0020  
         ?_I2C_Master_Read 0070           ?_I2C_Master_Wait 0070           ?_I2C_Master_Stop 0070  
            ___fltol@sign1 0079            __end_of___fladd 1000                      ?_main 0070  
          __end_of___fldiv 0D68                      STR_10 082F                      STR_11 0831  
                    STR_12 082F                      STR_13 082F                      STR_14 0828  
                    STR_15 082F              __CFG_WDTE$OFF 0000            __end_of___flmul 0466  
          __end_of___flsub 17DB            __end_of___fltol 0AD1                      _ANSEL 0188  
          __end_of___lldiv 0A57            __end_of___lwdiv 099D            __end_of___lwmod 0959  
         __end_of_LCDwrite 001D                      _PORTA 0005                      _PORTB 0006  
                    _PORTC 0007                      _PORTD 0008                      _TRISB 0086  
                    _TRISD 0088                      _SSPIE 0463                      _SSPIF 0063  
           __CFG_FCMEN$OFF 0000          __end_of_BCD_2_DEC 086C            __end_of_dpowers 081A  
           __CFG_BOREN$OFF 0000                      pclath 000A                      status 0003  
                    wtemp0 007E            __end_of_sprintf 0105             __CFG_MCLRE$OFF 0000  
          __initialization 07EA               __end_of_main 07EA              ?_LCDcursorSet 0073  
                   ??_main 0064          ?_I2C_Master_Start 0070          ?_I2C_Master_Write 0070  
       ??_I2C_Master_Start 0070         ??_I2C_Master_Write 0072          __end_of_LCDisplay 0892  
                   _ANSELH 0189                     _LCDcmd 0833                     _SSPADD 0093  
                   _TRISC3 043B                     _TRISC4 043C                     _SSPCON 0014  
                   _SSPBUF 0013           __end_of___xxtofl 0B8B             __CFG_PWRTE$OFF 0000  
                ??___fladd 0020                     ___wmul 17DB                  ??___fldiv 0052  
                ??___flmul 0038                  ??___flsub 007E                  ??___fltol 0074  
                ??___lldiv 0078                  ??___lwdiv 0074                  ??___lwmod 007C  
                   _config 1799             ??_LCDcursorSet 0074         __size_of__Umul8_16 0027  
                ??_sprintf 0023               ___xxtofl@arg 007A               ___xxtofl@exp 0079  
             ___xxtofl@val 0070    __end_of__initialization 07FC                 ___fltol@f1 0070  
                ?_LCDwrite 0070             __pcstackCOMMON 0070                  LCDcmd@cmd 0072  
    __end_of_LCD8bits_init 09F1                 __pbssBANK0 0068                 __pbssBANK1 00A0  
                  ?_LCDcmd 0070                 ??_LCDwrite 0070          __end_of__Umul8_16 08B9  
               __pmaintext 0466                    ?___wmul 0070                    ?_config 0070  
                ?___xxtofl 0070                    _SSPCON2 0091                    _SSPSTAT 0094  
               __stringtab 0800                  _BCD_2_DEC 0847            __size_of_LCDcmd 0014  
     __end_of_LCDcursorSet 1799               LCDisplay@val 0073                    ___fladd 0D68  
                  ___fldiv 0B8B                    ___flmul 0105                    ___flsub 17B7  
                  ___fltol 0A57                    ___lldiv 09F1            __size_of___wmul 0025  
                  ___lwdiv 0959                    ___lwmod 091F            __size_of_config 001E  
                  _decpot1 00B1                  _ANSELbits 0188                    __ptext1 001D  
                  __ptext2 091F                    __ptext3 0959                    __ptext4 1799  
                  __ptext5 08E7                    __ptext6 09F1                    __ptext7 0AD1  
                  __ptext8 0A57                    __ptext9 17B7                    _contStr 006E  
                  _dpowers 0810                 ??___xxtofl 0074   __size_of_I2C_Master_Init 0038  
 __size_of_I2C_Master_Read 002E                    _potStr1 00AA   __size_of_I2C_Master_Wait 000D  
 __size_of_I2C_Master_Stop 0009                    _sprintf 001D                    clrloop0 174D  
     end_of_initialization 07FC                 ?_BCD_2_DEC 0076                  _LCDisplay 086C  
__size_of_I2C_Master_Start 0009  __size_of_I2C_Master_Write 000A            ___lldiv@divisor 0070  
          ___lldiv@counter 007D           I2C_Master_Init@c 0020           I2C_Master_Read@a 0070  
                _PORTBbits 0006                ___fladd@grs 007B               LCDwrite@dato 0072  
            ___xxtofl@sign 0078                  _TRISCbits 0087                ___fldiv@grs 005E  
              ___fldiv@rem 0057                ___flmul@grs 003E                 ?_LCDisplay 0073  
           __end_of_LCDcmd 0847        BCD_2_DEC@to_convert 0076          __size_of_LCDwrite 0014  
           __end_of___wmul 1800             __end_of_config 17B7        start_initialization 07EA  
    __size_of_LCDcursorSet 001C                   ??_LCDcmd 0070                ??_BCD_2_DEC 0078  
        ??_I2C_Master_Init 0024          ??_I2C_Master_Read 0072          ??_I2C_Master_Wait 0070  
        ??_I2C_Master_Stop 0070   __CFG_FOSC$INTRC_NOCLKOUT 0000                   ??___wmul 0074  
                __Umul8_16 0892                   ??_config 007E               _LCDcursorSet 177D  
                ___fladd@a 0074                  ___fladd@b 0070                  ___fldiv@a 004A  
                ___fldiv@b 004E                  ___flmul@a 0034                  ___flmul@b 0030  
                ___flsub@a 0028                  ___flsub@b 002C                  ___latbits 0002  
            __pcstackBANK0 0020          __size_of___xxtofl 00BA                sprintf@flag 0027  
              ??_LCDisplay 0075                sprintf@prec 0028           _I2C_Master_Start 1754  
         _I2C_Master_Write 1766           ___lwdiv@dividend 0072                   ?___fladd 0070  
                 ?___fldiv 004A                   ?___flmul 0030                   ?___flsub 0028  
                 ?___fltol 0070                   ?___lldiv 0070                 ?__Umul8_16 0070  
                 ?___lwdiv 0070                   ?___lwmod 0078     __size_of_LCD8bits_init 0054  
                __pstrings 0800           ___lwdiv@quotient 0075                   ?_sprintf 0020  
           ___wmul@product 0074                  clear_ram0 174C                   _LCDwrite 0009  
              __stringbase 080F          ___wmul@multiplier 0070        I2C_Master_Read@temp 0074  
            _LCD8bits_init 099D                ??__Umul8_16 0072           __size_of___fladd 0298  
         __size_of___fldiv 01DD           __size_of___flmul 0361           __size_of___flsub 0024  
         __size_of___fltol 007A           __size_of___lldiv 0066           __size_of___lwdiv 0044  
         __size_of___lwmod 003A         __end_of__stringtab 0810                 sprintf@val 0029  
          _I2C_Master_Init 08E7            _I2C_Master_Read 08B9                   ___xxtofl 0AD1  
          _I2C_Master_Wait 1770            _I2C_Master_Stop 175D                   _dectemp1 00A0  
          ___lwdiv@divisor 0070            ___lwdiv@counter 0077                   __ptext10 0D68  
                 __ptext11 0105                   __ptext20 175D                   __ptext12 0892  
                 __ptext21 1754                   __ptext13 0B8B                   __ptext22 08B9  
                 __ptext14 086C                   __ptext23 1770                   __ptext15 0009  
                 __ptext24 0847                   __ptext16 177D                   __ptext25 17DB  
                 __ptext17 099D                   __ptext18 0833                   __ptext19 1766  
        __CFG_BOR4V$BOR40V 0000             ?_LCD8bits_init 0070           __size_of_sprintf 00E8  
            __size_of_main 0384   __end_of_I2C_Master_Start 175D   __end_of_I2C_Master_Write 1770  
                sprintf@ap 0026                  sprintf@sp 002B           ___lwmod@dividend 007A  
         ___lldiv@dividend 0074                  stringcode 080A    __end_of_I2C_Master_Init 091F  
  __end_of_I2C_Master_Read 08E7    __end_of_I2C_Master_Wait 177D    __end_of_I2C_Master_Stop 1766  
   __Umul8_16@multiplicand 0070                   sprintf@c 002C                   sprintf@f 0020  
         ___lldiv@quotient 0079          I2C_Master_Write@d 0070            ___lwmod@divisor 0078  
          ___lwmod@counter 007D         LCDcursorSet@column 0073                   stringdir 080A  
                 stringtab 0800            ??_LCD8bits_init 0073                _SSPCON2bits 0091  
            ___fladd@signs 0078               ___fladd@aexp 0079               ___fladd@bexp 007A  
     __Umul8_16@multiplier 0078            LCDcursorSet@row 0074          __Umul8_16@product 0074  
       __size_of_BCD_2_DEC 0025  
